EXPORTS
    ANNkdDim @1 DATA
    ANNkdFRDim @2 DATA
    ANNkdFRMaxErr @3 DATA
    ANNkdFRPointMK @4 DATA
    ANNkdFRPts @5 DATA
    ANNkdFRPtsInRange @6 DATA
    ANNkdFRPtsVisited @7 DATA
    ANNkdFRQ @8 DATA
    ANNkdFRSqRad @9 DATA
    ANNkdMaxErr @10 DATA
    ANNkdPointMK @11 DATA
    ANNkdPts @12 DATA
    ANNkdQ @13 DATA
    ANNmaxPtsVisited @14 DATA
    ANNprBoxPQ @15 DATA
    ANNprDim @16 DATA
    ANNprEps @17 DATA
    ANNprMaxErr @18 DATA
    ANNprPointMK @19 DATA
    ANNprPts @20 DATA
    ANNprQ @21 DATA
    ANNptsVisited @22 DATA
    ColorString @23 DATA
    GQH @24 DATA
    GQH1 @25 DATA
    GQH6 @26 DATA
    GQH8 @27 DATA
    GQHnPt @28 DATA
    GQL @29 DATA
    GQP @30 DATA
    GQPyr @31 DATA
    GQQ @32 DATA
    GQQ1 @33 DATA
    GQQ16 @34 DATA
    GQQ3 @35 DATA
    GQQ4 @36 DATA
    GQQ7 @37 DATA
    GQQ9 @38 DATA
    GQQnPt @39 DATA
    GQT @40 DATA
    GQT1 @41 DATA
    GQT2 @42 DATA
    GQT3 @43 DATA
    GQT4 @44 DATA
    GQT5 @45 DATA
    GQT6 @46 DATA
    GQT7 @47 DATA
    GQT8 @48 DATA
    GQTSolin @49 DATA
    GQTdegen @50 DATA
    GQTet @51 DATA
    GQTet1 @52 DATA
    GQTet2 @53 DATA
    GQTet3 @54 DATA
    GQTet4 @55 DATA
    GQTet5 @56 DATA
    GQTet6 @57 DATA
    GQTetDegen @58 DATA
    GQTetSolin @59 DATA
    GQTetnPt @60 DATA
    GQTetnPtSolin @61 DATA
    GQTnPt @62 DATA
    GQTnPtSolin @63 DATA
    GeneralOptions_Color @64 DATA
    GeneralOptions_Number @65 DATA
    GeneralOptions_String @66 DATA
    GeometryOptions_Color @67 DATA
    GeometryOptions_Number @68 DATA
    GeometryOptions_String @69 DATA
    KD_TRIVIAL @70 DATA
    MeshOptions_Color @71 DATA
    MeshOptions_Number @72 DATA
    MeshOptions_String @73 DATA
    PostProcessingOptions_Color @74 DATA
    PostProcessingOptions_Number @75 DATA
    PostProcessingOptions_String @76 DATA
    PrintOptions_Color @77 DATA
    PrintOptions_Number @78 DATA
    PrintOptions_String @79 DATA
    SolverOptions_Color @80 DATA
    SolverOptions_Number @81 DATA
    SolverOptions_String @82 DATA
    ViewOptions_Color @83 DATA
    ViewOptions_Number @84 DATA
    ViewOptions_String @85 DATA
    _Z10CreatePathRKNSt7__cxx1112basic_stringIcSt11char_traitsIcESaIcEEE @86
    _Z10EndSurfaceP7Surface @87
    _Z10FindVolumei @88
    _Z10FreeVertexPvS_ @89
    _Z10FreeVolumePvS_ @90
    _Z10GetOptionsiPPc @91
    _Z10GmshRemotev @92
    _Z10HSV_to_RGBdddPdS_S_ @93
    _Z10IsoSimplexPdS_S_S_dS_S_S_S_ @94
    _Z10List_ResetP6List_T @95
    _Z10List_WriteP6List_TiPv @96
    _Z10MElementBBPvPdS0_ @97
    _Z10NEWSURFACEv @98
    _Z10PrintUsageRKNSt7__cxx1112basic_stringIcSt11char_traitsIcESaIcEEE @99
    _Z10ProtudeXYZRdS_S_P13ExtrudeParams @100
    _Z10RGB_to_HSVdddPdS_S_ @101
    _Z10RefineMeshP6GModelbbb @102
    _Z10SmoothMeshP6GModel @103
    _Z10SplitCurveiP6List_TS0_ @104
    _Z10SystemCallRKNSt7__cxx1112basic_stringIcSt11char_traitsIcESaIcEEEb @105
    _Z10Tree_QueryP6Tree_TPv @106
    _Z10UnlinkFileRKNSt7__cxx1112basic_stringIcSt11char_traitsIcESaIcEEE @107
    _Z10add_circleRKNSt7__cxx1112basic_stringIcSt11char_traitsIcESaIcEEES6_S6_S6_S6_S6_S6_ @108
    _Z10add_infileRKNSt7__cxx1112basic_stringIcSt11char_traitsIcESaIcEEES6_ @109
    _Z10add_sphereRKNSt7__cxx1112basic_stringIcSt11char_traitsIcESaIcEEES6_S6_S6_S6_S6_S6_S6_ @110
    _Z10angle_02pid @111
    _Z10angle_planPdS_S_S_ @112
    _Z10annAllocPtid @113
    _Z10annPrintPtPdiRSo @114
    _Z10assignFaceP5GFaceRSt3setIP8MElementSt4lessIS3_ESaIS3_EE @115
    _Z10avl_deleteP15avl_tree_structPPvS2_ @116
    _Z10avl_insertP15avl_tree_structPvS1_ @117
    _Z10avl_lookupP15avl_tree_structPvPS1_ @118
    _Z10avl_numcmpPKvS0_ @119
    _Z10char2floatc @120
    _Z10edges_sortSt4pairIdP8BDS_EdgeES2_ @121
    _Z10eigenvaluePA3_dPd @122
    _Z10fair_splitPPdPiRK11ANNorthRectiiRiRdS5_ @123
    _Z10findCavityRNSt7__cxx114listI8faceXtetSaIS1_EEERNS0_IP5MTet4SaIS6_EEEP7MVertexS6_ @124
    _Z10float2charf @125
    _Z10getBLFieldP6GModel @126
    _Z10getNGQHPtsi @127
    _Z10getNGQLPtsi @128
    _Z10getNGQQPtsi @129
    _Z10getNGQTPtsi @130
    _Z10gmsh_yylexv @131
    _Z10split_edgeiP6List_TRKNSt7__cxx1112basic_stringIcSt11char_traitsIcESaIcEEE @132
    _Z10tetQualityP3TetPd @133
    _Z10topoExistsP6GModel @134
    _Z10updateSizeP7MVertexRSt3mapIS0_dSt4lessIS0_ESaISt4pairIKS0_dEEEd @135
    _Z10validFacesR5PrismRSt3mapIP7MVertexSt3setIP8MElementSt4lessIS6_ESaIS6_EES7_IS3_ESaISt4pairIKS3_SA_EEE @136
    _Z11ColorOptioniPKciS0_Rjb @137
    _Z11CreateCurveiiiP6List_TS0_iidd @138
    _Z11CutTrianglePdS_S_S_ddS_S_S_S_ @139
    _Z11DeleteCurveib @140
    _Z11DeletePointib @141
    _Z11DilatShapesddddddP6List_T @142
    _Z11FindSurfacei @143
    _Z11FreeSurfacePvS_ @144
    _Z11GetHostNameB5cxx11v @145
    _Z11InitOptionsi @146
    _Z11IsoTrianglePdS_S_S_dS_S_S_ @147
    _Z11KillProcessi @148
    _Z11List_ActionP6List_TPFvPvS1_E @149
    _Z11List_Createiii @150
    _Z11List_DeleteP6List_T @151
    _Z11List_InvertP6List_TS0_ @152
    _Z11List_PQueryP6List_TPvPFiPKvS3_E @153
    _Z11List_RemoveP6List_Ti @154
    _Z11List_SearchP6List_TPvPFiPKvS3_E @155
    _Z11List_UniqueP6List_TPFiPKvS2_E @156
    _Z11NEWLINELOOPv @157
    _Z11NEWPHYSICALv @158
    _Z11OpenProjectRKNSt7__cxx1112basic_stringIcSt11char_traitsIcESaIcEEE @159
    _Z11ParseStringRKNSt7__cxx1112basic_stringIcSt11char_traitsIcESaIcEEEb @160
    _Z11SortHilbertRSt6vectorIP4VertSaIS1_EERS_IiSaIiEE @161
    _Z11SortHilbertRSt6vectorIP7MVertexSaIS1_EE @162
    _Z11Tree_ActionP6Tree_TPFvPvS1_E @163
    _Z11Tree_CreateiPFiPKvS0_E @164
    _Z11Tree_DeleteP6Tree_T @165
    _Z11Tree_DeleteP6Tree_TPFvPvE @166
    _Z11Tree_InsertP6Tree_TPv @167
    _Z11Tree_PQueryP6Tree_TPv @168
    _Z11Tree_SearchP6Tree_TPv @169
    _Z11addEmbeddediSt6vectorIiSaIiEEii @170
    _Z11add_ellipseRKNSt7__cxx1112basic_stringIcSt11char_traitsIcESaIcEEES6_S6_S6_S6_S6_S6_S6_ @171
    _Z11add_trsfvolRSt6vectorIiSaIiEERKNSt7__cxx1112basic_stringIcSt11char_traitsIcESaIcEEE @172
    _Z11annAllocPtsii @173
    _Z11annBnds2BoxRK11ANNorthRectiiP16ANNorthHalfSpaceRS_ @174
    _Z11annBox2BndsRK11ANNorthRectS1_iRiRP16ANNorthHalfSpace @175
    _Z11annBoxSplitPPdPiiiR11ANNorthRectRi @176
    _Z11annEnclCubePPdPiiiR11ANNorthRect @177
    _Z11annEnclRectPPdPiiiR11ANNorthRect @178
    _Z11buildMetricP5GFacePdRK8SMetric3S1_ @179
    _Z11buildMetricP5GFacePdS1_ @180
    _Z11connectTetsIN9__gnu_cxx17__normal_iteratorIPP5MTet4St6vectorIS3_SaIS3_EEEEEvT_S9_PSt3setI5MFace9Less_FaceSaISB_EE @181
    _Z11connectTetsISt14_List_iteratorIP5MTet4EEvT_S4_PSt3setI5MFace9Less_FaceSaIS6_EE @182
    _Z11connectTetsISt23_Rb_tree_const_iteratorIP5MTet4EEvT_S4_PSt3setI5MFace9Less_FaceSaIS6_EE @183
    _Z11connectTetsRNSt7__cxx114listIP5MTet4SaIS2_EEE @184
    _Z11connectTetsRSt6vectorIP5MTet4SaIS1_EE @185
    _Z11connectTrisIN9__gnu_cxx17__normal_iteratorIPP5MTri3St6vectorIS3_SaIS3_EEEEEvT_S9_RS5_I9edgeXfaceSaISA_EE @186
    _Z11connectTrisISt14_List_iteratorIP5MTri3EEvT_S4_RSt6vectorI9edgeXfaceSaIS6_EE @187
    _Z11connectTrisISt23_Rb_tree_const_iteratorIP5MTri3EEvT_S4_RSt6vectorI9edgeXfaceSaIS6_EE @188
    _Z11countInListRNSt7__cxx114listIP5GEdgeSaIS2_EEES2_ @189
    _Z11decasteljaudRK7SPoint3S1_S1_RSt6vectorIS_SaIS_EERS2_IdSaIdEE @190
    _Z11decasteljaudRK7SPoint3S1_S1_S1_RSt6vectorIS_SaIS_EERS2_IdSaIdEE @191
    _Z11decasteljaudRKSt6vectorI7SPoint3SaIS0_EERS2_RS_IdSaIdEE @192
    _Z11fcmp_absintPKvS0_ @193
    _Z11fcmp_doublePKvS0_ @194
    _Z11fourthPointPdS_S_S_ @195
    _Z11getGQPriPtsi @196
    _Z11getGQPyrPtsi @197
    _Z11getGQTetPtsi @198
    _Z11gmsh_yyfreePv @199
    _Z11gmsh_yynameB5cxx11 @200 DATA
    _Z11gradSimplexPdS_S_S_S_ @201
    _Z11insertOneBBPvPdS0_P6bucket @202
    _Z11midpt_splitPPdPiRK11ANNorthRectiiRiRdS5_ @203
    _Z11parsestringc @204
    _Z11swap_configP8BDS_EdgePP9BDS_PointS3_S3_S3_S3_S3_S3_S3_S3_S3_S3_S3_ @205
    _Z12BGM_MeshSizeP7GEntityddddd @206
    _Z12ClearProjectv @207
    _Z12CompareCurvePKvS0_ @208
    _Z12CreateVertexiddP11gmshSurfaced @209
    _Z12CreateVertexiddddd @210
    _Z12CreateVolumeii @211
    _Z12DeleteVolumeib @212
    _Z12ExtrudeCurveiiddddddddddPP7SurfaceiP13ExtrudeParams @213
    _Z12ExtrudePointiiddddddddddPP5CurveS1_iP13ExtrudeParams @214
    _Z12FindEdgeLoopi @215
    _Z12FreeEdgeLoopPvS_ @216
    _Z12GenerateMeshP6GModeli @217
    _Z12GetProcessIdv @218
    _Z12GmshFinalizev @219
    _Z12List_PointerP6List_Ti @220
    _Z12List_ReallocP6List_Ti @221
    _Z12NumberOptioniPKciS0_Rdb @222
    _Z12OptimizeMeshP6GModel @223
    _Z12PrintOptionsiiiiPKcPSt6vectorINSt7__cxx1112basic_stringIcSt11char_traitsIcESaIcEEESaIS7_EE @224
    _Z12RotateShapesdddddddP6List_T @225
    _Z12StringOptioniPKciS0_RNSt7__cxx1112basic_stringIcSt11char_traitsIcESaIcEEEb @226
    _Z12TransferListPvS_ @227
    _Z12add_compoundRKNSt7__cxx1112basic_stringIcSt11char_traitsIcESaIcEEES6_RKSt6vectorIiSaIiEE @228
    _Z12add_cylinderRKNSt7__cxx1112basic_stringIcSt11char_traitsIcESaIcEEES6_S6_S6_S6_S6_S6_S6_S6_ @229
    _Z12add_embeddedRKNSt7__cxx1112basic_stringIcSt11char_traitsIcESaIcEEES6_RSt6vectorIiSaIiEEii @230
    _Z12add_lineloopP6List_TRKNSt7__cxx1112basic_stringIcSt11char_traitsIcESaIcEEEPi @231
    _Z12add_multlineRKNSt7__cxx1112basic_stringIcSt11char_traitsIcESaIcEEERSt6vectorIiSaIiEES6_ @232
    _Z12add_recosurfRKNSt7__cxx1112basic_stringIcSt11char_traitsIcESaIcEEERKSt6vectorIiSaIiEE @233
    _Z12add_surfloopP6List_TRKNSt7__cxx1112basic_stringIcSt11char_traitsIcESaIcEEEPi @234
    _Z12add_trsflineRSt6vectorIiSaIiEERKNSt7__cxx1112basic_stringIcSt11char_traitsIcESaIcEEESA_SA_SA_ @235
    _Z12add_trsfsurfRSt6vectorIiSaIiEERKNSt7__cxx1112basic_stringIcSt11char_traitsIcESaIcEEESA_ @236
    _Z12annDeallocPtRPd @237
    _Z12annMaxSpreadPPdPiii @238
    _Z12apply_filletRKNSt7__cxx1112basic_stringIcSt11char_traitsIcESaIcEEERKSt6vectorIiSaIiEESB_S6_ @239
    _Z12avl_extremumP15avl_tree_structiPPv @240
    _Z12avl_free_genP20avl_generator_struct @241
    _Z12avl_init_genP15avl_tree_structi @242
    _Z12bowyerWatsonP5GFaceiPSt3mapIP7MVertexS3_St4lessIS3_ESaISt4pairIKS3_S3_EEEPS1_IS3_7SPoint2S5_SaIS6_IS7_SC_EEE @243
    _Z12buildCutMeshP6GModelP9gLevelsetPSt3mapIiSt6vectorIP8MElementSaIS6_EESt4lessIiESaISt4pairIKiS8_EEERS3_IiP7MVertexSA_SaISB_ISC_SI_EEEPS3_IiS3_IiNSt7__cxx1112basic_stringIcSt11char_traitsIcESaIcEEESA_SaISB_ISC_SS_EEESA_SaISB_ISC_SV_EEEb @244
    _Z12delaunayTrgljjjPSt6vectorIP4VertSaIS1_EER12tetContainerP13edgeContainerb @245
    _Z12delete_fieldiRKNSt7__cxx1112basic_stringIcSt11char_traitsIcESaIcEEE @246
    _Z12edgeSwapPassP5GFaceRSt3setIP5MTri314compareTri3PtrSaIS3_EERK13swapCriterionR13bidimMeshData @247
    _Z12edgeSwapPassiR12tetContainerR13edgeContainer @248
    _Z12export_pointP31surfacePointWithExclusionRegioniP6_iobufP5GFace @249
    _Z12fill_min_maxddddPdS_ @250
    _Z12free_bucketsP6bucket @251
    _Z12getNGQPriPtsi @252
    _Z12getNGQPyrPtsi @253
    _Z12getNGQTetPtsi @254
    _Z12gmsh_yyallocy @255
    _Z12gmsh_yyerrorPKc @256
    _Z12gmsh_yyflushv @257
    _Z12gmsh_yyparsev @258
    _Z12init_optionsi @259
    _Z12insertVertexbP5GFaceP7MVertexPdP5MTri3RSt3setIS5_14compareTri3PtrSaIS5_EEPS9_R13bidimMeshDataS3_PS5_ @260
    _Z12intersectionRK8SMetric3S1_ @261
    _Z12opt_view_maxiid @262
    _Z12opt_view_miniid @263
    _Z12optimizeMeshP7GRegionRKN13qmTetrahedron8MeasuresE @264
    _Z12quadToTriJacdd @265
    _Z12recoverEdgesRSt6vectorIP5MTri3SaIS1_EERS_I5MEdgeSaIS5_EE @266
    _Z12saturateEdgeR4EdgeRSt6vectorIP4VertSaIS3_EERSt5stackI3IPTSt5dequeIS8_SaIS8_EEE @267
    _Z12selectDecompPPdPiiiRK11ANNorthRectPFvS0_S1_S4_iiRiRdS5_E13ANNshrinkRuleRS2_ @268
    _Z12skipcommentsv @269
    _Z12smoothVertexP5MTet4iRKN13qmTetrahedron8MeasuresE @270
    _Z12sortVerticesRKSt6vectorIP7MVertexSaIS1_EERS_IcSaIcEE @271
    _Z12swapEdgePassP5GFaceR8BDS_MeshRi @272
    _Z13CompareVertexPKvS0_ @273
    _Z13CompareVolumePKvS0_ @274
    _Z13ConvertToHTMLRNSt7__cxx1112basic_stringIcSt11char_traitsIcESaIcEEE @275
    _Z13CreateSurfaceii @276
    _Z13DeleteSurfaceib @277
    _Z13ExtrudeShapesiP6List_TddddddddddP13ExtrudeParamsS0_ @278
    _Z13GetColorTablei @279
    _Z13GetMouseUsageB5cxx11v @280
    _Z13GetStatisticsPdPA100_d @281
    _Z13GmshGetOptionRKNSt7__cxx1112basic_stringIcSt11char_traitsIcESaIcEEES6_RS4_i @282
    _Z13GmshGetOptionRKNSt7__cxx1112basic_stringIcSt11char_traitsIcESaIcEEES6_Rdi @283
    _Z13GmshGetOptionRKNSt7__cxx1112basic_stringIcSt11char_traitsIcESaIcEEES6_Rji @284
    _Z13GmshMergeFileRKNSt7__cxx1112basic_stringIcSt11char_traitsIcESaIcEEE @285
    _Z13GmshSetOptionRKNSt7__cxx1112basic_stringIcSt11char_traitsIcESaIcEEES6_S4_i @286
    _Z13GmshSetOptionRKNSt7__cxx1112basic_stringIcSt11char_traitsIcESaIcEEES6_di @287
    _Z13GmshSetOptionRKNSt7__cxx1112basic_stringIcSt11char_traitsIcESaIcEEES6_ji @288
    _Z13GmshWriteFileRKNSt7__cxx1112basic_stringIcSt11char_traitsIcESaIcEEE @289
    _Z13List_SuppressP6List_TPvPFiPKvS3_E @290
    _Z13MElementInElePvPd @291
    _Z13Octree_CreateiPdS_PFvPvS_S_EPFvS0_S_EPFiS0_S_E @292
    _Z13Octree_DeleteP6Octree @293
    _Z13Octree_InsertPvP6Octree @294
    _Z13Octree_SearchPdP6Octree @295
    _Z13PartitionMeshP6GModelR20meshPartitionOptions @296
    _Z13ReInitOptionsi @297
    _Z13RecombineMeshP6GModel @298
    _Z13SplitFileNameRKNSt7__cxx1112basic_stringIcSt11char_traitsIcESaIcEEE @299
    _Z13SystemCallExeRKNSt7__cxx1112basic_stringIcSt11char_traitsIcESaIcEEES6_b @300
    _Z13Tree_SuppressP6Tree_TPv @301
    _Z13_myGetFaceRepP11MHexahedroniPdS1_S1_P8SVector3i @302
    _Z13add_rectangleRKNSt7__cxx1112basic_stringIcSt11char_traitsIcESaIcEEES6_S6_S6_S6_S6_S6_ @303
    _Z13annAssignRectiR11ANNorthRectRKS_ @304
    _Z13annDeallocPtsRPPd @305
    _Z13annPlaneSplitPPdPiiidRiS2_ @306
    _Z13annPrintStats7ANNbool @307
    _Z13annResetStatsi @308
    _Z13apply_booleanRKNSt7__cxx1112basic_stringIcSt11char_traitsIcESaIcEEES6_RKSt6vectorISt4pairIiiESaIS9_EESD_ii @309
    _Z13copy_elementsP6GModelS0_RSt3mapIP7MVertexS3_St4lessIS3_ESaISt4pairIKS3_S3_EEEPSt6vectorI4PairIP7GVertexSF_ESaISG_EEPSC_ISD_IP5GEdgeSL_ESaISM_EEPSC_ISD_IP5GFaceSR_ESaISS_EEPSC_ISD_IP7GRegionSX_ESaISY_EE @310
    _Z13copy_verticesP6GModelS0_RSt3mapIP7MVertexS3_St4lessIS3_ESaISt4pairIKS3_S3_EEEPSt6vectorI4PairIP7GVertexSF_ESaISG_EEPSC_ISD_IP5GEdgeSL_ESaISM_EEPSC_ISD_IP5GFaceSR_ESaISS_EEPSC_ISD_IP7GRegionSX_ESaISY_EE @311
    _Z13edgeSwapPass2P5GFaceRSt3setIP5MTri314compareTri3PtrSaIS3_EERK13swapCriterionR13bidimMeshData @312
    _Z13eigenvalue2x2PA2_dPd @313
    _Z13equalVerticesRKSt6vectorIP7MVertexSaIS1_EES5_ @314
    _Z13fillMeanPlanePdS_S_R10mean_plane @315
    _Z13filterColumnsRSt6vectorIP8MElementSaIS1_EERSt3mapIS1_S3_St4lessIS1_ESaISt4pairIKS1_S3_EEE @316
    _Z13getTriToBreakP7MVertexRSt6vectorIP5MTri3SaIS3_EERiS7_ @317
    _Z13gmsh_yyget_inv @318
    _Z13gmsh_yyset_inP6_iobuf @319
    _Z13insertVertexBRNSt7__cxx114listI8faceXtetSaIS1_EEERNS0_IP5MTet4SaIS6_EEEP7MVertexddRSt6vectorIdSaIdEESF_S6_R12MTet4FactoryRSt3setIS6_14compareTet4PtrS7_E @320
    _Z13insertVertexBRNSt7__cxx114listI9edgeXfaceSaIS1_EEERNS0_IP5MTri3SaIS6_EEEbP5GFaceP7MVertexPdS6_RSt3setIS6_14compareTri3PtrS7_EPSH_R13bidimMeshDataSE_PS6_ @321
    _Z13inside_domainP14MElementOctreeddd @322
    _Z13interpolationRK8SMetric3S1_S1_S1_ddd @323
    _Z13interpolationRK8SMetric3S1_S1_dd @324
    _Z13interpolationRK8SMetric3S1_d @325
    _Z13meshGFaceBamgP5GFace @326
    _Z13meshGeneratorP5GFaceibbbPNSt7__cxx114listIP5GEdgeSaIS4_EEE @327
    _Z13normal2pointsddddddPd @328
    _Z13normal3pointsdddddddddPd @329
    _Z13old_algo_hexav @330
    _Z13opt_mesh_clipiid @331
    _Z13opt_mesh_dualiid @332
    _Z13opt_post_linkiid @333
    _Z13opt_view_axesiid @334
    _Z13opt_view_clipiid @335
    _Z13opt_view_nameiiNSt7__cxx1112basic_stringIcSt11char_traitsIcESaIcEEE @336
    _Z13opt_view_timeiid @337
    _Z13opt_view_typeiid @338
    _Z13opt_view_xmaxiid @339
    _Z13opt_view_xminiid @340
    _Z13opt_view_ymaxiid @341
    _Z13opt_view_yminiid @342
    _Z13opt_view_zmaxiid @343
    _Z13opt_view_zminiid @344
    _Z13recurClassifyP5MTri3P5GFaceRSt3mapIP5MLineP5GEdge15compareMLinePtrSaISt4pairIKS5_S7_EEERS3_IP9MTriangleS2_St4lessISG_ESaIS9_IKSG_S2_EEE @345
    _Z13refineMeshBDSP5GFaceR8BDS_MeshibPSt3mapIP7MVertexP9BDS_PointSt4lessIS5_ESaISt4pairIKS5_S7_EEE @346
    _Z13refineMeshMMGP7GRegion @347
    _Z13saturateEdgesR13edgeContainerR12tetContaineriRSt6vectorIP4VertSaIS5_EE @348
    _Z13searchElementP6bucketPdP6globalPFvPvS1_S1_EPFiS4_S1_E @349
    _Z13setVisibilityRKSt6vectorISt4pairIiiESaIS1_EEib @350
    _Z13setVisibilityiib @351
    _Z13sl_fair_splitPPdPiRK11ANNorthRectiiRiRdS5_ @352
    _Z13smooth_obj_3DPdPv @353
    _Z13splitEdgePassP5GFaceR8BDS_MeshdRi @354
    _Z13surfaceFaceUVP8MElementP5GFaceb @355
    _Z13triangle_areaPdS_S_ @356
    _Z14BGM_MeshMetricP7GEntityddddd @357
    _Z14CheckResourcesv @358
    _Z14CompareSurfacePKvS0_ @359
    _Z14CreateEdgeLoopiP6List_T @360
    _Z14DuplicateCurveP5Curve @361
    _Z14ExtrudeSurfaceiiddddddddddPP6VolumeP13ExtrudeParams @362
    _Z14FindCubicRootsPKdPdS1_ @363
    _Z14FixWindowsPathRKNSt7__cxx1112basic_stringIcSt11char_traitsIcESaIcEEE @364
    _Z14GetGmshBuildOSv @365
    _Z14GetGmshVersionv @366
    _Z14GetMemoryUsagev @367
    _Z14GmshInitializeiPPc @368
    _Z14InitOptionsGUIi @369
    _Z14InterpolateIsoPdS_S_S_diiS_S_S_ @370
    _Z14List_PSuppressP6List_Ti @371
    _Z14NEWSURFACELOOPv @372
    _Z14Octree_ArrangeP6Octree @373
    _Z14SetBoundingBoxb @374
    _Z14SetBoundingBoxdddddd @375
    _Z14SleepInSecondsd @376
    _Z14SymmetryShapesddddP6List_T @377
    _Z14TestConformityP6GModel @378
    _Z14add_charlengthRKNSt7__cxx1112basic_stringIcSt11char_traitsIcESaIcEEERKSt6vectorIiSaIiEES6_ @379
    _Z14add_circle_arciiiRKNSt7__cxx1112basic_stringIcSt11char_traitsIcESaIcEEE @380
    _Z14allEdgesLinkediP6List_T @381
    _Z14allFacesLinkediP6List_T @382
    _Z14angle3VerticesPK7MVertexS1_S1_ @383
    _Z14annAspectRatioiRK11ANNorthRect @384
    _Z14annBoxDistancePdS_S_i @385
    _Z14annMaxPtsVisiti @386
    _Z14annMedianSplitPPdPiiiRdi @387
    _Z14annResetCountsv @388
    _Z14annUpdateStatsv @389
    _Z14assignVariableRKNSt7__cxx1112basic_stringIcSt11char_traitsIcESaIcEEEiid @390
    _Z14avl_check_treeP15avl_tree_struct @391
    _Z14avl_free_tableP15avl_tree_structPFvPvES3_ @392
    _Z14avl_init_tablePFiPKvS0_E @393
    _Z14circumCenterXYPdS_S_S_ @394
    _Z14collapseVertexRSt6vectorIP5MTet4SaIS1_EES1_iiRKN13qmTetrahedron8MeasuresE18localMeshModActionPd @395
    _Z14delaunayizeBDSP5GFaceR8BDS_MeshRi @396
    _Z14fillPointCloudP5GEdgedRSt6vectorI7SPoint3SaIS2_EE @397
    _Z14fill_touch_bndPiSt6vectorIbSaIbEEi @398
    _Z14filterVerticesiR12vertexFilterRSt6vectorIP4VertSaIS3_EE @399
    _Z14getBoundingBoxiiP6List_T @400
    _Z14get_smoothnessP7MVertexP5GFaceRKSt3mapIS0_dSt4lessIS0_ESaISt4pairIKS0_dEEE @401
    _Z14gmsh_yyfactoryB5cxx11 @402 DATA
    _Z14gmsh_yyget_outv @403
    _Z14gmsh_yyreallocPvy @404
    _Z14gmsh_yyrestartP6_iobuf @405
    _Z14gmsh_yyset_outP6_iobuf @406
    _Z14gmsh_yysymbolsB5cxx11 @407 DATA
    _Z14inCircumCircleP9MTrianglePKdS2_R13bidimMeshData @408
    _Z14interiorNormal7SPoint2S_S_ @409
    _Z14normalizeAngleRd @410
    _Z14opt_general_lciid @411
    _Z14opt_mesh_lightiid @412
    _Z14opt_mesh_linesiid @413
    _Z14opt_mesh_lloydiid @414
    _Z14opt_mesh_orderiid @415
    _Z14opt_print_textiid @416
    _Z14opt_view_groupiiNSt7__cxx1112basic_stringIcSt11char_traitsIcESaIcEEE @417
    _Z14opt_view_lightiid @418
    _Z14opt_view_size0iid @419
    _Z14opt_view_size1iid @420
    _Z14print_one_statPc11ANNsampStatd @421
    _Z14removeDiamondsP5GFace @422
    _Z14remove_sliversRSt3setIP8MElementSt4lessIS1_ESaIS1_EERK3HexS6_ @423
    _Z14rtree_callbackP30volumePointWithExclusionRegionPv @424
    _Z14rtree_callbackP31surfacePointWithExclusionRegionPv @425
    _Z14rtree_callbackP4NodePv @426
    _Z14rtree_callbackP8MElementPv @427
    _Z14sl_midpt_splitPPdPiRK11ANNorthRectiiRiRdS5_ @428
    _Z14xyzInElementBBPdPvPFvS0_S_S_E @429
    _Z15ColorTable_CopyP14GmshColorTable @430
    _Z15ColorTable_DiffP14GmshColorTableS0_ @431
    _Z15CompareEdgeLoopPKvS0_ @432
    _Z15ComputeVonMisesPd @433
    _Z15CreateSingleDirRKNSt7__cxx1112basic_stringIcSt11char_traitsIcESaIcEEE @434
    _Z15DuplicateVertexP6Vertex @435
    _Z15DuplicateVolumeP6Volume @436
    _Z15FindSurfaceLoopi @437
    _Z15FixRelativePathRKNSt7__cxx1112basic_stringIcSt11char_traitsIcESaIcEEES6_ @438
    _Z15FreeSurfaceLoopPvS_ @439
    _Z15GetAbsolutePathRKNSt7__cxx1112basic_stringIcSt11char_traitsIcESaIcEEE @440
    _Z15GetGmshPackagerv @441
    _Z15GetRGBForStringPKcRiS1_S1_ @442
    _Z15GmshOpenProjectRKNSt7__cxx1112basic_stringIcSt11char_traitsIcESaIcEEE @443
    _Z15GradientDescentPFvRSt6vectorIdSaIdEERdbS2_PvES2_S4_ @444
    _Z15List_ISearchSeqP6List_TPvPFiPKvS3_E @445
    _Z15PrintOptionsDocv @446
    _Z15SortEdgesInLoopiP6List_Tb @447
    _Z15TRYTOFIXSPHERESP5GFaceR8BDS_MeshPSt3mapIP9BDS_PointP7MVertex13PointLessThanSaISt4pairIKS5_S7_EEE @448
    _Z15TranslateShapesdddP6List_T @449
    _Z15_relocateVertexP5GFaceP7MVertexRKSt6vectorIP8MElementSaIS5_EE @450
    _Z15_string2stippleNSt7__cxx1112basic_stringIcSt11char_traitsIcESaIcEEERiS5_ @451
    _Z15addPeriodicEdgeiiRKSt6vectorIdSaIdEE @452
    _Z15addPeriodicFaceiiRKSt3mapIiiSt4lessIiESaISt4pairIKiiEEE @453
    _Z15addPeriodicFaceiiRKSt6vectorIdSaIdEE @454
    _Z15add_ellipse_arciiiiRKNSt7__cxx1112basic_stringIcSt11char_traitsIcESaIcEEE @455
    _Z15annSplitBalancePPdPiiid @456
    _Z15assignVariablesRKNSt7__cxx1112basic_stringIcSt11char_traitsIcESaIcEEEP6List_TiS8_ @457
    _Z15buildEdgeCavityP5MTet4iPP7MVertexS3_RSt6vectorIS0_SaIS0_EES7_RS4_IS2_SaIS2_EE @458
    _Z15circumCenterXYZPdS_S_S_S_ @459
    _Z15computeLevelsetP6GModelR12cartesianBoxIdE @460
    _Z15delete_entitiesRKNSt7__cxx1112basic_stringIcSt11char_traitsIcESaIcEEERKSt6vectorISt4pairIiiESaIS9_EEb @461
    _Z15edgeSwapDelProjP7MVertexS0_S0_S0_ @462
    _Z15getIntersectionIP5GEdgeEvRSt6vectorIT_SaIS3_EERS2_INSt7__cxx114listIS3_S4_EESaIS9_EE @463
    _Z15getIntersectionIP5GFaceEvRSt6vectorIT_SaIS3_EERS2_INSt7__cxx114listIS3_S4_EESaIS9_EE @464
    _Z15getNewModelEdgeP5GFaceS0_RSt3mapISt4pairIiiEP5GEdgeSt4lessIS3_ESaIS2_IKS3_S5_EEE @465
    _Z15gmsh_yyget_lengv @466
    _Z15gmsh_yyget_textv @467
    _Z15inExclusionZoneR7SPoint2R5RTreeIP31surfacePointWithExclusionRegiondLi2EdLi8ELi4EERSt6vectorIS3_SaIS3_EE @468
    _Z15intersectEdge2dRK5MEdgeS1_ @469
    _Z15normal_triangleP9BDS_PointS0_S0_Pd @470
    _Z15opt_mesh_algo2diid @471
    _Z15opt_mesh_algo3diid @472
    _Z15opt_mesh_binaryiid @473
    _Z15opt_mesh_color_iiij @474
    _Z15opt_mesh_lc_maxiid @475
    _Z15opt_mesh_lc_miniid @476
    _Z15opt_mesh_pointsiid @477
    _Z15opt_mesh_prismsiid @478
    _Z15opt_post_smoothiid @479
    _Z15opt_print_widthiid @480
    _Z15opt_solver_nameiiNSt7__cxx1112basic_stringIcSt11char_traitsIcESaIcEEE @481
    _Z15opt_view_closediid @482
    _Z15opt_view_formatiiNSt7__cxx1112basic_stringIcSt11char_traitsIcESaIcEEE @483
    _Z15opt_view_nb_isoiid @484
    _Z15opt_view_raise0iid @485
    _Z15opt_view_raise1iid @486
    _Z15opt_view_raise2iid @487
    _Z15optimizeMeshBDSP5GFaceR8BDS_MeshiPSt3mapIP9BDS_PointP7MVertex13PointLessThanSaISt4pairIKS5_S7_EEE @488
    _Z15recurFindCavityRNSt7__cxx114listI9edgeXfaceSaIS1_EEERNS0_IP5MTri3SaIS6_EEEPdSA_S6_R13bidimMeshData @489
    _Z15recurFindCavityRSt6vectorI9edgeXfaceSaIS0_EERS_IP5MTri3SaIS5_EEP7MVertexS5_ @490
    _Z15sys3x3_with_tolPA3_dPdS1_S1_ @491
    _Z15tetcircumcenterPdS_S_S_S_S_S_S_ @492
    _Z15triangle_area2dPdS_S_ @493
    _Z15trySimpleShrinkPPdPiiiRK11ANNorthRectRS2_ @494
    _Z16ColorTable_PasteP14GmshColorTable @495
    _Z16ColorTable_PrintP14GmshColorTableP6_iobufPSt6vectorINSt7__cxx1112basic_stringIcSt11char_traitsIcESaIcEEESaIS9_EE @496
    _Z16ComputeScalarRepiPd @497
    _Z16CreateOutputFileRKNSt7__cxx1112basic_stringIcSt11char_traitsIcESaIcEEEibb @498
    _Z16DuplicateSurfaceP7Surface @499
    _Z16GaussLegendreTetiiiP5IntPt @500
    _Z16GaussLegendreTriiiP5IntPt @501
    _Z16GetGmshBuildDatev @502
    _Z16GetGmshBuildHostv @503
    _Z16GetTimeInSecondsv @504
    _Z16GmshClearProjectv @505
    _Z16InterpolateCurveP5Curvedi @506
    _Z16LaplaceSmoothingP7GRegion @507
    _Z16Octree_SearchAllPdP6OctreePSt6vectorIPvSaIS3_EE @508
    _Z16RelocateVerticesP5GFaceid @509
    _Z16RelocateVerticesP7GRegionid @510
    _Z16RelocateVerticesRSt6vectorIP7GRegionSaIS1_EEid @511
    _Z16ReplaceSubStringRKNSt7__cxx1112basic_stringIcSt11char_traitsIcESaIcEEES6_S6_ @512
    _Z16add_field_optioniRKNSt7__cxx1112basic_stringIcSt11char_traitsIcESaIcEEES6_S6_ @513
    _Z16avl_walk_forwardP15avl_node_structPFvPvS1_E @514
    _Z16buildUniqueFacesP7GRegionRSt3setI5MFace9Less_FaceSaIS2_EE @515
    _Z16collapseEdgePassP5GFaceR8BDS_MeshdiRi @516
    _Z16combination_of_4PiiiiRKSt6vectorIP7MVertexSaIS2_EERS0_IP12MTetrahedronSaIS8_EE @517
    _Z16computeMeshSizesP7GRegionRSt3mapIP7MVertexdSt4lessIS3_ESaISt4pairIKS3_dEEE @518
    _Z16connectTrianglesRNSt7__cxx114listIP5MTri3SaIS2_EEE @519
    _Z16connectTrianglesRSt3setIP5MTri314compareTri3PtrSaIS1_EE @520
    _Z16connectTrianglesRSt6vectorIP5MTri3SaIS1_EE @521
    _Z16delaunayMeshIn2DRSt6vectorIP7MVertexSaIS1_EERS_IP9MTriangleSaIS6_EEbPS_I5MEdgeSaISA_EEb @522
    _Z16delaunayMeshIn3DRSt6vectorIP7MVertexSaIS1_EERS_IP12MTetrahedronSaIS6_EEb @523
    _Z16eulerAxisFromQtnRK3Qtn @524
    _Z16getColorByEntityP7GEntity @525
    _Z16gmsh_yyget_debugv @526
    _Z16gmsh_yyset_debugi @527
    _Z16inCircumCircleXYP9MTriangleP7MVertex @528
    _Z16isElementVisibleP12PViewOptionsiiPPd @529
    _Z16isElementVisibleP8MElement @530
    _Z16laplaceSmoothingP5GFaceib @531
    _Z16opt_general_axesiid @532
    _Z16opt_general_xmaxiid @533
    _Z16opt_general_xminiid @534
    _Z16opt_general_ymaxiid @535
    _Z16opt_general_yminiid @536
    _Z16opt_general_zmaxiid @537
    _Z16opt_general_zminiid @538
    _Z16opt_mesh_color_0iij @539
    _Z16opt_mesh_color_1iij @540
    _Z16opt_mesh_color_2iij @541
    _Z16opt_mesh_color_3iij @542
    _Z16opt_mesh_color_4iij @543
    _Z16opt_mesh_color_5iij @544
    _Z16opt_mesh_color_6iij @545
    _Z16opt_mesh_color_7iij @546
    _Z16opt_mesh_color_8iij @547
    _Z16opt_mesh_color_9iij @548
    _Z16opt_mesh_explodeiid @549
    _Z16opt_mesh_normalsiid @550
    _Z16opt_mesh_voronoiiid @551
    _Z16opt_post_pluginsiid @552
    _Z16opt_print_heightiid @553
    _Z16opt_solver_name0iiNSt7__cxx1112basic_stringIcSt11char_traitsIcESaIcEEE @554
    _Z16opt_solver_name1iiNSt7__cxx1112basic_stringIcSt11char_traitsIcESaIcEEE @555
    _Z16opt_solver_name2iiNSt7__cxx1112basic_stringIcSt11char_traitsIcESaIcEEE @556
    _Z16opt_solver_name3iiNSt7__cxx1112basic_stringIcSt11char_traitsIcESaIcEEE @557
    _Z16opt_solver_name4iiNSt7__cxx1112basic_stringIcSt11char_traitsIcESaIcEEE @558
    _Z16opt_solver_name5iiNSt7__cxx1112basic_stringIcSt11char_traitsIcESaIcEEE @559
    _Z16opt_solver_name6iiNSt7__cxx1112basic_stringIcSt11char_traitsIcESaIcEEE @560
    _Z16opt_solver_name7iiNSt7__cxx1112basic_stringIcSt11char_traitsIcESaIcEEE @561
    _Z16opt_solver_name8iiNSt7__cxx1112basic_stringIcSt11char_traitsIcESaIcEEE @562
    _Z16opt_solver_name9iiNSt7__cxx1112basic_stringIcSt11char_traitsIcESaIcEEE @563
    _Z16opt_view_explodeiid @564
    _Z16opt_view_normalsiid @565
    _Z16opt_view_offset0iid @566
    _Z16opt_view_offset1iid @567
    _Z16opt_view_offset2iid @568
    _Z16opt_view_visibleiid @569
    _Z16parallelDelaunayiRSt6vectorIP4VertSaIS1_EER12tetContaineribRS_IiSaIiEEP13edgeContainer @570
    _Z16quadsToTrianglesP5GFaced @571
    _Z16smoothVertexPassP5GFaceR8BDS_MeshRib @572
    _Z16writeMSHEntitiesP6_iobufP6GModel @573
    _Z17BuildSwapPattern3P11SwapPattern @574
    _Z17BuildSwapPattern4P11SwapPattern @575
    _Z17BuildSwapPattern5P11SwapPattern @576
    _Z17BuildSwapPattern6P11SwapPattern @577
    _Z17BuildSwapPattern7P11SwapPattern @578
    _Z17CreateSurfaceLoopiP6List_T @579
    _Z17FindPhysicalGroupii @580
    _Z17FreePhysicalGroupPvS_ @581
    _Z17GetColorForStringiPKcPi @582
    _Z17GetCurrentWorkdirB5cxx11v @583
    _Z17GetEnvironmentVarPKc @584
    _Z17GetShortcutsUsageRKNSt7__cxx1112basic_stringIcSt11char_traitsIcESaIcEEE @585
    _Z17List_Pointer_FastP6List_Ti @586
    _Z17MakeMeshConformalP6GModeli @587
    _Z17MeshExtrudedCurveP5GEdge @588
    _Z17RecognizeLineLoopP6List_TPi @589
    _Z17SanitizeTeXStringB5cxx11PKci @590
    _Z17SetEnvironmentVarPKcS0_ @591
    _Z17SetVolumeSurfacesP6VolumeP6List_T @592
    _Z17addElement2BucketP6bucketPvPdS2_S2_P6global @593
    _Z17add_hex_to_regionP7GRegionRK3Hex @594
    _Z17centroidOfPolygonR7SPoint2RSt6vectorIS_SaIS_EERdS5_S5_S5_P14simpleFunctionIdE @595
    _Z17changeCoordinatesP5PViewiiiiiPPdS2_ @596
    _Z17changeReferentialiRK7SPoint3S1_S1_S1_PdS2_S2_S2_S2_S2_ @597
    _Z17checkMeshCompoundP13GFaceCompoundRNSt7__cxx114listIP5GEdgeSaIS4_EEE @598
    _Z17compute4neighborsP5GFaceP7MVertexR7SPoint2bPA1_S3_R8SMetric3P6_iobuf @599
    _Z17eulerAngleFromQtnRK3Qtn @600
    _Z17findElementBucketP6bucketPd @601
    _Z17gmsh_yyget_linenov @602
    _Z17gmsh_yyset_linenoi @603
    _Z17incrementVariableRKNSt7__cxx1112basic_stringIcSt11char_traitsIcESaIcEEEid @604
    _Z17infinity_distance7SPoint3S_6Metric @605
    _Z17insertActiveCellsddddR12cartesianBoxIdE @606
    _Z17lengthInfniteNormPKdS0_d @607
    _Z17opt_general_shineiid @608
    _Z17opt_geometry_clipiid @609
    _Z17opt_mesh_color_10iij @610
    _Z17opt_mesh_color_11iij @611
    _Z17opt_mesh_color_12iij @612
    _Z17opt_mesh_color_13iij @613
    _Z17opt_mesh_color_14iij @614
    _Z17opt_mesh_color_15iij @615
    _Z17opt_mesh_color_16iij @616
    _Z17opt_mesh_color_17iij @617
    _Z17opt_mesh_color_18iij @618
    _Z17opt_mesh_color_19iij @619
    _Z17opt_mesh_cpu_timeiid @620
    _Z17opt_mesh_nb_nodesiid @621
    _Z17opt_mesh_optimizeiid @622
    _Z17opt_mesh_pyramidsiid @623
    _Z17opt_mesh_save_alliid @624
    _Z17opt_mesh_tangentsiid @625
    _Z17opt_mesh_trihedraiid @626
    _Z17opt_post_nb_viewsiid @627
    _Z17opt_print_pos_etaiid @628
    _Z17opt_solver_listeniid @629
    _Z17opt_view_boundaryiid @630
    _Z17opt_view_filenameiiNSt7__cxx1112basic_stringIcSt11char_traitsIcESaIcEEE @631
    _Z17opt_view_samplingiid @632
    _Z17opt_view_stipple0iiNSt7__cxx1112basic_stringIcSt11char_traitsIcESaIcEEE @633
    _Z17opt_view_stipple1iiNSt7__cxx1112basic_stringIcSt11char_traitsIcESaIcEEE @634
    _Z17opt_view_stipple2iiNSt7__cxx1112basic_stringIcSt11char_traitsIcESaIcEEE @635
    _Z17opt_view_stipple3iiNSt7__cxx1112basic_stringIcSt11char_traitsIcESaIcEEE @636
    _Z17opt_view_stipple4iiNSt7__cxx1112basic_stringIcSt11char_traitsIcESaIcEEE @637
    _Z17opt_view_stipple5iiNSt7__cxx1112basic_stringIcSt11char_traitsIcESaIcEEE @638
    _Z17opt_view_stipple6iiNSt7__cxx1112basic_stringIcSt11char_traitsIcESaIcEEE @639
    _Z17opt_view_stipple7iiNSt7__cxx1112basic_stringIcSt11char_traitsIcESaIcEEE @640
    _Z17opt_view_stipple8iiNSt7__cxx1112basic_stringIcSt11char_traitsIcESaIcEEE @641
    _Z17opt_view_stipple9iiNSt7__cxx1112basic_stringIcSt11char_traitsIcESaIcEEE @642
    _Z17opt_view_tangentsiid @643
    _Z17opt_view_timestepiid @644
    _Z17outputScalarFieldNSt7__cxx114listIP8BDS_FaceSaIS2_EEEPKciP5GFace @645
    _Z17planarQuad_xyz2xyPdS_S_S_S_ @646
    _Z17printListOfDoublePcP6List_TS_ @647
    _Z17print_stats_graphRKSt8multimapIySt4pairIP3HexS_IyS2_St4lessIyESaIS0_IKyS2_EEEES4_SaIS0_IS5_S9_EEE @648
    _Z17rtree_callback_3DP7MVertexPv @649
    _Z17searchAllElementsP6bucketPdP6globalPFvPvS1_S1_EPFiS4_S1_EPSt6vectorIS4_SaIS4_EE @650
    _Z17subdivide_pyramidP8MElementP7GRegionRSt3mapI5MFaceSt6vectorIP7MVertexSaIS7_EE9Less_FaceSaISt4pairIKS4_S9_EEERS5_IP11MHexahedronSaISI_EE @651
    _Z17tryCentroidShrinkPPdPiiiRK11ANNorthRectPFvS0_S1_S4_iiRiRdS5_ERS2_ @652
    _Z18ColorTable_IsAlphaP14GmshColorTable @653
    _Z18CompareSurfaceLoopPKvS0_ @654
    _Z18DeletePhysicalLinei @655
    _Z18GetDefaultFileNameB5cxx11i @656
    _Z18GmshGetColorOptionRKNSt7__cxx1112basic_stringIcSt11char_traitsIcESaIcEEES6_i @657
    _Z18GmshSetBoundingBoxdddddd @658
    _Z18GmshSetColorOptionRKNSt7__cxx1112basic_stringIcSt11char_traitsIcESaIcEEES6_ji @659
    _Z18InterpolateSurfaceP7Surfaceddii @660
    _Z18Intersect_Edges_2dddddddddPd @661
    _Z18MeshDelaunayVolumeRSt6vectorIP7GRegionSaIS1_EE @662
    _Z18OptimizeMeshNetgenP6GModel @663
    _Z18PrintParserSymbolsbRSt6vectorINSt7__cxx1112basic_stringIcSt11char_traitsIcESaIcEEESaIS5_EE @664
    _Z18approximationErrorR14simpleFunctionIdEP8MElement @665
    _Z18buildEdgeToElementI11MQuadrangleEvRSt6vectorIPT_SaIS3_EERSt3mapI5MEdgeSt4pairIP8MElementSB_E9Less_EdgeSaIS9_IKS8_SC_EEE @666
    _Z18buildEdgeToElementI8MElementEvRSt6vectorIPT_SaIS3_EERSt3mapI5MEdgeSt4pairIPS0_SA_E9Less_EdgeSaIS9_IKS8_SB_EEE @667
    _Z18buildEdgeToElementI9MTriangleEvRSt6vectorIPT_SaIS3_EERSt3mapI5MEdgeSt4pairIP8MElementSB_E9Less_EdgeSaIS9_IKS8_SC_EEE @668
    _Z18buildEdgeToElementP5GFaceRSt3mapI5MEdgeSt4pairIP8MElementS5_E9Less_EdgeSaIS3_IKS2_S6_EEE @669
    _Z18canWeProcessCavityRSt6vectorIP3TetSaIS1_EEjj @670
    _Z18circumCenterMetricP9MTrianglePKdR13bidimMeshDataPdRd @671
    _Z18circumCenterMetricPdS_S_PKdS_Rd @672
    _Z18computeAdjacenciesP3TetiRSt3setI4connSt4lessIS2_ESaIS2_EE @673
    _Z18computeAdjacenciesP3TetiRSt6vectorI4connSaIS2_EE @674
    _Z18ensureManifoldFaceP5GFace @675
    _Z18getAllPhysicalTagsiP6List_T @676
    _Z18getLocalInfoAtNodeP7MVertexP18BoundaryLayerFieldRd @677
    _Z18gmshGeneratePoints13FuncSpaceDataR10fullMatrixIdE @678
    _Z18gmsh_yy_scan_bytesPKcy @679
    _Z18gmsh_yylex_destroyv @680
    _Z18opt_general_clip0aiid @681
    _Z18opt_general_clip0biid @682
    _Z18opt_general_clip0ciid @683
    _Z18opt_general_clip0diid @684
    _Z18opt_general_clip1aiid @685
    _Z18opt_general_clip1biid @686
    _Z18opt_general_clip1ciid @687
    _Z18opt_general_clip1diid @688
    _Z18opt_general_clip2aiid @689
    _Z18opt_general_clip2biid @690
    _Z18opt_general_clip2ciid @691
    _Z18opt_general_clip2diid @692
    _Z18opt_general_clip3aiid @693
    _Z18opt_general_clip3biid @694
    _Z18opt_general_clip3ciid @695
    _Z18opt_general_clip3diid @696
    _Z18opt_general_clip4aiid @697
    _Z18opt_general_clip4biid @698
    _Z18opt_general_clip4ciid @699
    _Z18opt_general_clip4diid @700
    _Z18opt_general_clip5aiid @701
    _Z18opt_general_clip5biid @702
    _Z18opt_general_clip5ciid @703
    _Z18opt_general_clip5diid @704
    _Z18opt_general_editoriiNSt7__cxx1112basic_stringIcSt11char_traitsIcESaIcEEE @705
    _Z18opt_general_light0iid @706
    _Z18opt_general_light1iid @707
    _Z18opt_general_light2iid @708
    _Z18opt_general_light3iid @709
    _Z18opt_general_light4iid @710
    _Z18opt_general_light5iid @711
    _Z18opt_general_scale0iid @712
    _Z18opt_general_scale1iid @713
    _Z18opt_general_scale2iid @714
    _Z18opt_geometry_lightiid @715
    _Z18opt_geometry_linesiid @716
    _Z18opt_geometry_snap0iid @717
    _Z18opt_geometry_snap1iid @718
    _Z18opt_geometry_snap2iid @719
    _Z18opt_mesh_aniso_maxiid @720
    _Z18opt_mesh_hexahedraiid @721
    _Z18opt_mesh_lc_factoriid @722
    _Z18opt_mesh_lines_numiid @723
    _Z18opt_mesh_nb_prismsiid @724
    _Z18opt_mesh_trianglesiid @725
    _Z18opt_post_anim_stepiid @726
    _Z18opt_print_gif_sortiid @727
    _Z18opt_print_pos_SICNiid @728
    _Z18opt_print_pos_SIGEiid @729
    _Z18opt_solver_pluginsiid @730
    _Z18opt_solver_timeoutiid @731
    _Z18opt_view_axes_xmaxiid @732
    _Z18opt_view_axes_xminiid @733
    _Z18opt_view_axes_ymaxiid @734
    _Z18opt_view_axes_yminiid @735
    _Z18opt_view_axes_zmaxiid @736
    _Z18opt_view_axes_zminiid @737
    _Z18opt_view_line_typeiid @738
    _Z18opt_view_position0iid @739
    _Z18opt_view_position1iid @740
    _Z18opt_view_show_timeiid @741
    _Z18partitionAndRemeshP13GFaceCompound @742
    _Z18recombineIntoQuadsP5GFacebbdb @743
    _Z18recurClassifyEdgesP5MTri3RSt3mapIP9MTriangleP5GFaceSt4lessIS3_ESaISt4pairIKS3_S5_EEERS1_IP5MLineP5GEdge15compareMLinePtrSaIS8_IKSF_SH_EEERSt3setISF_S6_ISF_ESaISF_EERSO_IS0_S6_IS0_ESaIS0_EERS1_IS8_IiiESH_S6_ISX_ESaIS8_IKSX_SH_EEE @744
    _Z18sqDistPointSegmentRK7SPoint3S1_S1_ @745
    _Z19ConvertFileToStringRKNSt7__cxx1112basic_stringIcSt11char_traitsIcESaIcEEE @746
    _Z19CreatePhysicalGroupiiP6List_T @747
    _Z19CreateReversedCurveP5Curve @748
    _Z19DeletePhysicalPointi @749
    _Z19GetGmshBuildOptionsv @750
    _Z19GetGmshExtraVersionv @751
    _Z19GetGmshMajorVersionv @752
    _Z19GetGmshMinorVersionv @753
    _Z19GetGmshPatchVersionv @754
    _Z19GetGmshShortLicensev @755
    _Z19GmshGetNumberOptionRKNSt7__cxx1112basic_stringIcSt11char_traitsIcESaIcEEES6_i @756
    _Z19GmshGetStringOptionRKNSt7__cxx1112basic_stringIcSt11char_traitsIcESaIcEEES6_i @757
    _Z19GmshSetNumberOptionRKNSt7__cxx1112basic_stringIcSt11char_traitsIcESaIcEEES6_di @758
    _Z19GmshSetStringOptionRKNSt7__cxx1112basic_stringIcSt11char_traitsIcESaIcEEES6_S4_i @759
    _Z19IsValidQuadToTriTopP5GFacePiPb @760
    _Z19ListOfDouble2VectorP6List_TRSt6vectorIdSaIdEE @761
    _Z19ListOfDouble2VectorP6List_TRSt6vectorIiSaIiEE @762
    _Z19List_Insert_In_ListP6List_TiS0_ @763
    _Z19MeshExtrudedSurfaceP5GFacePSt3setISt4pairIP7MVertexS4_ESt4lessIS5_ESaIS5_EE @764
    _Z19QtFindVertsCentroidSt6vectorIP7MVertexSaIS1_EE @765
    _Z19RedirectIOToConsolev @766
    _Z19add_remove_physicalRKNSt7__cxx1112basic_stringIcSt11char_traitsIcESaIcEEES6_RKSt6vectorIiSaIiEES6_ibS6_ @767
    _Z19bowyerWatsonFrontalP5GFacePSt3mapIP7MVertexS3_St4lessIS3_ESaISt4pairIKS3_S3_EEEPS1_IS3_7SPoint2S5_SaIS6_IS7_SC_EEE @768
    _Z19buildBackGroundMeshP5GFacePSt3mapIP7MVertexS3_St4lessIS3_ESaISt4pairIKS3_S3_EEEPS1_IS3_7SPoint2S5_SaIS6_IS7_SC_EEE @769
    _Z19buildEdgeToElementsRSt6vectorIP8MElementSaIS1_EERSt3mapI5MEdgeSt4pairIS1_S1_E9Less_EdgeSaIS7_IKS6_S8_EEE @770
    _Z19buildEdgeToTriangleRSt6vectorIP9MTriangleSaIS1_EERSt3mapI5MEdgeSt4pairIP8MElementS9_E9Less_EdgeSaIS7_IKS6_SA_EEE @771
    _Z19computeEquivalencesP5GFaceR13bidimMeshData @772
    _Z19computeSixNeighborsP26frameFieldBackgroundMesh3DP7MVertexRSt6vectorIS2_SaIS2_EE8STensor3d @773
    _Z19computeTwoNeighborsP26frameFieldBackgroundMesh3DP7MVertexRSt6vectorIS2_SaIS2_EE8SVector3d @774
    _Z19connectTets_vector2RNSt7__cxx114listIP5MTet4SaIS2_EEERSt6vectorI8faceXtetSaIS7_EE @775
    _Z19connectTets_vector2RSt6vectorIP5MTet4SaIS1_EERS_I8faceXtetSaIS5_EE @776
    _Z19createEmbeddedEdgesP7GRegionR13edgeContainerRSt6vectorIP4VertSaIS5_EE @777
    _Z19edgeBasedRefinementiiP7GRegion @778
    _Z19ensureManifoldFacesP6GModel @779
    _Z19export_gregion_meshP7GRegionNSt7__cxx1112basic_stringIcSt11char_traitsIcESaIcEEE @780
    _Z19gmsh_yy_scan_bufferPcy @781
    _Z19gmsh_yy_scan_stringPKc @782
    _Z19goldenSectionSearchPK5GEdgeRK7SPoint3dddd @783
    _Z19inCircumCircleAnisoP5GFaceP9MTrianglePKdS4_R13bidimMeshData @784
    _Z19inCircumCircleAnisoP5GFacePdS1_S1_S1_S1_ @785
    _Z19makeSimplyConnectedPSt3mapIiSt6vectorIP8MElementSaIS2_EESt4lessIiESaISt4pairIKiS4_EEE @786
    _Z19meshQuadToTriRegionP7GRegionR12MVertexRTree @787
    _Z19opt_general_displayiiNSt7__cxx1112basic_stringIcSt11char_traitsIcESaIcEEE @788
    _Z19opt_general_gamepadiid @789
    _Z19opt_general_light00iid @790
    _Z19opt_general_light01iid @791
    _Z19opt_general_light02iid @792
    _Z19opt_general_light03iid @793
    _Z19opt_general_light10iid @794
    _Z19opt_general_light11iid @795
    _Z19opt_general_light12iid @796
    _Z19opt_general_light13iid @797
    _Z19opt_general_light20iid @798
    _Z19opt_general_light21iid @799
    _Z19opt_general_light22iid @800
    _Z19opt_general_light23iid @801
    _Z19opt_general_light30iid @802
    _Z19opt_general_light31iid @803
    _Z19opt_general_light32iid @804
    _Z19opt_general_light33iid @805
    _Z19opt_general_light40iid @806
    _Z19opt_general_light41iid @807
    _Z19opt_general_light42iid @808
    _Z19opt_general_light43iid @809
    _Z19opt_general_light50iid @810
    _Z19opt_general_light51iid @811
    _Z19opt_general_light52iid @812
    _Z19opt_general_light53iid @813
    _Z19opt_general_nopopupiid @814
    _Z19opt_geometry_pointsiid @815
    _Z19opt_mesh_ho_nlayersiid @816
    _Z19opt_mesh_ho_poissoniid @817
    _Z19opt_mesh_label_typeiid @818
    _Z19opt_mesh_line_widthiid @819
    _Z19opt_mesh_point_sizeiid @820
    _Z19opt_mesh_point_typeiid @821
    _Z19opt_mesh_points_numiid @822
    _Z19opt_mesh_radius_infiid @823
    _Z19opt_mesh_radius_supiid @824
    _Z19opt_mesh_tetrahedraiid @825
    _Z19opt_post_anim_cycleiid @826
    _Z19opt_post_anim_delayiid @827
    _Z19opt_print_parameteriid @828
    _Z19opt_print_pos_distoiid @829
    _Z19opt_print_pos_gammaiid @830
    _Z19opt_view_attributesiiNSt7__cxx1112basic_stringIcSt11char_traitsIcESaIcEEE @831
    _Z19opt_view_axes_tics0iid @832
    _Z19opt_view_axes_tics1iid @833
    _Z19opt_view_axes_tics2iid @834
    _Z19opt_view_color_axesiij @835
    _Z19opt_view_custom_maxiid @836
    _Z19opt_view_custom_miniid @837
    _Z19opt_view_draw_linesiid @838
    _Z19opt_view_gen_raise0iiNSt7__cxx1112basic_stringIcSt11char_traitsIcESaIcEEE @839
    _Z19opt_view_gen_raise1iiNSt7__cxx1112basic_stringIcSt11char_traitsIcESaIcEEE @840
    _Z19opt_view_gen_raise2iiNSt7__cxx1112basic_stringIcSt11char_traitsIcESaIcEEE @841
    _Z19opt_view_line_widthiid @842
    _Z19opt_view_point_sizeiid @843
    _Z19opt_view_point_typeiid @844
    _Z19opt_view_range_typeiid @845
    _Z19opt_view_scale_typeiid @846
    _Z19opt_view_show_scaleiid @847
    _Z19optimalPointFrontalP5GFaceP5MTri3iR13bidimMeshDataPdS5_ @848
    _Z19projectPointToPlaneRK7SPoint3RS_RK10mean_plane @849
    _Z19removeBadChildCellsP12cartesianBoxIdE @850
    _Z19removeTwoQuadsNodesP5GFace @851
    _Z19replaceMeshCompoundP5GFaceRNSt7__cxx114listIP5GEdgeSaIS4_EEE @852
    _Z20ColorTable_InitParamiP14GmshColorTable @853
    _Z20ColorTable_RecomputeP14GmshColorTable @854
    _Z20ComparePhysicalGroupPKvS0_ @855
    _Z20DeletePhysicalVolumei @856
    _Z20OpenProjectMacFinderPKc @857
    _Z20QtMakeCentroidVertexSt6vectorIP7MVertexSaIS1_EEPS3_P7GEntityR12MVertexRTree @858
    _Z20RecognizeSurfaceLoopP6List_TPi @859
    _Z20ReplaceAllDuplicatesv @860
    _Z20Sanitize_String_TexiRNSt7__cxx1112basic_stringIcSt11char_traitsIcESaIcEEE @861
    _Z20SetHighOrderCompleteP6GModelb @862
    _Z20buildListOfEdgeAngleSt3mapI5MEdgeSt4pairIP8MElementS3_E9Less_EdgeSaIS1_IKS0_S4_EEERSt6vectorI10edge_angleSaISB_EESE_ @863
    _Z20buildVertexToElementI11MHexahedronEvRSt6vectorIPT_SaIS3_EERSt3mapIP7MVertexS1_IP8MElementSaISB_EE18MVertexLessThanNumSaISt4pairIKS9_SD_EEE @864
    _Z20buildVertexToElementI11MQuadrangleEvRSt6vectorIPT_SaIS3_EERSt3mapIP7MVertexS1_IP8MElementSaISB_EE18MVertexLessThanNumSaISt4pairIKS9_SD_EEE @865
    _Z20buildVertexToElementI12MTetrahedronEvRSt6vectorIPT_SaIS3_EERSt3mapIP7MVertexS1_IP8MElementSaISB_EE18MVertexLessThanNumSaISt4pairIKS9_SD_EEE @866
    _Z20buildVertexToElementI6MPrismEvRSt6vectorIPT_SaIS3_EERSt3mapIP7MVertexS1_IP8MElementSaISB_EE18MVertexLessThanNumSaISt4pairIKS9_SD_EEE @867
    _Z20buildVertexToElementI8MElementEvRSt6vectorIPT_SaIS3_EERSt3mapIP7MVertexS1_IPS0_SaISA_EE18MVertexLessThanNumSaISt4pairIKS9_SC_EEE @868
    _Z20buildVertexToElementI8MPyramidEvRSt6vectorIPT_SaIS3_EERSt3mapIP7MVertexS1_IP8MElementSaISB_EE18MVertexLessThanNumSaISt4pairIKS9_SD_EEE @869
    _Z20buildVertexToElementI9MTriangleEvRSt6vectorIPT_SaIS3_EERSt3mapIP7MVertexS1_IP8MElementSaISB_EE18MVertexLessThanNumSaISt4pairIKS9_SD_EEE @870
    _Z20checkElementInBucketP6bucketPv @871
    _Z20circumCenterInfiniteP9MTriangledR13bidimMeshDataPd @872
    _Z20computeDistanceRatioRKdS0_S0_S0_PdS0_S0_ @873
    _Z20computeFourNeighborsP26frameFieldBackgroundMesh2DP7MVertexR7SPoint2bPA1_S3_R8SMetric3 @874
    _Z20computeSetSmoothnessSt6vectorI7cross3DSaIS0_EE @875
    _Z20far_from_boundary_3DP26frameFieldBackgroundMesh3DP7MVertexd @876
    _Z20getAllElementaryTagsiP6List_T @877
    _Z20gmsh_yy_flush_bufferP15yy_buffer_state @878
    _Z20gmsh_yystringsymbolsB5cxx11 @879 DATA
    _Z20infinity_distance_3DPK7MVertexS1_R8STensor3 @880
    _Z20intersection_alauzetRK8SMetric3S1_ @881
    _Z20invalidEdgesPeriodicR8BDS_MeshPSt3mapIP9BDS_PointP7MVertex13PointLessThanSaISt4pairIKS3_S5_EEERSt3setIP8BDS_Edge12EdgeLessThanSaISF_EE @882
    _Z20makeCavityStarShapedRNSt7__cxx114listI8faceXtetSaIS1_EEERNS0_IP5MTet4SaIS6_EEEP7MVertex @883
    _Z20opt_general_filenameiiNSt7__cxx1112basic_stringIcSt11char_traitsIcESaIcEEE @884
    _Z20opt_general_fontsizeiid @885
    _Z20opt_general_terminaliid @886
    _Z20opt_general_tooltipsiid @887
    _Z20opt_geometry_normalsiid @888
    _Z20opt_geometry_offset0iid @889
    _Z20opt_geometry_offset1iid @890
    _Z20opt_geometry_offset2iid @891
    _Z20opt_geometry_volumesiid @892
    _Z20opt_mesh_color_linesiij @893
    _Z20opt_mesh_file_formatiid @894
    _Z20opt_mesh_ho_optimizeiid @895
    _Z20opt_mesh_light_linesiid @896
    _Z20opt_mesh_nb_pyramidsiid @897
    _Z20opt_mesh_nb_trihedraiid @898
    _Z20opt_mesh_quadranglesiid @899
    _Z20opt_mesh_quality_infiid @900
    _Z20opt_mesh_quality_supiid @901
    _Z20opt_mesh_rand_factoriid @902
    _Z20opt_mesh_remesh_algoiid @903
    _Z20opt_mesh_volumes_numiid @904
    _Z20opt_post_file_formatiid @905
    _Z20opt_print_backgroundiid @906
    _Z20opt_print_geo_labelsiid @907
    _Z20opt_print_gif_ditheriid @908
    _Z20opt_solver_auto_meshiid @909
    _Z20opt_solver_extensioniiNSt7__cxx1112basic_stringIcSt11char_traitsIcESaIcEEE @910
    _Z20opt_view_axes_label0iiNSt7__cxx1112basic_stringIcSt11char_traitsIcESaIcEEE @911
    _Z20opt_view_axes_label1iiNSt7__cxx1112basic_stringIcSt11char_traitsIcESaIcEEE @912
    _Z20opt_view_axes_label2iiNSt7__cxx1112basic_stringIcSt11char_traitsIcESaIcEEE @913
    _Z20opt_view_axes_mikadoiid @914
    _Z20opt_view_color_linesiij @915
    _Z20opt_view_draw_pointsiid @916
    _Z20opt_view_draw_prismsiid @917
    _Z20opt_view_light_linesiid @918
    _Z20opt_view_max_visibleiid @919
    _Z20opt_view_min_visibleiid @920
    _Z20opt_view_nb_timestepiid @921
    _Z20opt_view_tensor_typeiid @922
    _Z20opt_view_transform00iid @923
    _Z20opt_view_transform01iid @924
    _Z20opt_view_transform02iid @925
    _Z20opt_view_transform10iid @926
    _Z20opt_view_transform11iid @927
    _Z20opt_view_transform12iid @928
    _Z20opt_view_transform20iid @929
    _Z20opt_view_transform21iid @930
    _Z20opt_view_transform22iid @931
    _Z20opt_view_use_stippleiid @932
    _Z20opt_view_vector_typeiid @933
    _Z20optimalPointFrontalBP5GFaceP5MTri3iR13bidimMeshDataPdS5_ @934
    _Z20print_nodal_info_intNSt7__cxx1112basic_stringIcSt11char_traitsIcESaIcEEERSt3mapIP7MVertexiSt4lessIS7_ESaISt4pairIKS7_iEEE @935
    _Z20projectPointsToPlaneRKSt6vectorI7SPoint3SaIS0_EERS2_RK10mean_plane @936
    _Z20readMSHPeriodicNodesP6_iobufP6GModel @937
    _Z20recurFindCavityAnisoP5GFaceRNSt7__cxx114listI9edgeXfaceSaIS3_EEERNS2_IP5MTri3SaIS8_EEEPdSC_S8_R13bidimMeshData @938
    _Z20set_background_fieldiRKNSt7__cxx1112basic_stringIcSt11char_traitsIcESaIcEEE @939
    _Z20smoothVertexOptimizeP5MTet4iRKN13qmTetrahedron8MeasuresE @940
    _Z20solveInvalidPeriodicP5GFaceR8BDS_MeshPSt3mapIP9BDS_PointP7MVertex13PointLessThanSaISt4pairIKS5_S7_EEE @941
    _Z20vertexRelocationPassiRSt6vectorIP4VertSaIS1_EE @942
    _Z21DeletePhysicalSurfacei @943
    _Z21GetExecutableFileNameB5cxx11v @944
    _Z21GmshGetMessageHandlerv @945
    _Z21GmshSetMessageHandlerP11GmshMessage @946
    _Z21IsInToroidalQuadToTriP5GFace @947
    _Z21IsRuledSurfaceASphereP7SurfaceR7SPoint3Rd @948
    _Z21LC_MVertex_CURV_ANISOP7GEntitydd @949
    _Z21List_Pointer_NoChangeP6List_Ti @950
    _Z21MeshTransfiniteVolumeP7GRegion @951
    _Z21ProjectPointOnSurfaceP7SurfaceR6VertexPd @952
    _Z21ReplaceBndQuadsInFaceP5GFace @953
    _Z21SubdivideExtrudedMeshP6GModel @954
    _Z21_relocateVertexGoldenP7MVertexRKSt6vectorIP8MElementSaIS3_EEdd @955
    _Z21buildVertexToTriangleRSt6vectorIP9MTriangleSaIS1_EERSt3mapIP7MVertexS_IP8MElementSaIS9_EE18MVertexLessThanNumSaISt4pairIKS7_SB_EEE @956
    _Z21centroidOfOrientedBoxRSt6vectorI7SPoint2SaIS0_EERKdRdS6_S6_S6_ @957
    _Z21circumCenterMetricXYZPdS_S_R8SMetric3S_S_Rd @958
    _Z21compare_xmax_trianglePK14TriangleToSortS1_ @959
    _Z21compare_xmin_trianglePK14TriangleToSortS1_ @960
    _Z21compare_ymax_trianglePK14TriangleToSortS1_ @961
    _Z21compare_ymin_trianglePK14TriangleToSortS1_ @962
    _Z21compare_zmax_trianglePK14TriangleToSortS1_ @963
    _Z21compare_zmin_trianglePK14TriangleToSortS1_ @964
    _Z21createTetrahedralMeshP6GModelR10fullMatrixIdERS1_IiEb @965
    _Z21delaunayTriangulationiiRSt6vectorIP4VertSaIS1_EEPS1_R12tetContainer @966
    _Z21delaunayTriangulationiiRSt6vectorIP7MVertexSaIS1_EERS_IP12MTetrahedronSaIS6_EE @967
    _Z21gmshGenerateMonomials13FuncSpaceDataR10fullMatrixIdE @968
    _Z21gmsh_yy_create_bufferP6_iobufi @969
    _Z21gmsh_yy_delete_bufferP15yy_buffer_state @970
    _Z21intersectCurveSurfaceR12curveFunctorR14surfaceFunctorPdd @971
    _Z21intersection_segmentsRK7SPoint2S1_S1_S1_Pd @972
    _Z21intersection_segmentsRK7SPoint3S1_S1_S1_Pd @973
    _Z21opt_general_axes_xmaxiid @974
    _Z21opt_general_axes_xminiid @975
    _Z21opt_general_axes_ymaxiid @976
    _Z21opt_general_axes_yminiid @977
    _Z21opt_general_axes_zmaxiid @978
    _Z21opt_general_axes_zminiid @979
    _Z21opt_general_gui_themeiiNSt7__cxx1112basic_stringIcSt11char_traitsIcESaIcEEE @980
    _Z21opt_general_rotation0iid @981
    _Z21opt_general_rotation1iid @982
    _Z21opt_general_rotation2iid @983
    _Z21opt_general_trackballiid @984
    _Z21opt_general_verbosityiid @985
    _Z21opt_geometry_surfacesiid @986
    _Z21opt_geometry_tangentsiid @987
    _Z21opt_mesh_color_pointsiij @988
    _Z21opt_mesh_color_prismsiij @989
    _Z21opt_mesh_nb_hexahedraiid @990
    _Z21opt_mesh_nb_smoothingiid @991
    _Z21opt_mesh_nb_trianglesiid @992
    _Z21opt_mesh_quality_typeiid @993
    _Z21opt_mesh_refine_stepsiid @994
    _Z21opt_mesh_remesh_paramiid @995
    _Z21opt_mesh_smooth_ratioiid @996
    _Z21opt_mesh_surfaces_numiid @997
    _Z21opt_print_eps_qualityiid @998
    _Z21opt_print_file_formatiid @999
    _Z21opt_print_pgf_two_dimiid @1000
    _Z21opt_print_pos_elementiid @1001
    _Z21opt_solver_auto_checkiid @1002
    _Z21opt_solver_executableiiNSt7__cxx1112basic_stringIcSt11char_traitsIcESaIcEEE @1003
    _Z21opt_solver_extension0iiNSt7__cxx1112basic_stringIcSt11char_traitsIcESaIcEEE @1004
    _Z21opt_solver_extension1iiNSt7__cxx1112basic_stringIcSt11char_traitsIcESaIcEEE @1005
    _Z21opt_solver_extension2iiNSt7__cxx1112basic_stringIcSt11char_traitsIcESaIcEEE @1006
    _Z21opt_solver_extension3iiNSt7__cxx1112basic_stringIcSt11char_traitsIcESaIcEEE @1007
    _Z21opt_solver_extension4iiNSt7__cxx1112basic_stringIcSt11char_traitsIcESaIcEEE @1008
    _Z21opt_solver_extension5iiNSt7__cxx1112basic_stringIcSt11char_traitsIcESaIcEEE @1009
    _Z21opt_solver_extension6iiNSt7__cxx1112basic_stringIcSt11char_traitsIcESaIcEEE @1010
    _Z21opt_solver_extension7iiNSt7__cxx1112basic_stringIcSt11char_traitsIcESaIcEEE @1011
    _Z21opt_solver_extension8iiNSt7__cxx1112basic_stringIcSt11char_traitsIcESaIcEEE @1012
    _Z21opt_solver_extension9iiNSt7__cxx1112basic_stringIcSt11char_traitsIcESaIcEEE @1013
    _Z21opt_view_axes_format0iiNSt7__cxx1112basic_stringIcSt11char_traitsIcESaIcEEE @1014
    _Z21opt_view_axes_format1iiNSt7__cxx1112basic_stringIcSt11char_traitsIcESaIcEEE @1015
    _Z21opt_view_axes_format2iiNSt7__cxx1112basic_stringIcSt11char_traitsIcESaIcEEE @1016
    _Z21opt_view_color_pointsiij @1017
    _Z21opt_view_color_prismsiij @1018
    _Z21opt_view_color_text2diij @1019
    _Z21opt_view_color_text3diij @1020
    _Z21opt_view_draw_scalarsiid @1021
    _Z21opt_view_draw_stringsiid @1022
    _Z21opt_view_draw_tensorsiid @1023
    _Z21opt_view_draw_vectorsiid @1024
    _Z21opt_view_normal_raiseiid @1025
    _Z21opt_view_show_elementiid @1026
    _Z21opt_view_target_erroriid @1027
    _Z21parametricCoordinatesP8MElementP5GFacePdS3_P7MVertex @1028
    _Z21reparamMeshEdgeOnFaceP7MVertexS0_P5GFaceR7SPoint2S4_ @1029
    _Z21subdivideOctantBucketP6bucketP6global @1030
    _Z21transferDataStructureP5GFaceRSt3setIP5MTri314compareTri3PtrSaIS3_EER13bidimMeshData @1031
    _Z21writeMSHPeriodicNodesP6_iobufRSt6vectorIP7GEntitySaIS3_EEb @1032
    _Z22GetFileNameWithoutPathRKNSt7__cxx1112basic_stringIcSt11char_traitsIcESaIcEEE @1033
    _Z22InterpolateCubicSplinePP6VertexdPA4_dddP11gmshSurfacei @1034
    _Z22IsSurfaceATopForRegionP7GRegionP5GFace @1035
    _Z22IsValidQuadToTriRegionP7GRegionPb @1036
    _Z22ListOfDouble2ListOfIntP6List_T @1037
    _Z22MeshTransfiniteSurfaceP5GFace @1038
    _Z22QuadToTriEdgeGeneratorP7GRegionR25CategorizedSourceElementsRSt3setISt4pairIP7MVertexS6_ESt4lessIS7_ESaIS7_EESC_RSt3mapIP8MElementS3_IS4_IjjES8_ISG_ESaISG_EES8_ISF_ESaIS4_IKSF_SJ_EEER12MVertexRTree @1039
    _Z22SetHighOrderInCompleteP6GModelb @1040
    _Z22SetSurfaceGeneratricesP7SurfaceP6List_T @1041
    _Z22_getIndicesReversedHexiRSt6vectorIiSaIiEE @1042
    _Z22_getIndicesReversedPriiRSt6vectorIiSaIiEE @1043
    _Z22_getIndicesReversedPyriRSt6vectorIiSaIiEE @1044
    _Z22_getIndicesReversedTetiRSt6vectorIiSaIiEE @1045
    _Z22change_print_parameteri @1046
    _Z22checkLocalDelaunaynessP3Tet @1047
    _Z22checkLocalDelaunaynessR12tetContaineriPc @1048
    _Z22computeMeanPlaneSimpleRKSt6vectorI7SPoint3SaIS0_EER10mean_plane @1049
    _Z22findCavityTangentPlaneP5GFacePdRNSt7__cxx114listI9edgeXfaceSaIS4_EEERNS3_IP5MTri3SaIS9_EEES9_ @1050
    _Z22findTransfiniteCornersP5GFaceRSt6vectorIP7MVertexSaIS3_EE @1051
    _Z22findTransfiniteCornersP7GRegionRSt6vectorIP7MVertexSaIS3_EE @1052
    _Z22gmshGeneratePointsLinei @1053
    _Z22insertVerticesInRegionP7GRegionib @1054
    _Z22non_recursive_classifyP5MTet4RNSt7__cxx114listIS0_SaIS0_EEERSt3setIP5GFaceSt4lessIS8_ESaIS8_EEP7GRegionP6GModelRKSt3mapI5MFaceS8_9Less_FaceSaISt4pairIKSJ_S8_EEE @1055
    _Z22opt_general_axes_tics0iid @1056
    _Z22opt_general_axes_tics1iid @1057
    _Z22opt_general_axes_tics2iid @1058
    _Z22opt_general_color_axesiij @1059
    _Z22opt_general_color_textiij @1060
    _Z22opt_general_line_widthiid @1061
    _Z22opt_general_menu_size0iid @1062
    _Z22opt_general_menu_size1iid @1063
    _Z22opt_general_point_sizeiid @1064
    _Z22opt_general_small_axesiid @1065
    _Z22opt_geometry_line_typeiid @1066
    _Z22opt_geometry_lines_numiid @1067
    _Z22opt_geometry_toleranceiid @1068
    _Z22opt_geometry_transformiid @1069
    _Z22opt_mesh_color_normalsiij @1070
    _Z22opt_mesh_color_pyramidiij @1071
    _Z22opt_mesh_nb_tetrahedraiid @1072
    _Z22opt_mesh_num_sub_edgesiid @1073
    _Z22opt_mesh_partition_numiid @1074
    _Z22opt_mesh_recombine_alliid @1075
    _Z22opt_mesh_save_topologyiid @1076
    _Z22opt_mesh_volumes_edgesiid @1077
    _Z22opt_mesh_volumes_facesiid @1078
    _Z22opt_print_eps_compressiid @1079
    _Z22opt_print_jpeg_qualityiid @1080
    _Z22opt_solver_executable0iiNSt7__cxx1112basic_stringIcSt11char_traitsIcESaIcEEE @1081
    _Z22opt_solver_executable1iiNSt7__cxx1112basic_stringIcSt11char_traitsIcESaIcEEE @1082
    _Z22opt_solver_executable2iiNSt7__cxx1112basic_stringIcSt11char_traitsIcESaIcEEE @1083
    _Z22opt_solver_executable3iiNSt7__cxx1112basic_stringIcSt11char_traitsIcESaIcEEE @1084
    _Z22opt_solver_executable4iiNSt7__cxx1112basic_stringIcSt11char_traitsIcESaIcEEE @1085
    _Z22opt_solver_executable5iiNSt7__cxx1112basic_stringIcSt11char_traitsIcESaIcEEE @1086
    _Z22opt_solver_executable6iiNSt7__cxx1112basic_stringIcSt11char_traitsIcESaIcEEE @1087
    _Z22opt_solver_executable7iiNSt7__cxx1112basic_stringIcSt11char_traitsIcESaIcEEE @1088
    _Z22opt_solver_executable8iiNSt7__cxx1112basic_stringIcSt11char_traitsIcESaIcEEE @1089
    _Z22opt_solver_executable9iiNSt7__cxx1112basic_stringIcSt11char_traitsIcESaIcEEE @1090
    _Z22opt_solver_socket_nameiiNSt7__cxx1112basic_stringIcSt11char_traitsIcESaIcEEE @1091
    _Z22opt_view_auto_positioniid @1092
    _Z22opt_view_center_glyphsiid @1093
    _Z22opt_view_color_normalsiij @1094
    _Z22opt_view_colormap_betaiid @1095
    _Z22opt_view_colormap_biasiid @1096
    _Z22opt_view_colormap_swapiid @1097
    _Z22opt_view_draw_pyramidsiid @1098
    _Z22opt_view_draw_trihedraiid @1099
    _Z22opt_view_external_viewiid @1100
    _Z22opt_view_use_gen_raiseiid @1101
    _Z22remove_values_from_setIP7MVertexEvRSt3setIT_St4lessIS3_ESaIS3_EERKSt6vectorIS3_S6_E @1102
    _Z23CreateAnEmptyVolumeMeshP7GRegion @1103
    _Z23Extend2dMeshIn3dVolumesv @1104
    _Z23FindDiagonalEdgeIndicesSt6vectorIP7MVertexSaIS1_EEP5GFacebj @1105
    _Z23IsValidQuadToTriLateralP5GFacePiPb @1106
    _Z23MergePostProcessingFileRKNSt7__cxx1112basic_stringIcSt11char_traitsIcESaIcEEEibb @1107
    _Z23MeshQuadToTriTopSurfaceP5GFaceS0_R12MVertexRTree @1108
    _Z23QuadToTriCreateElementsP7GRegionR25CategorizedSourceElementsRSt3setISt4pairIP7MVertexS6_ESt4lessIS7_ESaIS7_EESC_RSt3mapIP8MElementS3_IS4_IjjES8_ISG_ESaISG_EES8_ISF_ESaIS4_IKSF_SJ_EEER12MVertexRTree @1109
    _Z23ReplaceAllDuplicatesNewd @1110
    _Z23ReplaceSubStringInPlaceRKNSt7__cxx1112basic_stringIcSt11char_traitsIcESaIcEEES6_RS4_ @1111
    _Z23adaptiveTrapezoidalRule7SPoint3S_ddRSt6vectorI3IPTSaIS1_EERdRSt5stackIS1_St5dequeIS1_S2_EEP5Fieldd @1112
    _Z23buildAdditionalPoints2DP5GFace @1113
    _Z23buildVertexCavity_recurP5MTet4P7MVertexRSt6vectorIS0_SaIS0_EE @1114
    _Z23checkHighOrderTrianglesPKcP6GModelRSt6vectorIP8MElementSaIS5_EERd @1115
    _Z23computeEdgeLinearLengthP9BDS_PointS0_ @1116
    _Z23disconnectEmbeddedFacesP7GRegionRSt3setI4connSt4lessIS2_ESaIS2_EERSt6vectorIP4VertSaISA_EE @1117
    _Z23discreteFrechetDistanceRKSt6vectorI7SPoint3SaIS0_EES4_ @1118
    _Z23getMeshInfoForHighOrderP6GModelRiRbS2_ @1119
    _Z23gmshGeneratePointsPrismib @1120
    _Z23gmsh_yypop_buffer_statev @1121
    _Z23initializeOctantBucketsPdS_iPP6bucketPP6global @1122
    _Z23intersect_line_trianglePdS_S_S_S_d @1123
    _Z23intersection_conserveM1RK8SMetric3S1_ @1124
    _Z23opt_general_axes_label0iiNSt7__cxx1112basic_stringIcSt11char_traitsIcESaIcEEE @1125
    _Z23opt_general_axes_label1iiNSt7__cxx1112basic_stringIcSt11char_traitsIcESaIcEEE @1126
    _Z23opt_general_axes_label2iiNSt7__cxx1112basic_stringIcSt11char_traitsIcESaIcEEE @1127
    _Z23opt_general_axes_mikadoiid @1128
    _Z23opt_general_camera_modeiid @1129
    _Z23opt_general_clip_factoriid @1130
    _Z23opt_general_expert_modeiid @1131
    _Z23opt_general_extra_size0iid @1132
    _Z23opt_general_extra_size1iid @1133
    _Z23opt_general_fast_redrawiid @1134
    _Z23opt_general_field_size0iid @1135
    _Z23opt_general_field_size1iid @1136
    _Z23opt_general_num_threadsiid @1137
    _Z23opt_general_quaternion0iid @1138
    _Z23opt_general_quaternion1iid @1139
    _Z23opt_general_quaternion2iid @1140
    _Z23opt_general_quaternion3iid @1141
    _Z23opt_general_stereo_modeiid @1142
    _Z23opt_general_vector_typeiid @1143
    _Z23opt_general_zoom_factoriid @1144
    _Z23opt_geometry_label_typeiid @1145
    _Z23opt_geometry_line_widthiid @1146
    _Z23opt_geometry_old_circleiid @1147
    _Z23opt_geometry_old_newregiid @1148
    _Z23opt_geometry_point_sizeiid @1149
    _Z23opt_geometry_point_typeiid @1150
    _Z23opt_geometry_points_numiid @1151
    _Z23opt_mesh_algo_recombineiid @1152
    _Z23opt_mesh_algo_subdivideiid @1153
    _Z23opt_mesh_color_carouseliid @1154
    _Z23opt_mesh_color_tangentsiij @1155
    _Z23opt_mesh_draw_skin_onlyiid @1156
    _Z23opt_mesh_label_samplingiid @1157
    _Z23opt_mesh_lc_from_pointsiid @1158
    _Z23opt_mesh_light_two_sideiid @1159
    _Z23opt_mesh_nb_quadranglesiid @1160
    _Z23opt_mesh_old_refinementiid @1161
    _Z23opt_mesh_scaling_factoriid @1162
    _Z23opt_mesh_smooth_normalsiid @1163
    _Z23opt_mesh_surfaces_edgesiid @1164
    _Z23opt_mesh_surfaces_facesiid @1165
    _Z23opt_print_eps_best_rootiid @1166
    _Z23opt_print_gif_interlaceiid @1167
    _Z23opt_print_pgf_horiz_bariid @1168
    _Z23opt_print_x3d_precisioniid @1169
    _Z23opt_solver_remote_loginiiNSt7__cxx1112basic_stringIcSt11char_traitsIcESaIcEEE @1170
    _Z23opt_view_arrow_size_maxiid @1171
    _Z23opt_view_arrow_size_miniid @1172
    _Z23opt_view_color_pyramidsiij @1173
    _Z23opt_view_color_tangentsiij @1174
    _Z23opt_view_color_trihedraiij @1175
    _Z23opt_view_colormap_alphaiid @1176
    _Z23opt_view_component_map0iid @1177
    _Z23opt_view_component_map1iid @1178
    _Z23opt_view_component_map2iid @1179
    _Z23opt_view_component_map3iid @1180
    _Z23opt_view_component_map4iid @1181
    _Z23opt_view_component_map5iid @1182
    _Z23opt_view_component_map6iid @1183
    _Z23opt_view_component_map7iid @1184
    _Z23opt_view_component_map8iid @1185
    _Z23opt_view_draw_hexahedraiid @1186
    _Z23opt_view_draw_skin_onlyiid @1187
    _Z23opt_view_draw_trianglesiid @1188
    _Z23opt_view_gen_raise_viewiid @1189
    _Z23opt_view_glyph_locationiid @1190
    _Z23opt_view_intervals_typeiid @1191
    _Z23opt_view_light_two_sideiid @1192
    _Z23opt_view_smooth_normalsiid @1193
    _Z23optimalPointFrontalQuadP5GFaceP5MTri3iR13bidimMeshDataPdS5_ @1194
    _Z23packingOfParallelogramsP5GFaceRSt6vectorIP7MVertexSaIS3_EERS1_I8SMetric3SaIS7_EE @1195
    _Z23print_nodal_info_doubleNSt7__cxx1112basic_stringIcSt11char_traitsIcESaIcEEERSt3mapIP7MVertexdSt4lessIS7_ESaISt4pairIKS7_dEEE @1196
    _Z23reparamMeshVertexOnEdgeP7MVertexPK5GEdgeRd @1197
    _Z23reparamMeshVertexOnFaceP7MVertexPK5GFaceR7SPoint2b @1198
    _Z23signedDistancePointLineRK7SPoint3S1_S1_RdRS_ @1199
    _Z24Extend1dMeshIn2dSurfacesv @1200
    _Z24GetNeighborRegionsOfFaceP5GFaceRSt6vectorIP7GRegionSaIS3_EE @1201
    _Z24Mesh2DWithBoundaryLayersP6GModel @1202
    _Z24buildEdgeSearchStructureP6GModelRSt8multimapIP7MVertexSt4pairIP5MLineP5GEdgeESt4lessIS3_ESaIS4_IKS3_S9_EEE @1203
    _Z24buildFaceSearchStructureP6GModelRSt3mapI5MFaceP5GFace9Less_FaceSaISt4pairIKS2_S4_EEE @1204
    _Z24createTopologyFromMesh1DP6GModelRi @1205
    _Z24createTopologyFromMesh2DP6GModelRi @1206
    _Z24createTopologyFromMesh3DP6GModelRi @1207
    _Z24create_all_possible_tetsP7GRegionRKSt6vectorIP7MVertexSaIS3_EE @1208
    _Z24getGaussJacobiQuadratureiiiPPdS0_ @1209
    _Z24gmsh_yy_switch_to_bufferP15yy_buffer_state @1210
    _Z24gmsh_yypush_buffer_stateP15yy_buffer_state @1211
    _Z24opt_general_antialiasingiid @1212
    _Z24opt_general_axes_format0iiNSt7__cxx1112basic_stringIcSt11char_traitsIcESaIcEEE @1213
    _Z24opt_general_axes_format1iiNSt7__cxx1112basic_stringIcSt11char_traitsIcESaIcEEE @1214
    _Z24opt_general_axes_format2iiNSt7__cxx1112basic_stringIcSt11char_traitsIcESaIcEEE @1215
    _Z24opt_general_color_schemeiid @1216
    _Z24opt_general_meshdiscreteiid @1217
    _Z24opt_general_message_sizeiid @1218
    _Z24opt_general_options_saveiid @1219
    _Z24opt_general_orthographiciid @1220
    _Z24opt_general_plugin_size0iid @1221
    _Z24opt_general_plugin_size1iid @1222
    _Z24opt_general_recent_file0iiNSt7__cxx1112basic_stringIcSt11char_traitsIcESaIcEEE @1223
    _Z24opt_general_recent_file1iiNSt7__cxx1112basic_stringIcSt11char_traitsIcESaIcEEE @1224
    _Z24opt_general_recent_file2iiNSt7__cxx1112basic_stringIcSt11char_traitsIcESaIcEEE @1225
    _Z24opt_general_recent_file3iiNSt7__cxx1112basic_stringIcSt11char_traitsIcESaIcEEE @1226
    _Z24opt_general_recent_file4iiNSt7__cxx1112basic_stringIcSt11char_traitsIcESaIcEEE @1227
    _Z24opt_general_recent_file5iiNSt7__cxx1112basic_stringIcSt11char_traitsIcESaIcEEE @1228
    _Z24opt_general_recent_file6iiNSt7__cxx1112basic_stringIcSt11char_traitsIcESaIcEEE @1229
    _Z24opt_general_recent_file7iiNSt7__cxx1112basic_stringIcSt11char_traitsIcESaIcEEE @1230
    _Z24opt_general_recent_file8iiNSt7__cxx1112basic_stringIcSt11char_traitsIcESaIcEEE @1231
    _Z24opt_general_recent_file9iiNSt7__cxx1112basic_stringIcSt11char_traitsIcESaIcEEE @1232
    _Z24opt_general_session_saveiid @1233
    _Z24opt_general_tmp_filenameiiNSt7__cxx1112basic_stringIcSt11char_traitsIcESaIcEEE @1234
    _Z24opt_general_translation0iid @1235
    _Z24opt_general_translation1iid @1236
    _Z24opt_general_translation2iid @1237
    _Z24opt_geometry_color_linesiij @1238
    _Z24opt_geometry_occ_scalingiid @1239
    _Z24opt_geometry_transform00iid @1240
    _Z24opt_geometry_transform01iid @1241
    _Z24opt_geometry_transform02iid @1242
    _Z24opt_geometry_transform10iid @1243
    _Z24opt_geometry_transform11iid @1244
    _Z24opt_geometry_transform12iid @1245
    _Z24opt_geometry_transform20iid @1246
    _Z24opt_geometry_transform21iid @1247
    _Z24opt_geometry_transform22iid @1248
    _Z24opt_geometry_volumes_numiid @1249
    _Z24opt_mesh_color_hexahedraiij @1250
    _Z24opt_mesh_color_trianglesiij @1251
    _Z24opt_mesh_color_trihedroniij @1252
    _Z24opt_mesh_min_circ_pointsiid @1253
    _Z24opt_mesh_min_curv_pointsiid @1254
    _Z24opt_mesh_optimize_netgeniid @1255
    _Z24opt_mesh_recombine3d_alliid @1256
    _Z24opt_mesh_save_parametriciid @1257
    _Z24opt_mesh_zone_definitioniid @1258
    _Z24opt_post_force_node_dataiid @1259
    _Z24opt_print_eps_ps3shadingiid @1260
    _Z24opt_print_jpeg_smoothingiid @1261
    _Z24opt_print_parameter_lastiid @1262
    _Z24opt_print_pos_elementaryiid @1263
    _Z24opt_solver_remote_login0iiNSt7__cxx1112basic_stringIcSt11char_traitsIcESaIcEEE @1264
    _Z24opt_solver_remote_login1iiNSt7__cxx1112basic_stringIcSt11char_traitsIcESaIcEEE @1265
    _Z24opt_solver_remote_login2iiNSt7__cxx1112basic_stringIcSt11char_traitsIcESaIcEEE @1266
    _Z24opt_solver_remote_login3iiNSt7__cxx1112basic_stringIcSt11char_traitsIcESaIcEEE @1267
    _Z24opt_solver_remote_login4iiNSt7__cxx1112basic_stringIcSt11char_traitsIcESaIcEEE @1268
    _Z24opt_solver_remote_login5iiNSt7__cxx1112basic_stringIcSt11char_traitsIcESaIcEEE @1269
    _Z24opt_solver_remote_login6iiNSt7__cxx1112basic_stringIcSt11char_traitsIcESaIcEEE @1270
    _Z24opt_solver_remote_login7iiNSt7__cxx1112basic_stringIcSt11char_traitsIcESaIcEEE @1271
    _Z24opt_solver_remote_login8iiNSt7__cxx1112basic_stringIcSt11char_traitsIcESaIcEEE @1272
    _Z24opt_solver_remote_login9iiNSt7__cxx1112basic_stringIcSt11char_traitsIcESaIcEEE @1273
    _Z24opt_view_color_hexahedraiij @1274
    _Z24opt_view_color_trianglesiij @1275
    _Z24opt_view_colormap_invertiid @1276
    _Z24opt_view_colormap_numberiid @1277
    _Z24opt_view_draw_tetrahedraiid @1278
    _Z24opt_view_saturate_valuesiid @1279
    _Z24optimalPointFrontalQuadBP5GFaceP5MTri3iR13bidimMeshDataPdS5_ @1280
    _Z24splitEquivalentTrianglesP5GFaceR13bidimMeshData @1281
    _Z25AddToTemporaryBoundingBoxddd @1282
    _Z25ExtractDoubleQuotedStringB5cxx11PKci @1283
    _Z25GmshRestoreDefaultOptionsv @1284
    _Z25ListOfListOfDouble2MatrixP6List_T @1285
    _Z25ResetTemporaryBoundingBoxv @1286
    _Z25bowyerWatsonFrontalLayersP5GFacebPSt3mapIP7MVertexS3_St4lessIS3_ESaISt4pairIKS3_S3_EEEPS1_IS3_7SPoint2S5_SaIS6_IS7_SC_EEE @1287
    _Z25buildMetricTangentToCurveR8SVector3dd @1288
    _Z25checkHighOrderTetrahedronPKcP6GModelRSt6vectorIP8MElementSaIS5_EERd @1289
    _Z25computeInnerRadiusForQuadPdS_i @1290
    _Z25connectTets_vector2_templIN9__gnu_cxx17__normal_iteratorIPP5MTet4St6vectorIS3_SaIS3_EEEEEvyT_S9_RS5_I8faceXtetSaISA_EE @1291
    _Z25connectTets_vector2_templISt14_List_iteratorIP5MTet4EEvyT_S4_RSt6vectorI8faceXtetSaIS6_EE @1292
    _Z25ensureSimplyConnectedEdgeP5GEdge @1293
    _Z25filterOverlappingElementsRSt6vectorIP5MLineSaIS1_EERS_IP9MTriangleSaIS6_EERS_IP11MQuadrangleSaISB_EERSt3mapIP8MElementS_ISH_SaISH_EESt4lessISH_ESaISt4pairIKSH_SJ_EEERSF_ISH_SH_SL_SaISM_ISN_SH_EEE @1294
    _Z25findInEdgeSearchStructureP7MVertexS0_RKSt8multimapIS0_St4pairIP5MLineP5GEdgeESt4lessIS0_ESaIS2_IKS0_S7_EEE @1295
    _Z25findInFaceSearchStructureP7MVertexS0_S0_RKSt3mapI5MFaceP5GFace9Less_FaceSaISt4pairIKS2_S4_EEE @1296
    _Z25findInFaceSearchStructureRK5MFaceRKSt3mapIS_P5GFace9Less_FaceSaISt4pairIS0_S4_EEE @1297
    _Z25findRootSourceFaceForFaceP5GFace @1298
    _Z25gmshGenerateMonomialsLineib @1299
    _Z25gmshGeneratePointsPyramidib @1300
    _Z25invert_singular_matrix3x3PA3_dS0_ @1301
    _Z25max_edge_curvature_metricPK5GEdged @1302
    _Z25max_edge_curvature_metricPK7GVertex @1303
    _Z25opt_general_detached_menuiid @1304
    _Z25opt_general_double_bufferiid @1305
    _Z25opt_general_eye_sep_ratioiid @1306
    _Z25opt_general_graphics_fontiiNSt7__cxx1112basic_stringIcSt11char_traitsIcESaIcEEE @1307
    _Z25opt_general_hot_position0iid @1308
    _Z25opt_general_hot_position1iid @1309
    _Z25opt_geometry_color_pointsiij @1310
    _Z25opt_geometry_occ_auto_fixiid @1311
    _Z25opt_geometry_occ_paralleliid @1312
    _Z25opt_geometry_surface_typeiid @1313
    _Z25opt_geometry_surfaces_numiid @1314
    _Z25opt_mesh_bdf_field_formatiid @1315
    _Z25opt_mesh_color_points_supiij @1316
    _Z25opt_mesh_color_tetrahedraiij @1317
    _Z25opt_mesh_ho_threshold_maxiid @1318
    _Z25opt_mesh_ho_threshold_miniid @1319
    _Z25opt_mesh_msh_file_versioniid @1320
    _Z25opt_mesh_switch_elem_tagsiid @1321
    _Z25opt_print_gif_transparentiid @1322
    _Z25opt_print_parameter_firstiid @1323
    _Z25opt_print_parameter_stepsiid @1324
    _Z25opt_print_pgf_export_axisiid @1325
    _Z25opt_print_tex_as_equationiid @1326
    _Z25opt_view_color_tetrahedraiij @1327
    _Z25opt_view_draw_quadranglesiid @1328
    _Z25opt_view_gen_raise_factoriid @1329
    _Z25removeThreeTrianglesNodesP5GFace @1330
    _Z25signedDistancesPointsLineRSt6vectorIdSaIdEERS_I7SPoint3SaIS3_EERKS5_RKS3_SA_ @1331
    _Z26GetFileFormatFromExtensionRKNSt7__cxx1112basic_stringIcSt11char_traitsIcESaIcEEE @1332
    _Z26IntersectCurvesWithSurfaceP6List_TiS0_ @1333
    _Z26IsSurfaceALateralForRegionP7GRegionP5GFace @1334
    _Z26ListOfShapes2VectorOfPairsP6List_TRSt6vectorISt4pairIiiESaIS3_EE @1335
    _Z26VectorOfPairs2ListOfShapesRKSt6vectorISt4pairIiiESaIS1_EEP6List_T @1336
    _Z26_removeThreeTrianglesNodesP5GFace @1337
    _Z26bowyerWatsonParallelogramsP5GFacePSt3mapIP7MVertexS3_St4lessIS3_ESaISt4pairIKS3_S3_EEEPS1_IS3_7SPoint2S5_SaIS6_IS7_SC_EEE @1338
    _Z26compare_hex_ptr_by_qualityP3HexS0_ @1339
    _Z26computeEquivalentTrianglesP5GFacePSt3mapIP7MVertexS3_St4lessIS3_ESaISt4pairIKS3_S3_EEE @1340
    _Z26getMaxLcWhenCollapsingEdgeP5GFaceR8BDS_MeshP8BDS_EdgeP9BDS_Point @1341
    _Z26getRegionFromBoundingFacesP6GModelRSt3setIP5GFaceSt4lessIS3_ESaIS3_EE @1342
    _Z26gmshGenerateMonomialsPrismib @1343
    _Z26gmshGeneratePointsTriangleib @1344
    _Z26inCircumCircleTangentPlaneP9MTriangleR7SPoint3R8SVector3S4_ @1345
    _Z26opt_general_alpha_blendingiid @1346
    _Z26opt_general_clip_position0iid @1347
    _Z26opt_general_clip_position1iid @1348
    _Z26opt_general_error_filenameiiNSt7__cxx1112basic_stringIcSt11char_traitsIcESaIcEEE @1349
    _Z26opt_general_graphics_size0iid @1350
    _Z26opt_general_graphics_size1iid @1351
    _Z26opt_general_menu_position0iid @1352
    _Z26opt_general_menu_position1iid @1353
    _Z26opt_general_shine_exponentiid @1354
    _Z26opt_geometry_color_normalsiij @1355
    _Z26opt_geometry_color_volumesiij @1356
    _Z26opt_geometry_num_sub_edgesiid @1357
    _Z26opt_geometry_occ_sew_facesiid @1358
    _Z26opt_mesh_cgns_import_orderiid @1359
    _Z26opt_mesh_color_quadranglesiij @1360
    _Z26opt_mesh_ignore_part_boundiid @1361
    _Z26opt_mesh_lc_from_curvatureiid @1362
    _Z26opt_mesh_mesh_only_visibleiid @1363
    _Z26opt_mesh_recombine3d_leveliid @1364
    _Z26opt_post_horizontal_scalesiid @1365
    _Z26opt_print_delete_tmp_filesiid @1366
    _Z26opt_print_x3d_transparencyiid @1367
    _Z26opt_solver_auto_merge_fileiid @1368
    _Z26opt_solver_auto_show_viewsiid @1369
    _Z26opt_view_color_quadranglesiij @1370
    _Z26opt_view_colormap_rotationiid @1371
    _Z26opt_view_fake_transparencyiid @1372
    _Z27GmshMergePostProcessingFileRKNSt7__cxx1112basic_stringIcSt11char_traitsIcESaIcEEE @1373
    _Z27GuessFileFormatFromFileNameRKNSt7__cxx1112basic_stringIcSt11char_traitsIcESaIcEEE @1374
    _Z27buildMetricTangentToSurfaceR8SVector3S0_ddd @1375
    _Z27computeAffineTransformationR7SPoint3S0_dS0_RSt6vectorIdSaIdEE @1376
    _Z27getAllBoundaryLayerVerticesP5GFaceRSt3setIP7MVertexSt4lessIS3_ESaIS3_EE @1377
    _Z27getTransfiniteBoundaryDiagsP7GRegionPSt3setISt4pairIP7MVertexS4_ESt4lessIS5_ESaIS5_EE @1378
    _Z27meshGRegionBoundaryRecoveryP7GRegion @1379
    _Z27opt_general_axes_value_xmaxiid @1380
    _Z27opt_general_axes_value_xminiid @1381
    _Z27opt_general_axes_value_ymaxiid @1382
    _Z27opt_general_axes_value_yminiid @1383
    _Z27opt_general_axes_value_zmaxiid @1384
    _Z27opt_general_axes_value_zminiid @1385
    _Z27opt_general_camera_apertureiid @1386
    _Z27opt_general_extra_position0iid @1387
    _Z27opt_general_extra_position1iid @1388
    _Z27opt_general_field_position0iid @1389
    _Z27opt_general_field_position1iid @1390
    _Z27opt_general_initial_contextiid @1391
    _Z27opt_general_manip_position0iid @1392
    _Z27opt_general_manip_position1iid @1393
    _Z27opt_general_mouse_selectioniid @1394
    _Z27opt_general_small_axes_sizeiid @1395
    _Z27opt_general_system_menu_bariid @1396
    _Z27opt_geometry_auto_coherenceiid @1397
    _Z27opt_geometry_color_surfacesiij @1398
    _Z27opt_geometry_color_tangentsiij @1399
    _Z27opt_geometry_hide_compoundsiid @1400
    _Z27opt_geometry_light_two_sideiid @1401
    _Z27opt_geometry_line_sel_widthiid @1402
    _Z27opt_geometry_point_sel_sizeiid @1403
    _Z27opt_geometry_scaling_factoriid @1404
    _Z27opt_mesh_ignore_periodicityiid @1405
    _Z27opt_mesh_max_num_threads_1diid @1406
    _Z27opt_mesh_max_num_threads_2diid @1407
    _Z27opt_mesh_max_num_threads_3diid @1408
    _Z27opt_mesh_optimize_thresholdiid @1409
    _Z27opt_mesh_smooth_cross_fieldiid @1410
    _Z27opt_post_force_element_dataiid @1411
    _Z27opt_print_composite_windowsiid @1412
    _Z27opt_print_parameter_commandiiNSt7__cxx1112basic_stringIcSt11char_traitsIcESaIcEEE @1413
    _Z27opt_print_x3d_compatibilityiid @1414
    _Z27opt_view_axes_auto_positioniid @1415
    _Z27opt_view_color_background2diij @1416
    _Z27opt_view_colormap_curvatureiid @1417
    _Z27recurFindCavityTangentPlaneRNSt7__cxx114listI9edgeXfaceSaIS1_EEERNS0_IP5MTri3SaIS6_EEES6_R7SPoint3R8SVector3SD_ @1418
    _Z27signedDistancePointTriangleRK7SPoint3S1_S1_S1_RdRS_ @1419
    _Z27treat_Struct_FullName_FloatPcS_iidi @1420
    _Z28circumCenterMetricInTriangleP9MTrianglePKdR13bidimMeshData @1421
    _Z28computeMeshSizeFieldAccuracyP5GFaceR8BDS_MeshRdS3_S3_RiS4_ @1422
    _Z28getBoundingInfoAndSplitQuadsP7GRegionRSt3mapI5MFaceP7GEntity9Less_FaceSaISt4pairIKS2_S4_EEERSt3setIP7MVertexSt4lessISE_ESaISE_EER17splitQuadRecovery @1423
    _Z28gmshGenerateMonomialsPyramidib @1424
    _Z28gmshGeneratePointsHexahedronib @1425
    _Z28gmshGeneratePointsQuadrangleib @1426
    _Z28opt_general_axes_force_valueiid @1427
    _Z28opt_general_clip_only_volumeiid @1428
    _Z28opt_general_color_backgroundiij @1429
    _Z28opt_general_color_foregroundiij @1430
    _Z28opt_general_color_small_axesiij @1431
    _Z28opt_general_default_filenameiiNSt7__cxx1112basic_stringIcSt11char_traitsIcESaIcEEE @1432
    _Z28opt_general_gui_color_schemeiid @1433
    _Z28opt_general_message_fontsizeiid @1434
    _Z28opt_general_option_position0iid @1435
    _Z28opt_general_option_position1iid @1436
    _Z28opt_general_options_filenameiiNSt7__cxx1112basic_stringIcSt11char_traitsIcESaIcEEE @1437
    _Z28opt_general_plugin_position0iid @1438
    _Z28opt_general_plugin_position1iid @1439
    _Z28opt_general_rotation_center0iid @1440
    _Z28opt_general_rotation_center1iid @1441
    _Z28opt_general_rotation_center2iid @1442
    _Z28opt_general_session_filenameiiNSt7__cxx1112basic_stringIcSt11char_traitsIcESaIcEEE @1443
    _Z28opt_geometry_color_selectioniij @1444
    _Z28opt_geometry_exact_extrusioniid @1445
    _Z28opt_mesh_second_order_lineariid @1446
    _Z28opt_post_combine_remove_origiid @1447
    _Z28opt_post_double_clicked_viewiid @1448
    _Z28opt_print_geo_only_physicalsiid @1449
    _Z28opt_view_abscissa_range_typeiid @1450
    _Z28opt_view_custom_abscissa_maxiid @1451
    _Z28opt_view_custom_abscissa_miniid @1452
    _Z28opt_view_displacement_factoriid @1453
    _Z28opt_view_max_recursion_leveliid @1454
    _Z28treat_Struct_FullName_StringPcS_iiS_i @1455
    _Z29TEST_IF_BOUNDARY_IS_RECOVEREDP7GRegion @1456
    _Z29gmshGenerateMonomialsTriangleib @1457
    _Z29gmshGeneratePointsTetrahedronib @1458
    _Z29opt_general_arrow_head_radiusiid @1459
    _Z29opt_general_arrow_stem_lengthiid @1460
    _Z29opt_general_arrow_stem_radiusiid @1461
    _Z29opt_general_confirm_overwriteiid @1462
    _Z29opt_general_context_position0iid @1463
    _Z29opt_general_context_position1iid @1464
    _Z29opt_general_draw_bounding_boxiid @1465
    _Z29opt_general_focallength_ratioiid @1466
    _Z29opt_general_graphics_fontsizeiid @1467
    _Z29opt_general_non_modal_windowsiid @1468
    _Z29opt_geometry_color_highlight0iij @1469
    _Z29opt_geometry_color_highlight1iij @1470
    _Z29opt_geometry_color_highlight2iij @1471
    _Z29opt_geometry_color_projectioniij @1472
    _Z29opt_mesh_angle_smooth_normalsiid @1473
    _Z29opt_mesh_flexible_transfiniteiid @1474
    _Z29opt_mesh_msh_file_partitionediid @1475
    _Z29opt_mesh_partition_chaco_seediid @1476
    _Z29opt_mesh_partition_chaco_vmaxiid @1477
    _Z29opt_mesh_partition_hex_weightiid @1478
    _Z29opt_mesh_partition_pri_weightiid @1479
    _Z29opt_mesh_partition_pyr_weightiid @1480
    _Z29opt_mesh_partition_qua_weightiid @1481
    _Z29opt_mesh_partition_tet_weightiid @1482
    _Z29opt_mesh_partition_tri_weightiid @1483
    _Z29opt_mesh_save_groups_of_nodesiid @1484
    _Z29opt_solver_auto_load_databaseiid @1485
    _Z29opt_solver_auto_save_databaseiid @1486
    _Z29opt_solver_octave_interpreteriiNSt7__cxx1112basic_stringIcSt11char_traitsIcESaIcEEE @1487
    _Z29opt_solver_python_interpreteriiNSt7__cxx1112basic_stringIcSt11char_traitsIcESaIcEEE @1488
    _Z29opt_view_angle_smooth_normalsiid @1489
    _Z29opt_view_colormap_alpha_poweriid @1490
    _Z29opt_view_force_num_componentsiid @1491
    _Z29removeParentCellsWithChildrenP12cartesianBoxIdE @1492
    _Z29signedDistancesPointsTriangleRSt6vectorIdSaIdEERS_I7SPoint3SaIS3_EERKS5_RKS3_SA_SA_ @1493
    _Z29transformPointsIntoOrthoBasisRKSt6vectorI7SPoint3SaIS0_EERS2_RKS0_RK10mean_plane @1494
    _Z2imRK3Qtn @1495
    _Z2reRK3Qtn @1496
    _Z30getElementaryTagsInBoundingBoxiddddddP6List_T @1497
    _Z30getIndexForLowestVertexPointerSt6vectorIP7MVertexSaIS1_EE @1498
    _Z30get_local_sizes_and_directionsPK7MVertexRK7SPoint2iP5GFaceRA2_dS8_RdS9_S9_R8SVector3SB_SB_P6_iobuf @1499
    _Z30meshNormalsPointOutOfTheRegionP7GRegion @1500
    _Z30opt_general_axes_auto_positioniid @1501
    _Z30opt_general_graphics_position0iid @1502
    _Z30opt_general_graphics_position1iid @1503
    _Z30opt_general_mouse_hover_meshesiid @1504
    _Z30opt_general_rotation_center_cgiid @1505
    _Z30opt_general_watch_file_patterniiNSt7__cxx1112basic_stringIcSt11char_traitsIcESaIcEEE @1506
    _Z30opt_geometry_highlight_orphansiid @1507
    _Z30opt_geometry_old_ruled_surfaceiid @1508
    _Z30opt_geometry_tolerance_booleaniid @1509
    _Z30opt_mesh_allow_swap_edge_angleiid @1510
    _Z30opt_mesh_do_recombination_testiid @1511
    _Z30opt_mesh_ho_opt_prim_surf_meshiid @1512
    _Z30opt_mesh_partition_partitioneriid @1513
    _Z30opt_mesh_partition_trih_weightiid @1514
    _Z30opt_mesh_save_element_tag_typeiid @1515
    _Z30opt_mesh_tolerance_edge_lengthiid @1516
    _Z30opt_solver_auto_show_last_stepiid @1517
    _Z30opt_view_nb_non_empty_timestepiid @1518
    _Z31Maximize_Quality_Golden_SectionP7MVertexP5GFaceR7SPoint2S4_RKSt6vectorIP8MElementSaIS7_EEdRd @1519
    _Z31Maximize_Quality_Golden_SectionP7MVertexP5GFaceR7SPoint3S4_RKSt6vectorIP8MElementSaIS7_EEdRd @1520
    _Z31Maximize_Quality_Golden_SectionP7MVertexdddRKSt6vectorIP8MElementSaIS3_EEdRd @1521
    _Z31QuadToTriInsertFaceEdgeVerticesP5GFaceR12MVertexRTree @1522
    _Z31computeNeighboringTetsOfACavityRKSt6vectorIP5MTet4SaIS1_EERS3_ @1523
    _Z31createDiscreteRegionFromRawDataP6GModelR10fullMatrixIdERS1_IiEb @1524
    _Z31gmshGenerateMonomialsHexahedronib @1525
    _Z31gmshGenerateMonomialsQuadrangleib @1526
    _Z31intersection_conserve_mostanisoRK8SMetric3S1_ @1527
    _Z31opt_general_background_gradientiid @1528
    _Z31opt_general_background_image_3diid @1529
    _Z31opt_general_clip_whole_elementsiid @1530
    _Z31opt_general_color_ambient_lightiij @1531
    _Z31opt_general_color_diffuse_lightiij @1532
    _Z31opt_general_executable_filenameiiNSt7__cxx1112basic_stringIcSt11char_traitsIcESaIcEEE @1533
    _Z31opt_general_graphics_font_titleiiNSt7__cxx1112basic_stringIcSt11char_traitsIcESaIcEEE @1534
    _Z31opt_general_progress_meter_stepiid @1535
    _Z31opt_geometry_oriented_physicalsiid @1536
    _Z31opt_mesh_partition_chaco_eigtoliid @1537
    _Z31opt_mesh_recombine3d_conformityiid @1538
    _Z31opt_print_eps_line_width_factoriid @1539
    _Z31opt_print_eps_occlusion_cullingiid @1540
    _Z31opt_print_eps_point_size_factoriid @1541
    _Z31opt_view_double_clicked_commandiiNSt7__cxx1112basic_stringIcSt11char_traitsIcESaIcEEE @1542
    _Z31smoothing_objective_function_3DdddP7MVertexRSt6vectorIP5MTet4SaIS3_EE @1543
    _Z32gmshGenerateMonomialsTetrahedronib @1544
    _Z32gmshGeneratePointsPyramidGeneralbiib @1545
    _Z32meshTransfElemWithInternalVertexP7GRegionSt6vectorIP7MVertexSaIS3_EEPSt3setISt4pairIS3_S3_ESt4lessIS8_ESaIS8_EE @1546
    _Z32opt_general_color_specular_lightiij @1547
    _Z32opt_general_graphics_font_engineiiNSt7__cxx1112basic_stringIcSt11char_traitsIcESaIcEEE @1548
    _Z32opt_general_polygon_offset_unitsiid @1549
    _Z32opt_general_quadric_subdivisionsiid @1550
    _Z32opt_general_small_axes_position0iid @1551
    _Z32opt_general_small_axes_position1iid @1552
    _Z32opt_general_statistics_position0iid @1553
    _Z32opt_general_statistics_position1iid @1554
    _Z32opt_general_visibility_position0iid @1555
    _Z32opt_general_visibility_position1iid @1556
    _Z32opt_geometry_copy_meshing_methodiid @1557
    _Z32opt_geometry_match_geom_and_meshiid @1558
    _Z32opt_geometry_occ_fix_degeneratediid @1559
    _Z32opt_geometry_occ_fix_small_edgesiid @1560
    _Z32opt_geometry_occ_fix_small_facesiid @1561
    _Z32opt_mesh_lc_extend_from_boundaryiid @1562
    _Z32opt_mesh_preserve_numbering_msh2iid @1563
    _Z32opt_mesh_second_order_incompleteiid @1564
    _Z32signedDistancesPointsEllipseLineRSt6vectorIdSaIdEES2_RS_IiSaIiEERS_I7SPoint3SaIS6_EERKS8_RKS6_SD_ddddi @1565
    _Z33QuadToTriInsertSourceEdgeVerticesP7GRegionR12MVertexRTree @1566
    _Z33buildMeshGenerationDataStructuresP5GFaceRSt3setIP5MTri314compareTri3PtrSaIS3_EER13bidimMeshData @1567
    _Z33export_the_clique_graphviz_formatIP3HexEvR27cliques_compatibility_graphIT_EiNSt7__cxx1112basic_stringIcSt11char_traitsIcESaIcEEE @1568
    _Z33metric_based_on_surface_curvaturePK5GFaceddbdd @1569
    _Z33opt_general_background_image_pageiid @1570
    _Z33opt_general_display_border_factoriid @1571
    _Z33opt_general_polygon_offset_alwaysiid @1572
    _Z33opt_general_polygon_offset_factoriid @1573
    _Z33opt_mesh_lc_integration_precisioniid @1574
    _Z33opt_mesh_partition_chaco_nsectioniid @1575
    _Z33opt_mesh_recombination_test_startiid @1576
    _Z33opt_view_adapt_visualization_gridiid @1577
    _Z33packingOfParallelogramsSmoothnessP5GFaceRSt6vectorIP7MVertexSaIS3_EERS1_I8SMetric3SaIS7_EE @1578
    _Z33signedDistancesPointsEllipsePointRSt6vectorIdSaIdEES2_RS_IiSaIiEERS_I7SPoint3SaIS6_EERKS8_RKS6_SD_d @1579
    _Z34getElementaryTagsForPhysicalGroupsiP6List_TS0_ @1580
    _Z34intersection_conserve_mostaniso_2dRK8SMetric3S1_ @1581
    _Z34opt_general_background_image_size0iid @1582
    _Z34opt_general_background_image_size1iid @1583
    _Z34opt_general_file_chooser_position0iid @1584
    _Z34opt_general_file_chooser_position1iid @1585
    _Z34opt_geometry_extrude_spline_pointsiid @1586
    _Z34opt_mesh_partition_chaco_ndims_totiid @1587
    _Z34opt_mesh_partition_metis_algorithmiid @1588
    _Z34opt_mesh_second_order_experimentaliid @1589
    _Z34opt_print_x3d_remove_inner_bordersiid @1590
    _Z34packingOfParallelogramsConstrainedP5GFaceSt3setIP7MVertexSt4lessIS3_ESaIS3_EERSt6vectorIS3_S6_ERS8_I8SMetric3SaISB_EE @1591
    _Z35gmshGenerateMonomialsPyramidGeneralbiib @1592
    _Z35isCavityCompatibleWithEmbeddedEdgesRNSt7__cxx114listIP5MTet4SaIS2_EEERNS0_I8faceXtetSaIS6_EEER14edgeContainerB @1593
    _Z35isCavityCompatibleWithEmbeddedEdgesRNSt7__cxx114listIP5MTet4SaIS2_EEERNS0_I8faceXtetSaIS6_EEERSt3setI5MEdge9Less_EdgeSaISB_EE @1594
    _Z35isCavityCompatibleWithEmbeddedEdgesRSt6vectorIP3TetSaIS1_EERS_I4connSaIS5_EER13edgeContainer @1595
    _Z35opt_general_graphics_fontsize_titleiid @1596
    _Z35opt_general_show_options_on_startupiid @1597
    _Z35opt_geometry_extrude_return_lateraliid @1598
    _Z35opt_geometry_reparam_on_face_robustiid @1599
    _Z35opt_mesh_partition_chaco_mesh_dims1iid @1600
    _Z35opt_mesh_partition_chaco_mesh_dims2iid @1601
    _Z35opt_mesh_partition_chaco_mesh_dims3iid @1602
    _Z35opt_mesh_partition_chaco_refine_mapiid @1603
    _Z35opt_mesh_tolerance_initial_delaunayiid @1604
    _Z36gmshGenerateMonomialsHexaSerendipityi @1605
    _Z36gmshGenerateMonomialsQuadSerendipityi @1606
    _Z36opt_general_high_resolution_graphicsiid @1607
    _Z36opt_general_show_messages_on_startupiid @1608
    _Z36opt_mesh_newton_convergence_test_xyziid @1609
    _Z36opt_mesh_partition_chaco_eigensolveriid @1610
    _Z36opt_solver_auto_archive_output_filesiid @1611
    _Z36opt_solver_show_invisible_parametersiid @1612
    _Z37bowyerWatsonParallelogramsConstrainedP5GFaceSt3setIP7MVertexSt4lessIS3_ESaIS3_EEPSt3mapIS3_S3_S5_SaISt4pairIKS3_S3_EEEPS8_IS3_7SPoint2S5_SaIS9_ISA_SF_EEE @1613
    _Z37deriv_smoothing_objective_function_3DPdS_RdPv @1614
    _Z37gmshGenerateMonomialsPrismSerendipityi @1615
    _Z37opt_general_background_image_filenameiiNSt7__cxx1112basic_stringIcSt11char_traitsIcESaIcEEE @1616
    _Z37opt_general_color_background_gradientiij @1617
    _Z37opt_mesh_partition_chaco_architectureiid @1618
    _Z37opt_mesh_partition_chaco_local_methodiid @1619
    _Z37opt_post_double_clicked_graph_point_xiid @1620
    _Z37opt_post_double_clicked_graph_point_yiid @1621
    _Z38opt_general_background_image_position0iid @1622
    _Z38opt_general_background_image_position1iid @1623
    _Z38opt_general_trackball_hyperbolic_sheetiid @1624
    _Z38opt_geometry_double_clicked_entity_tagiid @1625
    _Z38opt_mesh_partition_chaco_global_methodiid @1626
    _Z38opt_mesh_partition_metis_edge_matchingiid @1627
    _Z38opt_mesh_recombination_no_greedy_stratiid @1628
    _Z39gmshGenerateMonomialsPyramidSerendipityi @1629
    _Z39meshQuadToTriRegionAfterGlobalSubdivideP7GRegionPSt3setISt4pairIP7MVertexS4_ESt4lessIS5_ESaIS5_EER12MVertexRTree @1630
    _Z39treat_Struct_FullName_dot_tSTRING_FloatPcS_S_idi @1631
    _Z3Cpuv @1632
    _Z3mindd @1633
    _Z3squd @1634
    _Z40opt_geometry_double_clicked_line_commandiiNSt7__cxx1112basic_stringIcSt11char_traitsIcESaIcEEE @1635
    _Z40treat_Struct_FullName_dot_tSTRING_StringPcS_S_iS_i @1636
    _Z41opt_geometry_double_clicked_point_commandiiNSt7__cxx1112basic_stringIcSt11char_traitsIcESaIcEEE @1637
    _Z41opt_mesh_partition_chaco_refine_partitioniid @1638
    _Z41opt_mesh_partition_metis_refine_algorithmiid @1639
    _Z42opt_geometry_double_clicked_volume_commandiiNSt7__cxx1112basic_stringIcSt11char_traitsIcESaIcEEE @1640
    _Z42opt_mesh_partition_chaco_internal_verticesiid @1641
    _Z43opt_geometry_double_clicked_surface_commandiiNSt7__cxx1112basic_stringIcSt11char_traitsIcESaIcEEE @1642
    _Z43opt_geometry_occ_boolean_preserve_numberingiid @1643
    _Z43opt_post_double_clicked_graph_point_commandiiNSt7__cxx1112basic_stringIcSt11char_traitsIcESaIcEEE @1644
    _Z45opt_general_high_resolution_point_size_factoriid @1645
    _Z45opt_mesh_partition_chaco_terminal_propogationiid @1646
    _Z45treat_Struct_FullName_dot_tSTRING_ListOfFloatPcS_S_ @1647
    _Z46opt_general_clip_only_draw_intersecting_volumeiid @1648
    _Z46treat_Struct_FullName_dot_tSTRING_Float_getDimPcS_S_ @1649
    _Z46treat_Struct_FullName_dot_tSTRING_ListOfStringPcS_S_ @1650
    _Z4FreePv @1651
    _Z4_h2dc @1652
    _Z4conjRK3Qtn @1653
    _Z4skipPKcS0_ @1654
    _Z4walkP3TetP4VertiRdi @1655
    _Z5FopenPKcS0_ @1656
    _Z5norm2PA3_d @1657
    _Z5norm3Pd @1658
    _Z5normePd @1659
    _Z5printPKcRSt6vectorIP4VertSaIS3_EE @1660
    _Z5printRSt6vectorIP4VertSaIS1_EERS_IP3TetSaIS6_EE @1661
    _Z5shootRK7SPoint2S1_RKdRS_ @1662
    _Z5yymsgiPKcz @1663
    _Z6Callocyy @1664
    _Z6Mallocy @1665
    _Z6NEWREGv @1666
    _Z6circUVP9MTriangleR13bidimMeshDataPdP5GFace @1667
    _Z6det2x2PA2_d @1668
    _Z6det2x3PA3_d @1669
    _Z6det3x3PA3_d @1670
    _Z6dilateRKNSt7__cxx1112basic_stringIcSt11char_traitsIcESaIcEEERKSt6vectorISt4pairIiiESaIS9_EES6_S6_S6_S6_S6_S6_b @1671
    _Z6inv2x2PA2_dS0_ @1672
    _Z6inv3x3PA3_dS0_ @1673
    _Z6matmatPA3_dS0_S0_ @1674
    _Z6matvecPA3_dPdS1_ @1675
    _Z6myacosd @1676
    _Z6myasind @1677
    _Z6printfPKcz @1678
    _Z6proscaPdS_S_ @1679
    _Z6rotateRKNSt7__cxx1112basic_stringIcSt11char_traitsIcESaIcEEERKSt6vectorISt4pairIiiESaIS9_EES6_S6_S6_S6_S6_S6_S6_b @1680
    _Z6sys2x2PA2_dPdS1_ @1681
    _Z6sys3x3PA3_dPdS1_S1_ @1682
    _Z6trace2PA3_d @1683
    _Z7CutLinePdS_S_S_ddS_S_S_S_ @1684
    _Z7IsoLinePdS_S_S_dS_S_S_ @1685
    _Z7NEWLINEv @1686
    _Z7ReallocPvy @1687
    _Z7__printPKcRSt6vectorI4connSaIS2_EEP4Vert @1688
    _Z7__printPKciR12tetContainerP4Vert @1689
    _Z7add_boxRKNSt7__cxx1112basic_stringIcSt11char_traitsIcESaIcEEES6_S6_S6_S6_S6_S6_ @1690
    _Z7add_volP6List_TRKNSt7__cxx1112basic_stringIcSt11char_traitsIcESaIcEEE @1691
    _Z7annDistiPdS_ @1692
    _Z7avl_genP20avl_generator_structPPvS2_ @1693
    _Z7compareP7MVertexS0_ @1694
    _Z7convert7cross3D @1695
    _Z7diffendP7MVertexS0_S0_S0_ @1696
    _Z7eigsortPd @1697
    _Z7extrudeRKNSt7__cxx1112basic_stringIcSt11char_traitsIcESaIcEEERKSt6vectorISt4pairIiiESaIS9_EES6_S6_S6_bS6_b @1698
    _Z7fprintfP6_iobufPKcz @1699
    _Z7myatan2dd @1700
    _Z7nextOneP11GEdgeSignedRNSt7__cxx114listIP5GEdgeSaIS4_EEE @1701
    _Z7pow_intRKdRKi @1702
    _Z7protudeRKNSt7__cxx1112basic_stringIcSt11char_traitsIcESaIcEEERKSt6vectorISt4pairIiiESaIS9_EES6_S6_S6_S6_S6_S6_S6_bS6_b @1703
    _Z7setRandPd @1704
    _Z7sprintfPcPKcz @1705
    _Z7strsavePc @1706
    _Z8BDS2GMSHP8BDS_MeshP5GFaceRSt3mapIP9BDS_PointP7MVertex13PointLessThanSaISt4pairIKS5_S7_EEE @1707
    _Z8EndCurveP5Curve @1708
    _Z8GetUsageB5cxx11v @1709
    _Z8GmshFLTKiPPc @1710
    _Z8List_AddP6List_TPv @1711
    _Z8List_AddP6List_Ti @1712
    _Z8List_NbrP6List_T @1713
    _Z8List_PopP6List_T @1714
    _Z8List_PutP6List_TiPv @1715
    _Z8NEWFIELDv @1716
    _Z8NEWPOINTv @1717
    _Z8NewGetLcP8BDS_EdgeP5GFace @1718
    _Z8NewGetLcP9BDS_Point @1719
    _Z8NewGetLcP9BDS_PointS0_P5GFace @1720
    _Z8ProjetteP6VertexPA3_d @1721
    _Z8StatFileRKNSt7__cxx1112basic_stringIcSt11char_traitsIcESaIcEEE @1722
    _Z8ToStringIiENSt7__cxx1112basic_stringIcSt11char_traitsIcESaIcEEERKT_ @1723
    _Z8TotalRamv @1724
    _Z8Tree_AddP6Tree_TPv @1725
    _Z8Tree_NbrP6Tree_T @1726
    _Z8addFacesI11MHexahedronEvRSt6vectorIPT_SaIS3_EERSt3setI5MFace9Less_FaceSaIS8_EE @1727
    _Z8addFacesI11MQuadrangleEvRSt6vectorIPT_SaIS3_EERSt3setI5MFace9Less_FaceSaIS8_EE @1728
    _Z8addFacesI12MTetrahedronEvRSt6vectorIPT_SaIS3_EERSt3setI5MFace9Less_FaceSaIS8_EE @1729
    _Z8addFacesI6MPrismEvRSt6vectorIPT_SaIS3_EERSt3setI5MFace9Less_FaceSaIS8_EE @1730
    _Z8addFacesI8MPyramidEvRSt6vectorIPT_SaIS3_EERSt3setI5MFace9Less_FaceSaIS8_EE @1731
    _Z8addFacesI9MTriangleEvRSt6vectorIPT_SaIS3_EERSt3setI5MFace9Less_FaceSaIS8_EE @1732
    _Z8add_coneRKNSt7__cxx1112basic_stringIcSt11char_traitsIcESaIcEEES6_S6_S6_S6_S6_S6_S6_S6_S6_ @1733
    _Z8add_diskRKNSt7__cxx1112basic_stringIcSt11char_traitsIcESaIcEEES6_S6_S6_S6_S6_ @1734
    _Z8add_pipeRKNSt7__cxx1112basic_stringIcSt11char_traitsIcESaIcEEERKSt6vectorISt4pairIiiESaIS9_EERKS7_IiSaIiEE @1735
    _Z8add_surfRKNSt7__cxx1112basic_stringIcSt11char_traitsIcESaIcEEEP6List_TS6_ @1736
    _Z8annClosev @1737
    _Z8annErrorPc6ANNerr @1738
    _Z8catenarydddddiPd @1739
    _Z8copyMeshP5GEdgeS0_i @1740
    _Z8edgeSwapRSt3setI8swapquadSt4lessIS0_ESaIS0_EEP5MTri3P5GFaceiRSt6vectorIS7_SaIS7_EERK13swapCriterionR13bidimMeshData @1741
    _Z8edgeSwapRSt6vectorIP5MTet4SaIS1_EES1_iRKN13qmTetrahedron8MeasuresE @1742
    _Z8faceSwapRSt6vectorIP5MTet4SaIS1_EES1_iRKN13qmTetrahedron8MeasuresE @1743
    _Z8fcmp_intPKvS0_ @1744
    _Z8findSpandiiPf @1745
    _Z8gmsh2BDSRNSt7__cxx114listIP5GFaceSaIS2_EEE @1746
    _Z8invMapUVP9MTrianglePdR13bidimMeshDataS1_d @1747
    _Z8invMapXYP9MTriangleP7MVertex @1748
    _Z8kd_splitPPdPiRK11ANNorthRectiiRiRdS5_ @1749
    _Z8printtetPKcP3Tet @1750
    _Z8rbd_treePPdPiiiiR11ANNorthRectPFvS0_S1_RKS2_iiRiRdS6_E13ANNshrinkRule @1751
    _Z8rkd_treePPdPiiiiR11ANNorthRectPFvS0_S1_RKS2_iiRiRdS6_E @1752
    _Z8setColorRKSt6vectorISt4pairIiiESaIS1_EEjb @1753
    _Z8skipTestPKcS0_S0_iPi @1754
    _Z8skiplinev @1755
    _Z8swapedgeP7MVertexS0_S0_S0_P5MTri3i @1756
    _Z8symmetryRKNSt7__cxx1112basic_stringIcSt11char_traitsIcESaIcEEERKSt6vectorISt4pairIiiESaIS9_EES6_S6_S6_S6_b @1757
    _Z8trace3x3PA3_d @1758
    _Z8triOnBoxP9MTrianglePP7MVertex @1759
    _Z9AdaptMeshP6GModel @1760
    _Z9DESTROOOYISt14_List_iteratorIP8BDS_EdgeEEvT_S4_ @1761
    _Z9DESTROOOYISt14_List_iteratorIP8BDS_FaceEEvT_S4_ @1762
    _Z9DESTROOOYISt23_Rb_tree_const_iteratorIP14BDS_GeomEntityEEvT_S4_ @1763
    _Z9DESTROOOYISt23_Rb_tree_const_iteratorIP9BDS_PointEEvT_S4_ @1764
    _Z9FindCurvei @1765
    _Z9FindPointi @1766
    _Z9FreeCurvePvS_ @1767
    _Z9GmshBatchiPPc @1768
    _Z9GmshBatchv @1769
    _Z9List_CopyP6List_TS0_ @1770
    _Z9List_ReadP6List_TiPv @1771
    _Z9List_SortP6List_TPFiPKvS2_E @1772
    _Z9MergeFileRKNSt7__cxx1112basic_stringIcSt11char_traitsIcESaIcEEEbbb @1773
    _Z9NEWVOLUMEv @1774
    _Z9ParseFileRKNSt7__cxx1112basic_stringIcSt11char_traitsIcESaIcEEEbb @1775
    _Z9SetOrder1P6GModelb @1776
    _Z9SetOrderNP6GModelibbb @1777
    _Z9SwapBytesPcii @1778
    _Z9TimeOfDayv @1779
    _Z9Tree2ListP6Tree_T @1780
    _Z9Tree_SizeP6Tree_T @1781
    _Z9UnzipFileRKNSt7__cxx1112basic_stringIcSt11char_traitsIcESaIcEEES6_ @1782
    _Z9add_fieldiRKNSt7__cxx1112basic_stringIcSt11char_traitsIcESaIcEEES6_ @1783
    _Z9add_paramRKNSt7__cxx1112basic_stringIcSt11char_traitsIcESaIcEEES6_S6_S6_S6_ @1784
    _Z9add_pointRKNSt7__cxx1112basic_stringIcSt11char_traitsIcESaIcEEES6_S6_S6_S6_ @1785
    _Z9add_torusRKNSt7__cxx1112basic_stringIcSt11char_traitsIcESaIcEEES6_S6_S6_S6_S6_S6_ @1786
    _Z9add_wedgeRKNSt7__cxx1112basic_stringIcSt11char_traitsIcESaIcEEES6_S6_S6_S6_S6_S6_S6_ @1787
    _Z9annCopyPtiPd @1788
    _Z9annMinMaxPPdPiiiRdS2_ @1789
    _Z9annSpreadPPdPiii @1790
    _Z9avl_countP15avl_tree_struct @1791
    _Z9carveHoleI11MHexahedronEvRSt6vectorIPT_SaIS3_EEdP10ANNkd_tree @1792
    _Z9carveHoleI12MTetrahedronEvRSt6vectorIPT_SaIS3_EEdP10ANNkd_tree @1793
    _Z9carveHoleI6MPrismEvRSt6vectorIPT_SaIS3_EEdP10ANNkd_tree @1794
    _Z9carveHoleI8MPyramidEvRSt6vectorIPT_SaIS3_EEdP10ANNkd_tree @1795
    _Z9carveHoleP7GRegionidRSt6vectorIiSaIiEE @1796
    _Z9coherenceRKNSt7__cxx1112basic_stringIcSt11char_traitsIcESaIcEEE @1797
    _Z9edgeSplitRSt6vectorIP5MTet4SaIS1_EES1_P7MVertexiRKN13qmTetrahedron8MeasuresE @1798
    _Z9edgeSwapsR12tetContaineri @1799
    _Z9getGQHPtsi @1800
    _Z9getGQLPtsi @1801
    _Z9getGQQPtsi @1802
    _Z9getGQTPtsi @1803
    _Z9getLSBlobjSt17_Rb_tree_iteratorISt4pairIKP7MVertexSt6vectorIP8MElementSaIS6_EEEERSt3mapIS2_S8_18MVertexLessThanNumSaIS9_EE @1804
    _Z9gmsh_signIdEiRKT_ @1805
    _Z9newton_fdPFbR10fullVectorIdES1_PvES1_S2_dd @1806
    _Z9overlap2DP8MElementS0_ @1807
    _Z9printTetsPKcRNSt7__cxx114listIP5MTet4SaIS4_EEEb @1808
    _Z9quadToTriddPdS_S_ @1809
    _Z9recur_tagP8BDS_FaceP14BDS_GeomEntity @1810
    _Z9translateRKNSt7__cxx1112basic_stringIcSt11char_traitsIcESaIcEEERKSt6vectorISt4pairIiiESaIS9_EES6_S6_S6_b @1811
    _Z9validFaceP7MVertexS0_S0_S0_RSt3mapIS0_St3setIP8MElementSt4lessIS4_ESaIS4_EES5_IS0_ESaISt4pairIKS0_S8_EEE @1812
    _ZGVN8picojson12last_error_tIbE1sB5cxx11E @1813 DATA
    _ZGVZNK11FieldOption10listdoubleB5cxx11EvE1l @1814 DATA
    _ZGVZNK11FieldOption4listB5cxx11EvE1l @1815 DATA
    _ZGVZNK20BoundaryLayerColumns9getColumnEP7MVertexiE5error @1816 DATA
    _ZN10ANNbd_treeC1EPPdiii12ANNsplitRule13ANNshrinkRule @1817
    _ZN10ANNbd_treeC1ERSi @1818
    _ZN10ANNbd_treeC2EPPdiii12ANNsplitRule13ANNshrinkRule @1819
    _ZN10ANNbd_treeC2ERSi @1820
    _ZN10ANNbd_treeD0Ev @1821
    _ZN10ANNbd_treeD1Ev @1822
    _ZN10ANNkdStats5mergeERKS_ @1823
    _ZN10ANNkd_leaf10ann_searchEd @1824
    _ZN10ANNkd_leaf13ann_FR_searchEd @1825
    _ZN10ANNkd_leaf14ann_pri_searchEd @1826
    _ZN10ANNkd_leaf4dumpERSo @1827
    _ZN10ANNkd_leaf5printEiRSo @1828
    _ZN10ANNkd_leaf8getStatsEiR10ANNkdStatsR11ANNorthRect @1829
    _ZN10ANNkd_leafD0Ev @1830
    _ZN10ANNkd_leafD1Ev @1831
    _ZN10ANNkd_tree10annkSearchEPdiPiS0_d @1832
    _ZN10ANNkd_tree12SkeletonTreeEiiiPPdPi @1833
    _ZN10ANNkd_tree12annkFRSearchEPddiPiS0_d @1834
    _ZN10ANNkd_tree13annkPriSearchEPdiPiS0_d @1835
    _ZN10ANNkd_tree4DumpE7ANNboolRSo @1836
    _ZN10ANNkd_tree5PrintE7ANNboolRSo @1837
    _ZN10ANNkd_tree6theDimEv @1838
    _ZN10ANNkd_tree7nPointsEv @1839
    _ZN10ANNkd_tree8getStatsER10ANNkdStats @1840
    _ZN10ANNkd_tree9thePointsEv @1841
    _ZN10ANNkd_treeC1EPPdiii12ANNsplitRule @1842
    _ZN10ANNkd_treeC1ERSi @1843
    _ZN10ANNkd_treeC1Eiii @1844
    _ZN10ANNkd_treeC2EPPdiii12ANNsplitRule @1845
    _ZN10ANNkd_treeC2ERSi @1846
    _ZN10ANNkd_treeC2Eiii @1847
    _ZN10ANNkd_treeD0Ev @1848
    _ZN10ANNkd_treeD1Ev @1849
    _ZN10ANNkd_treeD2Ev @1850
    _ZN10BDS_Vector1tE @1851 DATA
    _ZN10BDS_VectorC1ERK9BDS_PointS2_ @1852
    _ZN10BDS_VectorC2ERK9BDS_PointS2_ @1853
    _ZN10BGMManager11latest2DbgmE @1854 DATA
    _ZN10BGMManager15use_cross_fieldE @1855 DATA
    _ZN10BGMManager19set_use_cross_fieldEb @1856
    _ZN10BGMManager3getEP5GFace @1857
    _ZN10BGMManager3getEP7GRegion @1858
    _ZN10BGMManager4dataE @1859 DATA
    _ZN10BGMManager9current2DEv @1860
    _ZN10ClosureGen12addEdgeNodesERSt6vectorIN10nodalBasis7closureESaIS2_EEPKii @1861
    _ZN10ClosureGen13rotateHexFullEiiidddRdS0_S0_ @1862
    _ZN10ClosureGen17getFaceClosureTetEiiiRN10nodalBasis7closureEi @1863
    _ZN10ClosureGen18reorderFaceClosureEiiRN10nodalBasis7closureEiii @1864
    _ZN10ClosureGen19getFaceClosurePrismEiiiRN10nodalBasis7closureEi @1865
    _ZN10ClosureGen21fillInteriorFaceNodesERN10nodalBasis7closureEiiii @1866
    _ZN10ClosureGen21generate2dEdgeClosureERSt6vectorIN10nodalBasis7closureESaIS2_EEii @1867
    _ZN10ClosureGen21generateClosureOrder0ERSt6vectorIN10nodalBasis7closureESaIS2_EEi @1868
    _ZN10ClosureGen22generateFaceClosureHexERSt6vectorIN10nodalBasis7closureESaIS2_EEibRK10fullMatrixIdE @1869
    _ZN10ClosureGen22generateFaceClosureTetERSt6vectorIN10nodalBasis7closureESaIS2_EEi @1870
    _ZN10ClosureGen23generate1dVertexClosureERSt6vectorIN10nodalBasis7closureESaIS2_EEi @1871
    _ZN10ClosureGen24generateFaceClosurePrismERSt6vectorIN10nodalBasis7closureESaIS2_EEi @1872
    _ZN10ClosureGen25generate2dEdgeClosureFullERSt6vectorIN10nodalBasis7closureESaIS2_EERS0_IiSaIiEEiib @1873
    _ZN10ClosureGen26generateFaceClosureHexFullERSt6vectorIN10nodalBasis7closureESaIS2_EERS0_IiSaIiEEibRK10fullMatrixIdE @1874
    _ZN10ClosureGen26generateFaceClosureTetFullERSt6vectorIN10nodalBasis7closureESaIS2_EERS0_IiSaIiEEib @1875
    _ZN10ClosureGen27generate1dVertexClosureFullERSt6vectorIN10nodalBasis7closureESaIS2_EERS0_IiSaIiEEi @1876
    _ZN10ClosureGen28generateFaceClosurePrismFullERSt6vectorIN10nodalBasis7closureESaIS2_EERS0_IiSaIiEEi @1877
    _ZN10ClosureGen9rotateHexEiiiddRdS0_S0_ @1878
    _ZN10GeoFactory12addCircleArcEP6GModelP7GVertexS3_S3_ @1879
    _ZN10GeoFactory12healGeometryEP6GModeld @1880
    _ZN10GeoFactory13addPlanarFaceEP6GModelRKSt6vectorIS2_I11GEdgeSignedSaIS3_EESaIS5_EE @1881
    _ZN10GeoFactory13addPlanarFaceEP6GModelSt6vectorIS2_IP5GEdgeSaIS4_EESaIS6_EE @1882
    _ZN10GeoFactory13addRuledFacesEP6GModelSt6vectorIS2_IP5GEdgeSaIS4_EESaIS6_EE @1883
    _ZN10GeoFactory14_addPlanarFaceEP6GModelRKSt6vectorIS2_I11GEdgeSignedSaIS3_EESaIS5_EEb @1884
    _ZN10GeoFactory20extrudeBoundaryLayerEP6GModelP7GEntityidii @1885
    _ZN10GeoFactory7addLineEP6GModelP7GVertexS3_ @1886
    _ZN10GeoFactory7getNameB5cxx11Ev @1887
    _ZN10GeoFactory9addVertexEP6GModeldddd @1888
    _ZN10GeoFactory9addVolumeEP6GModelSt6vectorIS2_IP5GFaceSaIS4_EESaIS6_EE @1889
    _ZN10GeoFactoryD0Ev @1890
    _ZN10GeoFactoryD1Ev @1891
    _ZN10LpSmoother13improve_modelEv @1892
    _ZN10LpSmoother14improve_regionEP7GRegion @1893
    _ZN10LpSmoother17interior_verticesE @1894 DATA
    _ZN10LpSmoother19get_interior_vertexEi @1895
    _ZN10LpSmoother25get_nbr_interior_verticesEv @1896
    _ZN10LpSmootherC1Eii @1897
    _ZN10LpSmootherC2Eii @1898
    _ZN10LpSmootherD1Ev @1899
    _ZN10LpSmootherD2Ev @1900
    _ZN10MLineChild20getIntegrationPointsEiPiPP5IntPt @1901
    _ZN10MLineChild9setParentEP8MElementb @1902
    _ZN10MLineChildD0Ev @1903
    _ZN10MLineChildD1Ev @1904
    _ZN10MTriangle610getEdgeRepEbiPdS0_S0_P8SVector3 @1905
    _ZN10MTriangle610getFaceRepEbiPdS0_S0_P8SVector3 @1906
    _ZN10MTriangle612getVertexUNVEi @1907
    _ZN10MTriangle614getNumEdgesRepEb @1908
    _ZN10MTriangle614getNumFacesRepEb @1909
    _ZN10MTriangle67reverseEv @1910
    _ZN10MTriangle68reorientEib @1911
    _ZN10MTriangle69getVertexEi @1912
    _ZN10MTriangle69setVertexEiP7MVertex @1913
    _ZN10MTriangle6D0Ev @1914
    _ZN10MTriangle6D1Ev @1915
    _ZN10MTriangleN10getEdgeRepEbiPdS0_S0_P8SVector3 @1916
    _ZN10MTriangleN10getFaceRepEbiPdS0_S0_P8SVector3 @1917
    _ZN10MTriangleN14getNumEdgesRepEb @1918
    _ZN10MTriangleN14getNumFacesRepEb @1919
    _ZN10MTriangleN7reverseEv @1920
    _ZN10MTriangleN8reorientEib @1921
    _ZN10MTriangleN9getVertexEi @1922
    _ZN10MTriangleN9setVertexEiP7MVertex @1923
    _ZN10MTriangleNC1ERKSt6vectorIP7MVertexSaIS2_EEcii @1924
    _ZN10MTriangleND0Ev @1925
    _ZN10MTriangleND1Ev @1926
    _ZN10MTrihedron10getEdgeRepEbiPdS0_S0_P8SVector3 @1927
    _ZN10MTrihedron10getFaceRepEbiPdS0_S0_P8SVector3 @1928
    _ZN10MTrihedron11getNumFacesEv @1929
    _ZN10MTrihedron13getVolumeSignEv @1930
    _ZN10MTrihedron14getNumEdgesRepEb @1931
    _ZN10MTrihedron14getNumFacesRepEb @1932
    _ZN10MTrihedron17setVolumePositiveEv @1933
    _ZN10MTrihedron7getFaceEi @1934
    _ZN10MTrihedron7reverseEv @1935
    _ZN10MTrihedron9getVertexEi @1936
    _ZN10MTrihedron9getVolumeEv @1937
    _ZN10MTrihedron9setVertexEiP7MVertex @1938
    _ZN10MTrihedronD0Ev @1939
    _ZN10MTrihedronD1Ev @1940
    _ZN10NameSpaces16getMember_ValMaxERNSt7__cxx1112basic_stringIcSt11char_traitsIcESaIcEEES6_ @1941
    _ZN10NameSpaces9defStructERNSt7__cxx1112basic_stringIcSt11char_traitsIcESaIcEEES6_RSt3mapIS5_St6vectorIdSaIdEESt4lessIS5_ESaISt4pairIKS5_SA_EEERS7_IS5_S8_IS5_SaIS5_EESC_SaISD_ISE_SK_EEERiib @1942
    _ZN10NameSpacesC1Ev @1943
    _ZN10NameSpacesD1Ev @1944
    _ZN10OctreePost12searchScalarEdddPdiS0_iS0_S0_S0_b @1945
    _ZN10OctreePost12searchTensorEdddPdiS0_iS0_S0_S0_b @1946
    _ZN10OctreePost12searchVectorEdddPdiS0_iS0_S0_S0_b @1947
    _ZN10OctreePost19searchScalarWithTolEdddPdiS0_diS0_S0_S0_b @1948
    _ZN10OctreePost19searchTensorWithTolEdddPdiS0_diS0_S0_S0_b @1949
    _ZN10OctreePost19searchVectorWithTolEdddPdiS0_diS0_S0_S0_b @1950
    _ZN10OctreePost7_createEP9PViewData @1951
    _ZN10OctreePost9_getValueEPviPdiS1_S1_b @1952
    _ZN10OctreePost9_getValueEPviiiPdiS1_S1_b @1953
    _ZN10OctreePostC1EP5PView @1954
    _ZN10OctreePostC1EP9PViewData @1955
    _ZN10OctreePostC2EP5PView @1956
    _ZN10OctreePostC2EP9PViewData @1957
    _ZN10OctreePostD1Ev @1958
    _ZN10OctreePostD2Ev @1959
    _ZN10PETriangleC1ERKSt6vectorIP7MVertexSaIS2_EE @1960
    _ZN10PETriangleC2ERKSt6vectorIP7MVertexSaIS2_EE @1961
    _ZN10PETriangleD0Ev @1962
    _ZN10PETriangleD1Ev @1963
    _ZN10PETriangleD2Ev @1964
    _ZN10Size_field11init_regionEP7GRegion @1965
    _ZN10Size_field11print_fieldEP7GRegion @1966
    _ZN10Size_field4testEv @1967
    _ZN10Size_field5clearEv @1968
    _ZN10Size_field5fieldE @1969 DATA
    _ZN10Size_field5solveEP7GRegion @1970
    _ZN10Size_field6octreeE @1971 DATA
    _ZN10Size_field6searchEddd @1972
    _ZN10Size_field7kd_treeE @1973 DATA
    _ZN10Size_field8boundaryE @1974 DATA
    _ZN10Size_fieldC1Ev @1975
    _ZN10Size_fieldC2Ev @1976
    _ZN10edge_angleC1EP7MVertexS1_P8MElementS3_ @1977
    _ZN10edge_angleC2EP7MVertexS1_P8MElementS3_ @1978
    _ZN10fullMatrixISt7complexIdEE4gemmERKS2_S4_S1_S1_bb @1979
    _ZN10fullMatrixISt7complexIdEE5scaleEd @1980
    _ZN10fullMatrixISt7complexIdEE6setAllERKS2_ @1981
    _ZN10fullMatrixIdE12luSubstituteERK10fullVectorIdERS1_IiERS2_ @1982
    _ZN10fullMatrixIdE13invertInPlaceEv @1983
    _ZN10fullMatrixIdE3eigER10fullVectorIdES3_RS0_S4_b @1984
    _ZN10fullMatrixIdE3svdERS0_R10fullVectorIdE @1985
    _ZN10fullMatrixIdE4axpyERKS0_d @1986
    _ZN10fullMatrixIdE4copyERKS0_ @1987
    _ZN10fullMatrixIdE4gemmERKS0_S2_ddbb @1988
    _ZN10fullMatrixIdE5scaleEd @1989
    _ZN10fullMatrixIdE6setAllERKS0_ @1990
    _ZN10fullMatrixIdE6setAllERKd @1991
    _ZN10fullMatrixIdE7luSolveERK10fullVectorIdERS2_ @1992
    _ZN10fullMatrixIdE8luFactorER10fullVectorIiE @1993
    _ZN10fullMatrixIdEC1Eiib @1994
    _ZN10fullMatrixIdED1Ev @1995
    _ZN10fullMatrixIdEclEii @1996
    _ZN10fullMatrixIiE5scaleEd @1997
    _ZN10fullMatrixIiE6setAllERKS0_ @1998
    _ZN10fullVectorISt7complexIdEE4axpyERKS2_S1_ @1999
    _ZN10fullVectorISt7complexIdEE6setAllERKS2_ @2000
    _ZN10fullVectorIdE4axpyERKS0_d @2001
    _ZN10fullVectorIdE6setAllERKS0_ @2002
    _ZN10gmshRegion14resetNativePtrEP6Volume @2003
    _ZN10gmshRegion19resetMeshAttributesEv @2004
    _ZN10gmshRegionC1EP6GModelP6Volume @2005
    _ZN10gmshRegionC2EP6GModelP6Volume @2006
    _ZN10gmshRegionD0Ev @2007
    _ZN10gmshRegionD1Ev @2008
    _ZN10gmshSphere9NewSphereEidddd @2009
    _ZN10gmshSphereD0Ev @2010
    _ZN10gmshSphereD1Ev @2011
    _ZN10gmshVertex11setPositionER6GPoint @2012
    _ZN10gmshVertex14resetNativePtrEP6Vertex @2013
    _ZN10gmshVertex19resetMeshAttributesEv @2014
    _ZN10gmshVertex29setPrescribedMeshSizeAtVertexEd @2015
    _ZN10gmshVertex8writeGEOEP6_iobufRKNSt7__cxx1112basic_stringIcSt11char_traitsIcESaIcEEE @2016
    _ZN10gmshVertexC1EP6GModelP6Vertex @2017
    _ZN10gmshVertexC2EP6GModelP6Vertex @2018
    _ZN10gmshVertexD0Ev @2019
    _ZN10gmshVertexD1Ev @2020
    _ZN10hexahedron11getNumEdgesEv @2021
    _ZN10hexahedron11getNumNodesEv @2022
    _ZN10hexahedron12getDimensionEv @2023
    _ZN10hexahedron13getGaussPointEiRdS0_S0_S0_ @2024
    _ZN10hexahedron16getShapeFunctionEidddRd @2025
    _ZN10hexahedron17getNumGaussPointsEv @2026
    _ZN10hexahedron20getGradShapeFunctionEidddPd @2027
    _ZN10hexahedron7getEdgeEiRiS0_ @2028
    _ZN10hexahedron7getNodeEiRdS0_S0_ @2029
    _ZN10hexahedron8isInsideEddd @2030
    _ZN10hexahedronD0Ev @2031
    _ZN10hexahedronD1Ev @2032
    _ZN10meshMetric10exportInfoEPKc @2033
    _ZN10meshMetric11getGradientEP7MVertex @2034
    _ZN10meshMetric11scaleMetricEiRSt3mapIP7MVertex8SMetric3St4lessIS2_ESaISt4pairIKS2_S3_EEE @2035
    _ZN10meshMetric12getLaplacianEP7MVertex @2036
    _ZN10meshMetric13computeMetricEi @2037
    _ZN10meshMetric13computeValuesEv @2038
    _ZN10meshMetric13updateMetricsEv @2039
    _ZN10meshMetric14computeHessianEv @2040
    _ZN10meshMetric14getDescriptionB5cxx11Ev @2041
    _ZN10meshMetric17computeMetricFreyEP7MVertexR8SMetric3S3_Rdddd @2042
    _ZN10meshMetric20computeMetricHessianEP7MVertexR8SMetric3S3_Rdddd @2043
    _ZN10meshMetric21computeMetricEigenDirEP7MVertexR8SMetric3S3_Rdddd @2044
    _ZN10meshMetric21computeMetricLevelSetEP7MVertexR8SMetric3S3_Rdddd @2045
    _ZN10meshMetric25computeMetricIsoLinInterpEP7MVertexR8SMetric3S3_Rdddd @2046
    _ZN10meshMetric7getNameEv @2047
    _ZN10meshMetric9addMetricEiP14simpleFunctionIdESt6vectorIdSaIdEE @2048
    _ZN10meshMetricC1EP6GModel @2049
    _ZN10meshMetricC1ESt6vectorIP8MElementSaIS2_EE @2050
    _ZN10meshMetricC2EP6GModel @2051
    _ZN10meshMetricC2ESt6vectorIP8MElementSaIS2_EE @2052
    _ZN10meshMetricD0Ev @2053
    _ZN10meshMetricD1Ev @2054
    _ZN10meshMetricD2Ev @2055
    _ZN10meshMetricclEdddP7GEntity @2056
    _ZN10meshMetricclEdddR8SMetric3P7GEntity @2057
    _ZN10my_wrapperC1E7SPoint2 @2058
    _ZN10my_wrapperC2E7SPoint2 @2059
    _ZN10nodalBasisC1Ei @2060
    _ZN10nodalBasisC2Ei @2061
    _ZN10nodalBasisD2Ev @2062
    _ZN10qmTriangle15NCJAndGradientsERK7SPoint3S2_S2_RK8SVector3RSt6vectorIdSaIdEES9_ @2063
    _ZN10qmTriangle3NCJERK7SPoint3S2_S2_RK8SVector3RSt6vectorIdSaIdEE @2064
    _ZN10qmTriangle3etaEP9MTriangle @2065
    _ZN10qmTriangle5gammaEP8BDS_Face @2066
    _ZN10qmTriangle5gammaEP9MTriangle @2067
    _ZN10qmTriangle5gammaEPK7MVertexS2_S2_ @2068
    _ZN10qmTriangle5gammaEPK9BDS_PointS2_S2_ @2069
    _ZN10qmTriangle5gammaERKdS1_S1_S1_S1_S1_S1_S1_S1_ @2070
    _ZN10qmTriangle6anglesEP9MTriangle @2071
    _ZN10qmTriangle8NCJRangeEPK9MTriangleRdS3_ @2072
    _ZN10quadrangle11getNumEdgesEv @2073
    _ZN10quadrangle11getNumNodesEv @2074
    _ZN10quadrangle12getDimensionEv @2075
    _ZN10quadrangle13getGaussPointEiRdS0_S0_S0_ @2076
    _ZN10quadrangle13integrateFluxEPd @2077
    _ZN10quadrangle16getShapeFunctionEidddRd @2078
    _ZN10quadrangle17getNumGaussPointsEv @2079
    _ZN10quadrangle20getGradShapeFunctionEidddPd @2080
    _ZN10quadrangle7getEdgeEiRiS0_ @2081
    _ZN10quadrangle7getNodeEiRdS0_S0_ @2082
    _ZN10quadrangle8isInsideEddd @2083
    _ZN10quadrangleD0Ev @2084
    _ZN10quadrangleD1Ev @2085
    _ZN11ANNkd_split10ann_searchEd @2086
    _ZN11ANNkd_split13ann_FR_searchEd @2087
    _ZN11ANNkd_split14ann_pri_searchEd @2088
    _ZN11ANNkd_split4dumpERSo @2089
    _ZN11ANNkd_split5printEiRSo @2090
    _ZN11ANNkd_split8getStatsEiR10ANNkdStatsR11ANNorthRect @2091
    _ZN11ANNkd_splitD0Ev @2092
    _ZN11ANNkd_splitD1Ev @2093
    _ZN11ANNorthRect6insideEiPd @2094
    _ZN11BergotBasisC1Eib @2095
    _ZN11BergotBasisC2Eib @2096
    _ZN11BergotBasisD0Ev @2097
    _ZN11BergotBasisD1Ev @2098
    _ZN11BergotBasisD2Ev @2099
    _ZN11CellComplex10insertCellEP4Cell @2100
    _ZN11CellComplex10removeCellEP4Cellbb @2101
    _ZN11CellComplex11coreductionEP4CelliRSt6vectorIS1_SaIS1_EE @2102
    _ZN11CellComplex11coreductionEiiRSt6vectorIP4CellSaIS2_EE @2103
    _ZN11CellComplex11getNumCellsEii @2104
    _ZN11CellComplex11loadComplexENSt7__cxx1112basic_stringIcSt11char_traitsIcESaIcEEE @2105
    _ZN11CellComplex11removeCellsEi @2106
    _ZN11CellComplex11saveComplexENSt7__cxx1112basic_stringIcSt11char_traitsIcESaIcEEE @2107
    _ZN11CellComplex12_insertCellsERSt6vectorIP8MElementSaIS2_EEi @2108
    _ZN11CellComplex12_removeCellsERSt6vectorIP8MElementSaIS2_EEi @2109
    _ZN11CellComplex12enqueueCellsERSt3mapIP4Cells9Less_CellSaISt4pairIKS2_sEEERSt5queueIS2_St5dequeIS2_SaIS2_EEERSt3setIS2_S3_SC_E @2110
    _ZN11CellComplex12printComplexEi @2111
    _ZN11CellComplex13reduceComplexEibb @2112
    _ZN11CellComplex14_immunizeCellsERSt6vectorIP8MElementSaIS2_EE @2113
    _ZN11CellComplex14restoreComplexEv @2114
    _ZN11CellComplex15coreduceComplexEibi @2115
    _ZN11CellComplex15removeSubdomainEv @2116
    _ZN11CellComplex18bettiReduceComplexEv @2117
    _ZN11CellComplex7combineEi @2118
    _ZN11CellComplex7getSizeEib @2119
    _ZN11CellComplex7hasCellEP4Cellb @2120
    _ZN11CellComplex8coherentEv @2121
    _ZN11CellComplex8getACellEii @2122
    _ZN11CellComplex8getCellsERSt3setIP4Cell9Less_CellSaIS2_EEii @2123
    _ZN11CellComplex9_omitCellEP4Cellb @2124
    _ZN11CellComplex9_patienceE @2125 DATA
    _ZN11CellComplex9cocombineEi @2126
    _ZN11CellComplex9getDomainEP4CellRNSt7__cxx1112basic_stringIcSt11char_traitsIcESaIcEEE @2127
    _ZN11CellComplex9reductionEiiRSt6vectorIP4CellSaIS2_EE @2128
    _ZN11CellComplexC1EP6GModelRSt6vectorIP8MElementSaIS4_EES7_S7_S7_S7_b @2129
    _ZN11CellComplexC2EP6GModelRSt6vectorIP8MElementSaIS4_EES7_S7_S7_S7_b @2130
    _ZN11CellComplexD1Ev @2131
    _ZN11CellComplexD2Ev @2132
    _ZN11ElementType12OrderFromTagEi @2133
    _ZN11ElementType13getPrimaryTagEi @2134
    _ZN11ElementType16DimensionFromTagEi @2135
    _ZN11ElementType17ParentTypeFromTagEi @2136
    _ZN11ElementType18SerendipityFromTagEi @2137
    _ZN11ElementType6getTagEiib @2138
    _ZN11FieldOption10listdoubleENSt7__cxx114listIdSaIdEEE @2139
    _ZN11FieldOption14getDescriptionB5cxx11Ev @2140
    _ZN11FieldOption14numericalValueEd @2141
    _ZN11FieldOption4listENSt7__cxx114listIiSaIiEEE @2142
    _ZN11FieldOption6stringENSt7__cxx1112basic_stringIcSt11char_traitsIcESaIcEEE @2143
    _ZN11Frame_field10crossFieldE @2144 DATA
    _ZN11Frame_field10initRegionEP7GRegioni @2145
    _ZN11Frame_field10smoothFaceEP5GFacei @2146
    _ZN11Frame_field11init_regionEP7GRegion @2147
    _ZN11Frame_field11save_energyEP7GRegionRKNSt7__cxx1112basic_stringIcSt11char_traitsIcESaIcEEE @2148
    _ZN11Frame_field12buildAnnDataEP7GEntityi @2149
    _ZN11Frame_field12checkAnnDataEP7GEntityRKNSt7__cxx1112basic_stringIcSt11char_traitsIcESaIcEEE @2150
    _ZN11Frame_field12findAnnIndexE7SPoint3 @2151
    _ZN11Frame_field12listVerticesE @2152 DATA
    _ZN11Frame_field12print_field1Ev @2153
    _ZN11Frame_field12print_field2EP7GRegion @2154
    _ZN11Frame_field12smoothRegionEP7GRegioni @2155
    _ZN11Frame_field13deleteAnnDataEv @2156
    _ZN11Frame_field13print_segmentE7SPoint3S0_ddRSt14basic_ofstreamIcSt11char_traitsIcEE @2157
    _ZN11Frame_field14findBarycenterESt23_Rb_tree_const_iteratorISt4pairIKP7MVertexSt3setIS3_St4lessIS3_ESaIS3_EEEER8STensor3 @2158
    _ZN11Frame_field14saveCrossFieldERKNSt7__cxx1112basic_stringIcSt11char_traitsIcESaIcEEEdb @2159
    _ZN11Frame_field15buildSmoothnessEv @2160
    _ZN11Frame_field18build_listVerticesEP7GEntityib @2161
    _ZN11Frame_field18recur_connect_vertEP6_iobufiP7MVertexR8STensor3RSt8multimapIS3_S3_St4lessIS3_ESaISt4pairIKS3_S3_EEERSt3setIS3_S8_SaIS3_EE @2162
    _ZN11Frame_field18vertex_to_elementsE @2163 DATA
    _ZN11Frame_field18vertex_to_verticesE @2164 DATA
    _ZN11Frame_field20continuousCrossFieldEP7GRegionP5GFace @2165
    _ZN11Frame_field20crossFieldSmoothnessE @2166 DATA
    _ZN11Frame_field24build_vertex_to_elementsEP7GEntityb @2167
    _ZN11Frame_field24build_vertex_to_verticesEP7GEntityib @2168
    _ZN11Frame_field4saveESt6vectorISt4pairI7SPoint38STensor3ESaIS4_EERKNSt7__cxx1112basic_stringIcSt11char_traitsIcESaIcEEE @2169
    _ZN11Frame_field4testEv @2170
    _ZN11Frame_field5clearEv @2171
    _ZN11Frame_field5fieldE @2172 DATA
    _ZN11Frame_field6labelsE @2173 DATA
    _ZN11Frame_field6searchEddd @2174
    _ZN11Frame_field6smoothEv @2175
    _ZN11Frame_field7annTreeE @2176 DATA
    _ZN11Frame_field7combineEddd @2177
    _ZN11Frame_field7kd_treeE @2178 DATA
    _ZN11Frame_field8initFaceEP5GFace @2179
    _ZN11Frame_field9crossDistE @2180 DATA
    _ZN11Frame_field9findCrossEddd @2181
    _ZN11Frame_field9init_faceEP5GFace @2182
    _ZN11Frame_field9save_distERKNSt7__cxx1112basic_stringIcSt11char_traitsIcESaIcEEE @2183
    _ZN11Frame_fieldC1Ev @2184
    _ZN11Frame_fieldC2Ev @2185
    _ZN11GenericEdge12EdgeGeomTypeB5cxx11E @2186 DATA
    _ZN11GenericEdge15EdgeDegeneratedE @2187 DATA
    _ZN11GenericEdge16EdgeClosestPointE @2188 DATA
    _ZN11GenericEdge16EdgeEvalFirstDerE @2189 DATA
    _ZN11GenericEdge16EdgeEvalXYZFromTE @2190 DATA
    _ZN11GenericEdge17EdgeEvalCurvatureE @2191 DATA
    _ZN11GenericEdge17EdgeEvalParBoundsE @2192 DATA
    _ZN11GenericEdge17EdgeReparamOnFaceE @2193 DATA
    _ZN11GenericEdge8EdgeIs3DE @2194 DATA
    _ZN11GenericEdgeC1EP6GModeliiP7GVertexS3_b @2195
    _ZN11GenericEdgeC2EP6GModeliiP7GVertexS3_b @2196
    _ZN11GenericEdgeD0Ev @2197
    _ZN11GenericEdgeD1Ev @2198
    _ZN11GenericEdgeD2Ev @2199
    _ZN11GenericFace11createLoopsEv @2200
    _ZN11GenericFace12FaceFirstDerE @2201 DATA
    _ZN11GenericFace12FaceGeomTypeB5cxx11E @2202 DATA
    _ZN11GenericFace13FaceParBoundsE @2203 DATA
    _ZN11GenericFace13FaceSecondDerE @2204 DATA
    _ZN11GenericFace13FaceUVFromXYZE @2205 DATA
    _ZN11GenericFace13FaceXYZFromUVE @2206 DATA
    _ZN11GenericFace14FaceCurvaturesE @2207 DATA
    _ZN11GenericFace14FaceEvalNormalE @2208 DATA
    _ZN11GenericFace16FaceClosestPointE @2209 DATA
    _ZN11GenericFace16FacePeriodicInfoE @2210 DATA
    _ZN11GenericFace18computePeriodicityEv @2211
    _ZN11GenericFace23FaceContainsPointFromUVE @2212 DATA
    _ZN11GenericFace24FaceContainsPointFromXYZE @2213 DATA
    _ZN11GenericFaceC1EP6GModelii @2214
    _ZN11GenericFaceC2EP6GModelii @2215
    _ZN11GenericFaceD0Ev @2216
    _ZN11GenericFaceD1Ev @2217
    _ZN11GenericFaceD2Ev @2218
    _ZN11GmshMessageclENSt7__cxx1112basic_stringIcSt11char_traitsIcESaIcEEES5_ @2219
    _ZN11HilbertSort15ComputeGrayCodeEi @2220
    _ZN11HilbertSort21MultiscaleSortHilbertEPP7MVertexiidPi @2221
    _ZN11HilbertSort4SortEPP7MVertexiiiddddddi @2222
    _ZN11HilbertSort5SplitEPP7MVertexiiidddddd @2223
    _ZN11LonLatField14getDescriptionB5cxx11Ev @2224
    _ZN11LonLatField7getNameEv @2225
    _ZN11LonLatFieldD0Ev @2226
    _ZN11LonLatFieldD1Ev @2227
    _ZN11LonLatFieldclEdddP7GEntity @2228
    _ZN11MEdgeVertex12setParameterEid @2229
    _ZN11MEdgeVertexD0Ev @2230
    _ZN11MEdgeVertexD1Ev @2231
    _ZN11MFaceVertex12setParameterEid @2232
    _ZN11MFaceVertexD0Ev @2233
    _ZN11MFaceVertexD1Ev @2234
    _ZN11MHexahedron10getEdgeRepEbiPdS0_S0_P8SVector3 @2235
    _ZN11MHexahedron10getFaceRepEbiPdS0_S0_P8SVector3 @2236
    _ZN11MHexahedron11getNumFacesEv @2237
    _ZN11MHexahedron13getVertexDIFFEi @2238
    _ZN11MHexahedron13getVolumeSignEv @2239
    _ZN11MHexahedron14getInnerRadiusEv @2240
    _ZN11MHexahedron14getNumEdgesRepEb @2241
    _ZN11MHexahedron14getNumFacesRepEb @2242
    _ZN11MHexahedron17angleShapeMeasureEv @2243
    _ZN11MHexahedron20getIntegrationPointsEiPiPP5IntPt @2244
    _ZN11MHexahedron7getFaceEi @2245
    _ZN11MHexahedron7reverseEv @2246
    _ZN11MHexahedron9getVertexEi @2247
    _ZN11MHexahedron9setVertexEiP7MVertex @2248
    _ZN11MHexahedronD0Ev @2249
    _ZN11MHexahedronD1Ev @2250
    _ZN11MLineBorder20getIntegrationPointsEiPiPP5IntPt @2251
    _ZN11MLineBorder9setDomainEP8MElementi @2252
    _ZN11MLineBorderD0Ev @2253
    _ZN11MLineBorderD1Ev @2254
    _ZN11MPolyhedron10getEdgeRepEbiPdS0_S0_P8SVector3 @2255
    _ZN11MPolyhedron10getFaceRepEbiPdS0_S0_P8SVector3 @2256
    _ZN11MPolyhedron11getNumFacesEv @2257
    _ZN11MPolyhedron14getNumEdgesRepEb @2258
    _ZN11MPolyhedron14getNumFacesRepEb @2259
    _ZN11MPolyhedron19getVerticesIdForMSHERSt6vectorIiSaIiEE @2260
    _ZN11MPolyhedron20getIntegrationPointsEiPiPP5IntPt @2261
    _ZN11MPolyhedron20getNumVerticesForMSHEv @2262
    _ZN11MPolyhedron20getShapeFunctionNodeEi @2263
    _ZN11MPolyhedron5_initEv @2264
    _ZN11MPolyhedron7getFaceEi @2265
    _ZN11MPolyhedron7reverseEv @2266
    _ZN11MPolyhedron9getVertexEi @2267
    _ZN11MPolyhedron9getVolumeEv @2268
    _ZN11MPolyhedron9setParentEP8MElementb @2269
    _ZN11MPolyhedronD0Ev @2270
    _ZN11MPolyhedronD1Ev @2271
    _ZN11MQuadrangle10getEdgeRepEbiPdS0_S0_P8SVector3 @2272
    _ZN11MQuadrangle10getFaceRepEbiPdS0_S0_P8SVector3 @2273
    _ZN11MQuadrangle11getNumFacesEv @2274
    _ZN11MQuadrangle13getVertexDIFFEi @2275
    _ZN11MQuadrangle14getInnerRadiusEv @2276
    _ZN11MQuadrangle14getNumEdgesRepEb @2277
    _ZN11MQuadrangle14getNumFacesRepEb @2278
    _ZN11MQuadrangle14getOuterRadiusEv @2279
    _ZN11MQuadrangle15etaShapeMeasureEv @2280
    _ZN11MQuadrangle17angleShapeMeasureEv @2281
    _ZN11MQuadrangle17gammaShapeMeasureEv @2282
    _ZN11MQuadrangle20getIntegrationPointsEiPiPP5IntPt @2283
    _ZN11MQuadrangle7getFaceEi @2284
    _ZN11MQuadrangle7reverseEv @2285
    _ZN11MQuadrangle8reorientEib @2286
    _ZN11MQuadrangle9getVertexEi @2287
    _ZN11MQuadrangle9getVolumeEv @2288
    _ZN11MQuadrangle9setVertexEiP7MVertex @2289
    _ZN11MQuadrangleC1ERKSt6vectorIP7MVertexSaIS2_EEii @2290
    _ZN11MQuadrangleD0Ev @2291
    _ZN11MQuadrangleD1Ev @2292
    _ZN11OctreeField14getDescriptionB5cxx11Ev @2293
    _ZN11OctreeField4Cell4initEddddR5Fieldi @2294
    _ZN11OctreeField6updateEv @2295
    _ZN11OctreeField7getNameEv @2296
    _ZN11OctreeFieldD0Ev @2297
    _ZN11OctreeFieldD1Ev @2298
    _ZN11OctreeFieldclEdddP7GEntity @2299
    _ZN11VertexArray10_addNormalEfff @2300
    _ZN11VertexArray10_addVertexEfff @2301
    _ZN11VertexArray11_addElementEP8MElement @2302
    _ZN11VertexArray12decodeHeaderEiPKciRNSt7__cxx1112basic_stringIcSt11char_traitsIcESaIcEEERiS9_RdSA_S9_SA_SA_SA_SA_SA_SA_SA_ @2303
    _ZN11VertexArray13getMemoryInMbEv @2304
    _ZN11VertexArray3addEPdS0_S0_P8SVector3PhS3_S3_S3_P8MElementbb @2305
    _ZN11VertexArray3addEPdS0_S0_P8SVector3PjP8MElementbb @2306
    _ZN11VertexArray4sortEddd @2307
    _ZN11VertexArray5mergeEPS_ @2308
    _ZN11VertexArray6toCharEiNSt7__cxx1112basic_stringIcSt11char_traitsIcESaIcEEEiddid14SBoundingBox3dRi @2309
    _ZN11VertexArray8finalizeEv @2310
    _ZN11VertexArray8fromCharEiPKci @2311
    _ZN11VertexArray9_addColorEhhhh @2312
    _ZN11VertexArrayC1Eii @2313
    _ZN11VertexArrayC2Eii @2314
    _ZN11bezierBasis10_constructEv @2315
    _ZN11bezierBasis13_constructPyrEv @2316
    _ZN11bezierBasisC1E13FuncSpaceData @2317
    _ZN11bezierBasisC2E13FuncSpaceData @2318
    _ZN11bezierBasisD1Ev @2319
    _ZN11bezierBasisD2Ev @2320
    _ZN11deMeshGEdgeclEP5GEdge @2321
    _ZN11deMeshGFaceclEP5GFace @2322
    _ZN11gmshSurface10getSurfaceEi @2323
    _ZN11gmshSurface12parFromPointEddd @2324
    _ZN11gmshSurface15allGmshSurfacesE @2325 DATA
    _ZN11gmshSurface19getMetricEigenvalueERK7SPoint2 @2326
    _ZN11gmshSurface8firstDerERK7SPoint2 @2327
    _ZN11meshGRegionclEP7GRegion @2328
    _ZN11smooth_data10exportviewENSt7__cxx1112basic_stringIcSt11char_traitsIcESaIcEEE @2329
    _ZN11smooth_data3addEdddiPd @2330
    _ZN11smooth_data3getEdddiPd @2331
    _ZN11smooth_data9add_scaleEdddd @2332
    _ZN11smooth_data9get_scaleEdddPd @2333
    _ZN11smooth_data9normalizeEv @2334
    _ZN11tetrahedron11getNumEdgesEv @2335
    _ZN11tetrahedron11getNumNodesEv @2336
    _ZN11tetrahedron12getDimensionEv @2337
    _ZN11tetrahedron13getGaussPointEiRdS0_S0_S0_ @2338
    _ZN11tetrahedron16getShapeFunctionEidddRd @2339
    _ZN11tetrahedron17getNumGaussPointsEv @2340
    _ZN11tetrahedron20getGradShapeFunctionEidddPd @2341
    _ZN11tetrahedron7getEdgeEiRiS0_ @2342
    _ZN11tetrahedron7getNodeEiRdS0_S0_ @2343
    _ZN11tetrahedron7xyz2uvwEPdS0_ @2344
    _ZN11tetrahedron8isInsideEddd @2345
    _ZN11tetrahedronD0Ev @2346
    _ZN11tetrahedronD1Ev @2347
    _ZN12ANNbd_shrink10ann_searchEd @2348
    _ZN12ANNbd_shrink13ann_FR_searchEd @2349
    _ZN12ANNbd_shrink14ann_pri_searchEd @2350
    _ZN12ANNbd_shrink4dumpERSo @2351
    _ZN12ANNbd_shrink5printEiRSo @2352
    _ZN12ANNbd_shrink8getStatsEiR10ANNkdStatsR11ANNorthRect @2353
    _ZN12ANNbd_shrinkD0Ev @2354
    _ZN12ANNbd_shrinkD1Ev @2355
    _ZN12BasisFactory13getNodalBasisEi @2356
    _ZN12BasisFactory14getBezierBasisE13FuncSpaceData @2357
    _ZN12BasisFactory14getBezierBasisEi @2358
    _ZN12BasisFactory14getBezierBasisEii @2359
    _ZN12BasisFactory15getCondNumBasisEii @2360
    _ZN12BasisFactory16getGradientBasisE13FuncSpaceData @2361
    _ZN12BasisFactory16getGradientBasisEi @2362
    _ZN12BasisFactory16getGradientBasisEii @2363
    _ZN12BasisFactory16getJacobianBasisE13FuncSpaceData @2364
    _ZN12BasisFactory16getJacobianBasisEi @2365
    _ZN12BasisFactory16getJacobianBasisEii @2366
    _ZN12BasisFactory2bsE @2367 DATA
    _ZN12BasisFactory2csE @2368 DATA
    _ZN12BasisFactory2fsE @2369 DATA
    _ZN12BasisFactory2gsE @2370 DATA
    _ZN12BasisFactory2jsE @2371 DATA
    _ZN12BasisFactory8clearAllEv @2372
    _ZN12CombinedCell8getCellsERSt3mapIP4Celli9Less_CellSaISt4pairIKS2_iEEE @2373
    _ZN12CombinedCellC1EP4CellS1_bb @2374
    _ZN12CombinedCellC1ERSt6vectorIP4CellSaIS2_EE @2375
    _ZN12CombinedCellC2EP4CellS1_bb @2376
    _ZN12CombinedCellC2ERSt6vectorIP4CellSaIS2_EE @2377
    _ZN12CombinedCellD0Ev @2378
    _ZN12CombinedCellD1Ev @2379
    _ZN12CondNumBasis12condNumOrderEi @2380
    _ZN12CondNumBasis12condNumOrderEii @2381
    _ZN12CondNumBasisC1Eii @2382
    _ZN12CondNumBasisC2Eii @2383
    _ZN12FieldManager10initializeEv @2384
    _ZN12FieldManager11deleteFieldEi @2385
    _ZN12FieldManager17setBackgroundMeshEi @2386
    _ZN12FieldManager18setBackgroundFieldEP5Field @2387
    _ZN12FieldManager20setBackgroundFieldIdEi @2388
    _ZN12FieldManager23setBoundaryLayerFieldIdEi @2389
    _ZN12FieldManager3getEi @2390
    _ZN12FieldManager5maxIdEv @2391
    _ZN12FieldManager5newIdEv @2392
    _ZN12FieldManager5resetEv @2393
    _ZN12FieldManager8newFieldEiNSt7__cxx1112basic_stringIcSt11char_traitsIcESaIcEEE @2394
    _ZN12FieldManagerC1Ev @2395
    _ZN12FieldManagerC2Ev @2396
    _ZN12FieldManagerD1Ev @2397
    _ZN12FieldManagerD2Ev @2398
    _ZN12FrustumField14getDescriptionB5cxx11Ev @2399
    _ZN12FrustumField7getNameEv @2400
    _ZN12FrustumFieldC1Ev @2401
    _ZN12FrustumFieldD0Ev @2402
    _ZN12FrustumFieldD1Ev @2403
    _ZN12FrustumFieldclEdddP7GEntity @2404
    _ZN12GenericField19setCallbackWithDataEPFbdddPvRdES0_ @2405
    _ZN12GenericField7getNameEv @2406
    _ZN12GenericFieldC1Ev @2407
    _ZN12GenericFieldC2Ev @2408
    _ZN12GenericFieldD0Ev @2409
    _ZN12GenericFieldD1Ev @2410
    _ZN12GenericFieldD2Ev @2411
    _ZN12GenericFieldclEdddP7GEntity @2412
    _ZN12HilbertSortB15ComputeGrayCodeEi @2413
    _ZN12HilbertSortB21MultiscaleSortHilbertEPP4VertiidPiRSt6vectorIiSaIiEE @2414
    _ZN12HilbertSortB4SortEPP4Vertiiiddddddi @2415
    _ZN12HilbertSortB5SplitEPP4Vertiiidddddd @2416
    _ZN12MHexahedronN10getEdgeRepEbiPdS0_S0_P8SVector3 @2417
    _ZN12MHexahedronN10getFaceRepEbiPdS0_S0_P8SVector3 @2418
    _ZN12MHexahedronN14getNumEdgesRepEb @2419
    _ZN12MHexahedronN14getNumFacesRepEb @2420
    _ZN12MHexahedronN25_order2indicesReversedHexE @2421 DATA
    _ZN12MHexahedronN7reverseEv @2422
    _ZN12MHexahedronN9getVertexEi @2423
    _ZN12MHexahedronN9setVertexEiP7MVertex @2424
    _ZN12MHexahedronNC1ERKSt6vectorIP7MVertexSaIS2_EEcii @2425
    _ZN12MHexahedronND0Ev @2426
    _ZN12MHexahedronND1Ev @2427
    _ZN12MQuadrangle810getEdgeRepEbiPdS0_S0_P8SVector3 @2428
    _ZN12MQuadrangle810getFaceRepEbiPdS0_S0_P8SVector3 @2429
    _ZN12MQuadrangle812getVertexUNVEi @2430
    _ZN12MQuadrangle813getVertexDIFFEi @2431
    _ZN12MQuadrangle814getNumEdgesRepEb @2432
    _ZN12MQuadrangle814getNumFacesRepEb @2433
    _ZN12MQuadrangle87reverseEv @2434
    _ZN12MQuadrangle88reorientEib @2435
    _ZN12MQuadrangle89getVertexEi @2436
    _ZN12MQuadrangle89setVertexEiP7MVertex @2437
    _ZN12MQuadrangle8D0Ev @2438
    _ZN12MQuadrangle8D1Ev @2439
    _ZN12MQuadrangle910getEdgeRepEbiPdS0_S0_P8SVector3 @2440
    _ZN12MQuadrangle910getFaceRepEbiPdS0_S0_P8SVector3 @2441
    _ZN12MQuadrangle913getVertexDIFFEi @2442
    _ZN12MQuadrangle914getNumEdgesRepEb @2443
    _ZN12MQuadrangle914getNumFacesRepEb @2444
    _ZN12MQuadrangle97reverseEv @2445
    _ZN12MQuadrangle98reorientEib @2446
    _ZN12MQuadrangle99getVertexEi @2447
    _ZN12MQuadrangle99setVertexEiP7MVertex @2448
    _ZN12MQuadrangle9D0Ev @2449
    _ZN12MQuadrangle9D1Ev @2450
    _ZN12MQuadrangleN10getEdgeRepEbiPdS0_S0_P8SVector3 @2451
    _ZN12MQuadrangleN10getFaceRepEbiPdS0_S0_P8SVector3 @2452
    _ZN12MQuadrangleN14getNumEdgesRepEb @2453
    _ZN12MQuadrangleN14getNumFacesRepEb @2454
    _ZN12MQuadrangleN7reverseEv @2455
    _ZN12MQuadrangleN8reorientEib @2456
    _ZN12MQuadrangleN9getVertexEi @2457
    _ZN12MQuadrangleNC1ERKSt6vectorIP7MVertexSaIS2_EEcii @2458
    _ZN12MQuadrangleND0Ev @2459
    _ZN12MQuadrangleND1Ev @2460
    _ZN12MSubTriangle12updateParentEP6GModel @2461
    _ZN12MSubTriangle14getBaseElementEv @2462
    _ZN12MSubTriangle14setMultiParentERSt6vectorIP8MElementSaIS2_EEb @2463
    _ZN12MSubTriangle20getIntegrationPointsEiPiPP5IntPt @2464
    _ZN12MSubTriangle20getShapeFunctionNodeEi @2465
    _ZN12MSubTriangle9setParentEP8MElementb @2466
    _ZN12MSubTriangleD0Ev @2467
    _ZN12MSubTriangleD1Ev @2468
    _ZN12MSubTriangleD2Ev @2469
    _ZN12MTetrahedron10getEdgeRepEbiPdS0_S0_P8SVector3 @2470
    _ZN12MTetrahedron10getFaceRepEbiPdS0_S0_P8SVector3 @2471
    _ZN12MTetrahedron11getNumFacesEv @2472
    _ZN12MTetrahedron12circumcenterEv @2473
    _ZN12MTetrahedron13getVolumeSignEv @2474
    _ZN12MTetrahedron14getInnerRadiusEv @2475
    _ZN12MTetrahedron14getNumEdgesRepEb @2476
    _ZN12MTetrahedron14getNumFacesRepEb @2477
    _ZN12MTetrahedron15etaShapeMeasureEv @2478
    _ZN12MTetrahedron15getCircumRadiusEv @2479
    _ZN12MTetrahedron17gammaShapeMeasureEv @2480
    _ZN12MTetrahedron20getIntegrationPointsEiPiPP5IntPt @2481
    _ZN12MTetrahedron7getFaceEi @2482
    _ZN12MTetrahedron7reverseEv @2483
    _ZN12MTetrahedron9getVertexEi @2484
    _ZN12MTetrahedron9getVolumeEv @2485
    _ZN12MTetrahedron9setVertexEiP7MVertex @2486
    _ZN12MTetrahedronD0Ev @2487
    _ZN12MTetrahedronD1Ev @2488
    _ZN12MVertexRTree14rtree_callbackEP7MVertexPv @2489
    _ZN12MVertexRTreeD1Ev @2490
    _ZN12PEQuadrangleC1ERKSt6vectorIP7MVertexSaIS2_EE @2491
    _ZN12PEQuadrangleC2ERKSt6vectorIP7MVertexSaIS2_EE @2492
    _ZN12PEQuadrangleD0Ev @2493
    _ZN12PEQuadrangleD1Ev @2494
    _ZN12PEQuadrangleD2Ev @2495
    _ZN12PViewFactory10createViewEv @2496
    _ZN12PViewFactory8setEntryEiRK10fullMatrixIdE @2497
    _ZN12PViewFactoryC1ENSt7__cxx1112basic_stringIcSt11char_traitsIcESaIcEEES5_P6GModelii @2498
    _ZN12PViewFactoryC2ENSt7__cxx1112basic_stringIcSt11char_traitsIcESaIcEEES5_P6GModelii @2499
    _ZN12PViewOptions10_referenceE @2500 DATA
    _ZN12PViewOptions11skipElementEi @2501
    _ZN12PViewOptions13getScaleIndexEdiddb @2502
    _ZN12PViewOptions13getScaleValueEiidd @2503
    _ZN12PViewOptions18createGeneralRaiseEv @2504
    _ZN12PViewOptions8getColorEdddbi @2505
    _ZN12PViewOptions8getColorEii @2506
    _ZN12PViewOptions9referenceEv @2507
    _ZN12PViewOptionsC1ERKS_ @2508
    _ZN12PViewOptionsC1Ev @2509
    _ZN12PViewOptionsC2Ev @2510
    _ZN12PViewOptionsD1Ev @2511
    _ZN12PViewOptionsD2Ev @2512
    _ZN12Recombinator11conformityAERK3Hex @2513
    _ZN12Recombinator11conformityBERK3Hex @2514
    _ZN12Recombinator11conformityCERK3Hex @2515
    _ZN12Recombinator12build_tuplesEv @2516
    _ZN12Recombinator13init_markingsEv @2517
    _ZN12Recombinator13print_segmentERK7SPoint3S2_RSt14basic_ofstreamIcSt11char_traitsIcEE @2518
    _ZN12Recombinator14faces_statuquoEP7MVertexS1_S1_S1_ @2519
    _ZN12Recombinator14faces_statuquoERK3Hex @2520
    _ZN12Recombinator15scaled_jacobianEP7MVertexS1_S1_S1_ @2521
    _ZN12Recombinator16print_statisticsEv @2522
    _ZN12Recombinator17build_hash_tableAERK3Hex @2523
    _ZN12Recombinator17build_hash_tableBERK3Hex @2524
    _ZN12Recombinator17build_hash_tableCERK3Hex @2525
    _ZN12Recombinator17print_hash_tableAEv @2526
    _ZN12Recombinator19max_scaled_jacobianEP8MElementRi @2527
    _ZN12Recombinator19min_scaled_jacobianER3Hex @2528
    _ZN12Recombinator21initialize_structuresEP7GRegion @2529
    _ZN12Recombinator24clear_potential_hex_infoEv @2530
    _ZN12Recombinator24create_quads_on_boundaryEP7MVertexS1_S1_S1_ @2531
    _ZN12Recombinator24create_quads_on_boundaryEv @2532
    _ZN12Recombinator24is_potential_hex_conformERK3Hex @2533
    _ZN12Recombinator25add_or_free_potential_hexEP3Hex @2534
    _ZN12Recombinator26add_hex_to_region_if_validERK3Hex @2535
    _ZN12Recombinator28set_region_elements_positiveEv @2536
    _ZN12Recombinator5mergeEP7GRegion @2537
    _ZN12Recombinator5mergeEv @2538
    _ZN12Recombinator7executeEP7GRegion @2539
    _ZN12Recombinator7executeEv @2540
    _ZN12Recombinator8pattern1Ev @2541
    _ZN12Recombinator8pattern2Ev @2542
    _ZN12Recombinator8pattern3Ev @2543
    _ZN12Recombinator9mark_tetsERKSt3setIP8MElementSt4lessIS2_ESaIS2_EE @2544
    _ZN12RecombinatorD0Ev @2545
    _ZN12RecombinatorD1Ev @2546
    _ZN12RecombinatorD2Ev @2547
    _ZN12adaptiveData10timerAdaptE @2548 DATA
    _ZN12adaptiveData15countTotElmLev0EiP9PViewData @2549
    _ZN12adaptiveData16changeResolutionEiidP15GMSH_PostPlugin @2550
    _ZN12adaptiveData22changeResolutionForVTKEiidibRKNSt7__cxx1112basic_stringIcSt11char_traitsIcESaIcEEEi @2551
    _ZN12adaptiveData9timerInitE @2552 DATA
    _ZN12adaptiveDataC1EP9PViewDatab @2553
    _ZN12adaptiveDataC2EP9PViewDatab @2554
    _ZN12adaptiveDataD1Ev @2555
    _ZN12adaptiveDataD2Ev @2556
    _ZN12adaptiveLine10recurErrorEPS_dd @2557
    _ZN12adaptiveLine11allVerticesE @2558 DATA
    _ZN12adaptiveLine11recurCreateEPS_ii @2559
    _ZN12adaptiveLine3allB5cxx11E @2560 DATA
    _ZN12adaptiveLine5errorEdd @2561
    _ZN12adaptiveLine6createEi @2562
    _ZN12adaptiveLine8numEdgesE @2563 DATA
    _ZN12adaptiveLine8numNodesE @2564 DATA
    _ZN12crossField2dC1EP7MVertexP5GEdge @2565
    _ZN12crossField2dC2EP7MVertexP5GEdge @2566
    _ZN12discreteEdge10createTopoEv @2567
    _ZN12discreteEdge11orderMLinesEv @2568
    _ZN12discreteEdge11parametrizeERSt3mapIP5GFaceS0_IP7MVertexS4_St4lessIS4_ESaISt4pairIKS4_S4_EEES5_IS2_ESaIS7_IKS2_SB_EEERS0_IP7GRegionSB_S5_ISJ_ESaIS7_IKSJ_SB_EEE @2569
    _ZN12discreteEdge11parametrizeERSt3mapIP7MVertexS2_St4lessIS2_ESaISt4pairIKS2_S2_EEE @2570
    _ZN12discreteEdge14createGeometryEv @2571
    _ZN12discreteEdge16setBoundVerticesEv @2572
    _ZN12discreteEdge19haveParametrizationEv @2573
    _ZN12discreteEdge20getGeometricalVertexEP7MVertex @2574
    _ZN12discreteEdge4meshEb @2575
    _ZN12discreteEdge7setTopoESt6vectorIP5MLineSaIS2_EE @2576
    _ZN12discreteEdge8writeGEOEP6_iobuf @2577
    _ZN12discreteEdgeC1EP6GModeliP7GVertexS3_ @2578
    _ZN12discreteEdgeC2EP6GModeliP7GVertexS3_ @2579
    _ZN12discreteEdgeD0Ev @2580
    _ZN12discreteEdgeD1Ev @2581
    _ZN12discreteFace10crossFieldEv @2582
    _ZN12discreteFace11addTriangleEP13triangulationP9MTriangle @2583
    _ZN12discreteFace12gatherMeshesEv @2584
    _ZN12discreteFace13setBoundEdgesERKSt6vectorIiSaIiEE @2585
    _ZN12discreteFace13setBoundEdgesERKSt6vectorIiSaIiEES4_ @2586
    _ZN12discreteFace14createGeometryEv @2587
    _ZN12discreteFace14updateTopologyERSt6vectorIP13triangulationSaIS2_EE @2588
    _ZN12discreteFace17setupDiscreteEdgeEP12discreteEdgeSt6vectorIP5MLineSaIS4_EEPSt3setIP7MVertexSt4lessIS9_ESaIS9_EE @2589
    _ZN12discreteFace17splitDiscreteEdgeEP5GEdgeP7GVertexPP12discreteEdge @2590
    _ZN12discreteFace18complex_crossFieldEv @2591
    _ZN12discreteFace19haveParametrizationEv @2592
    _ZN12discreteFace19setupDiscreteVertexEP7GVertexP7MVertexPSt3setIS3_St4lessIS3_ESaIS3_EE @2593
    _ZN12discreteFace22checkAndFixOrientationEv @2594
    _ZN12discreteFace4meshEb @2595
    _ZN12discreteFace5splitEP13triangulationRSt6vectorIS1_SaIS1_EEi @2596
    _ZN12discreteFace8writeGEOEP6_iobuf @2597
    _ZN12discreteFace9fillHolesEP13triangulation @2598
    _ZN12discreteFace9findEdgesERSt3mapI5MEdgeSt6vectorIiSaIiEE9Less_EdgeSaISt4pairIKS1_S4_EEE @2599
    _ZN12discreteFaceC1EP6GModeli @2600
    _ZN12discreteFaceC2EP6GModeli @2601
    _ZN12discreteFaceD0Ev @2602
    _ZN12discreteFaceD1Ev @2603
    _ZN12gLevelsetBoxC1EPKdS1_S1_S1_RS0_S2_S2_i @2604
    _ZN12gLevelsetBoxC1EPKdS1_S1_S1_S1_S1_S1_S1_i @2605
    _ZN12gLevelsetBoxC1ERKS_ @2606
    _ZN12gLevelsetBoxC2EPKdS1_S1_S1_RS0_S2_S2_i @2607
    _ZN12gLevelsetBoxC2EPKdS1_S1_S1_S1_S1_S1_S1_i @2608
    _ZN12gLevelsetBoxC2ERKS_ @2609
    _ZN12gLevelsetBoxD0Ev @2610
    _ZN12gLevelsetBoxD1Ev @2611
    _ZN12gLevelsetCutC1ERKS_ @2612
    _ZN12gLevelsetCutC1ESt6vectorIP9gLevelsetSaIS2_EEbi @2613
    _ZN12gLevelsetCutD0Ev @2614
    _ZN12gLevelsetCutD1Ev @2615
    _ZN12miniBasisTetC1Ev @2616
    _ZN12miniBasisTetC2Ev @2617
    _ZN12miniBasisTetD0Ev @2618
    _ZN12miniBasisTetD1Ev @2619
    _ZN12miniBasisTriC1Ev @2620
    _ZN12miniBasisTriC2Ev @2621
    _ZN12miniBasisTriD0Ev @2622
    _ZN12miniBasisTriD1Ev @2623
    _ZN12qmHexahedron6anglesEP11MHexahedron @2624
    _ZN12qmQuadrangle15NCJAndGradientsERK7SPoint3S2_S2_S2_RK8SVector3RSt6vectorIdSaIdEES9_ @2625
    _ZN12qmQuadrangle3NCJERK7SPoint3S2_S2_S2_RK8SVector3RSt6vectorIdSaIdEE @2626
    _ZN12qmQuadrangle3etaEP11MQuadrangle @2627
    _ZN12qmQuadrangle6anglesEP11MQuadrangle @2628
    _ZN12qmQuadrangle8NCJRangeEPK11MQuadrangleRdS3_ @2629
    _ZN13ANNbruteForce10annkSearchEPdiPiS0_d @2630
    _ZN13ANNbruteForce12annkFRSearchEPddiPiS0_d @2631
    _ZN13ANNbruteForce6theDimEv @2632
    _ZN13ANNbruteForce7nPointsEv @2633
    _ZN13ANNbruteForce9thePointsEv @2634
    _ZN13ANNbruteForceC1EPPdii @2635
    _ZN13ANNbruteForceC2EPPdii @2636
    _ZN13ANNbruteForceD0Ev @2637
    _ZN13ANNbruteForceD1Ev @2638
    _ZN13ANNbruteForceD2Ev @2639
    _ZN13CylinderField14getDescriptionB5cxx11Ev @2640
    _ZN13CylinderField7getNameEv @2641
    _ZN13CylinderFieldC1Ev @2642
    _ZN13CylinderFieldD0Ev @2643
    _ZN13CylinderFieldD1Ev @2644
    _ZN13CylinderFieldclEdddP7GEntity @2645
    _ZN13DistanceField14getDescriptionB5cxx11Ev @2646
    _ZN13DistanceField6updateEv @2647
    _ZN13DistanceField7getNameEv @2648
    _ZN13DistanceFieldC1Ev @2649
    _ZN13DistanceFieldD0Ev @2650
    _ZN13DistanceFieldD1Ev @2651
    _ZN13DistanceFieldclEdddP7GEntity @2652
    _ZN13EdgeToRecoverC1EiiP5GEdge @2653
    _ZN13ExtrudeParams16normalsCoherenceE @2654 DATA
    _ZN13ExtrudeParams1uEii @2655
    _ZN13ExtrudeParams20calcLayerScaleFactorE @2656 DATA
    _ZN13ExtrudeParams4fillEidddddddddd @2657
    _ZN13ExtrudeParams6RotateEPA3_d @2658
    _ZN13ExtrudeParams7ExtrudeEdRdS0_S0_ @2659
    _ZN13ExtrudeParams7ExtrudeEiiRdS0_S0_ @2660
    _ZN13ExtrudeParams7normalsE @2661 DATA
    _ZN13ExtrudeParamsC1Ei @2662
    _ZN13ExtrudeParamsC2Ei @2663
    _ZN13ExtrudeParamsD1Ev @2664
    _ZN13ExtrudeParamsUt_D1Ev @2665
    _ZN13FieldCallback14getDescriptionB5cxx11Ev @2666
    _ZN13FieldFactoryTI11LonLatFieldED0Ev @2667
    _ZN13FieldFactoryTI11LonLatFieldED1Ev @2668
    _ZN13FieldFactoryTI11LonLatFieldEclEv @2669
    _ZN13FieldFactoryTI11OctreeFieldED0Ev @2670
    _ZN13FieldFactoryTI11OctreeFieldED1Ev @2671
    _ZN13FieldFactoryTI11OctreeFieldEclEv @2672
    _ZN13FieldFactoryTI12FrustumFieldED0Ev @2673
    _ZN13FieldFactoryTI12FrustumFieldED1Ev @2674
    _ZN13FieldFactoryTI12FrustumFieldEclEv @2675
    _ZN13FieldFactoryTI13CylinderFieldED0Ev @2676
    _ZN13FieldFactoryTI13CylinderFieldED1Ev @2677
    _ZN13FieldFactoryTI13CylinderFieldEclEv @2678
    _ZN13FieldFactoryTI13DistanceFieldED0Ev @2679
    _ZN13FieldFactoryTI13DistanceFieldED1Ev @2680
    _ZN13FieldFactoryTI13DistanceFieldEclEv @2681
    _ZN13FieldFactoryTI13GradientFieldED0Ev @2682
    _ZN13FieldFactoryTI13GradientFieldED1Ev @2683
    _ZN13FieldFactoryTI13GradientFieldEclEv @2684
    _ZN13FieldFactoryTI13MathEvalFieldED0Ev @2685
    _ZN13FieldFactoryTI13MathEvalFieldED1Ev @2686
    _ZN13FieldFactoryTI13MathEvalFieldEclEv @2687
    _ZN13FieldFactoryTI13MinAnisoFieldED0Ev @2688
    _ZN13FieldFactoryTI13MinAnisoFieldED1Ev @2689
    _ZN13FieldFactoryTI13MinAnisoFieldEclEv @2690
    _ZN13FieldFactoryTI13PostViewFieldED0Ev @2691
    _ZN13FieldFactoryTI13PostViewFieldED1Ev @2692
    _ZN13FieldFactoryTI13PostViewFieldEclEv @2693
    _ZN13FieldFactoryTI13RestrictFieldED0Ev @2694
    _ZN13FieldFactoryTI13RestrictFieldED1Ev @2695
    _ZN13FieldFactoryTI13RestrictFieldEclEv @2696
    _ZN13FieldFactoryTI14AttractorFieldED0Ev @2697
    _ZN13FieldFactoryTI14AttractorFieldED1Ev @2698
    _ZN13FieldFactoryTI14AttractorFieldEclEv @2699
    _ZN13FieldFactoryTI14CurvatureFieldED0Ev @2700
    _ZN13FieldFactoryTI14CurvatureFieldED1Ev @2701
    _ZN13FieldFactoryTI14CurvatureFieldEclEv @2702
    _ZN13FieldFactoryTI14LaplacianFieldED0Ev @2703
    _ZN13FieldFactoryTI14LaplacianFieldED1Ev @2704
    _ZN13FieldFactoryTI14LaplacianFieldEclEv @2705
    _ZN13FieldFactoryTI14ThresholdFieldED0Ev @2706
    _ZN13FieldFactoryTI14ThresholdFieldED1Ev @2707
    _ZN13FieldFactoryTI14ThresholdFieldEclEv @2708
    _ZN13FieldFactoryTI15ParametricFieldED0Ev @2709
    _ZN13FieldFactoryTI15ParametricFieldED1Ev @2710
    _ZN13FieldFactoryTI15ParametricFieldEclEv @2711
    _ZN13FieldFactoryTI15StructuredFieldED0Ev @2712
    _ZN13FieldFactoryTI15StructuredFieldED1Ev @2713
    _ZN13FieldFactoryTI15StructuredFieldEclEv @2714
    _ZN13FieldFactoryTI18BoundaryLayerFieldED0Ev @2715
    _ZN13FieldFactoryTI18BoundaryLayerFieldED1Ev @2716
    _ZN13FieldFactoryTI18BoundaryLayerFieldEclEv @2717
    _ZN13FieldFactoryTI18MathEvalFieldAnisoED0Ev @2718
    _ZN13FieldFactoryTI18MathEvalFieldAnisoED1Ev @2719
    _ZN13FieldFactoryTI18MathEvalFieldAnisoEclEv @2720
    _ZN13FieldFactoryTI19IntersectAnisoFieldED0Ev @2721
    _ZN13FieldFactoryTI19IntersectAnisoFieldED1Ev @2722
    _ZN13FieldFactoryTI19IntersectAnisoFieldEclEv @2723
    _ZN13FieldFactoryTI20ExternalProcessFieldED0Ev @2724
    _ZN13FieldFactoryTI20ExternalProcessFieldED1Ev @2725
    _ZN13FieldFactoryTI20ExternalProcessFieldEclEv @2726
    _ZN13FieldFactoryTI20MaxEigenHessianFieldED0Ev @2727
    _ZN13FieldFactoryTI20MaxEigenHessianFieldED1Ev @2728
    _ZN13FieldFactoryTI20MaxEigenHessianFieldEclEv @2729
    _ZN13FieldFactoryTI24AttractorAnisoCurveFieldED0Ev @2730
    _ZN13FieldFactoryTI24AttractorAnisoCurveFieldED1Ev @2731
    _ZN13FieldFactoryTI24AttractorAnisoCurveFieldEclEv @2732
    _ZN13FieldFactoryTI8BoxFieldED0Ev @2733
    _ZN13FieldFactoryTI8BoxFieldED1Ev @2734
    _ZN13FieldFactoryTI8BoxFieldEclEv @2735
    _ZN13FieldFactoryTI8MaxFieldED0Ev @2736
    _ZN13FieldFactoryTI8MaxFieldED1Ev @2737
    _ZN13FieldFactoryTI8MaxFieldEclEv @2738
    _ZN13FieldFactoryTI8MinFieldED0Ev @2739
    _ZN13FieldFactoryTI8MinFieldED1Ev @2740
    _ZN13FieldFactoryTI8MinFieldEclEv @2741
    _ZN13FieldFactoryTI9BallFieldED0Ev @2742
    _ZN13FieldFactoryTI9BallFieldED1Ev @2743
    _ZN13FieldFactoryTI9BallFieldEclEv @2744
    _ZN13FieldFactoryTI9MeanFieldED0Ev @2745
    _ZN13FieldFactoryTI9MeanFieldED1Ev @2746
    _ZN13FieldFactoryTI9MeanFieldEclEv @2747
    _ZN13FuncSpaceDataC1EPK8MElementPKb @2748
    _ZN13FuncSpaceDataC1EPK8MElementbiiPKb @2749
    _ZN13FuncSpaceDataC1EPK8MElementiPKb @2750
    _ZN13FuncSpaceDataC1ERKS_iPKb @2751
    _ZN13FuncSpaceDataC1ERKS_iiPKb @2752
    _ZN13FuncSpaceDataC1EbibiiPKbb @2753
    _ZN13FuncSpaceDataC1EbiiPKbb @2754
    _ZN13FuncSpaceDataC1EiPKb @2755
    _ZN13FuncSpaceDataC2EPK8MElementPKb @2756
    _ZN13FuncSpaceDataC2EPK8MElementbiiPKb @2757
    _ZN13FuncSpaceDataC2EPK8MElementiPKb @2758
    _ZN13FuncSpaceDataC2ERKS_iPKb @2759
    _ZN13FuncSpaceDataC2ERKS_iiPKb @2760
    _ZN13FuncSpaceDataC2EbibiiPKbb @2761
    _ZN13FuncSpaceDataC2EbiiPKbb @2762
    _ZN13FuncSpaceDataC2EiPKb @2763
    _ZN13GEO_Internals10_transformEiRKSt6vectorISt4pairIiiESaIS2_EEdddddddddd @2764
    _ZN13GEO_Internals10addBSplineERiRKSt6vectorIiSaIiEE @2765
    _ZN13GEO_Internals10splitCurveEiRKSt6vectorIiSaIiEERS2_ @2766
    _ZN13GEO_Internals11addLineLoopERiRKSt6vectorIiSaIiEE @2767
    _ZN13GEO_Internals11setMeshSizeEiid @2768
    _ZN13GEO_Internals11synchronizeEP6GModel @2769
    _ZN13GEO_Internals12_allocateAllEv @2770
    _ZN13GEO_Internals12addCircleArcERiiiiddd @2771
    _ZN13GEO_Internals12setRecombineEiid @2772
    _ZN13GEO_Internals12setSmoothingEii @2773
    _ZN13GEO_Internals13addEllipseArcERiiiiiddd @2774
    _ZN13GEO_Internals13boundaryLayerERKSt6vectorISt4pairIiiESaIS2_EERS4_P13ExtrudeParams @2775
    _ZN13GEO_Internals13mergeVerticesERKSt6vectorIiSaIiEE @2776
    _ZN13GEO_Internals14addSurfaceLoopERiRKSt6vectorIiSaIiEE @2777
    _ZN13GEO_Internals14setDegeneratedEii @2778
    _ZN13GEO_Internals14setReverseMeshEii @2779
    _ZN13GEO_Internals15addCompoundLineERiRKSt6vectorIiSaIiEE @2780
    _ZN13GEO_Internals15addPlaneSurfaceERiRKSt6vectorIiSaIiEE @2781
    _ZN13GEO_Internals15setCompoundMeshEiRKSt6vectorIiSaIiEE @2782
    _ZN13GEO_Internals17addCompoundVolumeERiRKSt6vectorIiSaIiEE @2783
    _ZN13GEO_Internals17addSurfaceFillingERiRKSt6vectorIiSaIiEEi @2784
    _ZN13GEO_Internals17newGeometrySphereEiii @2785
    _ZN13GEO_Internals17setMaxPhysicalTagEi @2786
    _ZN13GEO_Internals18addCompoundSurfaceERiRKSt6vectorIiSaIiEEPS3_ @2787
    _ZN13GEO_Internals18addDiscreteSurfaceERi @2788
    _ZN13GEO_Internals18setTransfiniteLineEiiid @2789
    _ZN13GEO_Internals19modifyPhysicalGroupEiiiRKSt6vectorIiSaIiEE @2790
    _ZN13GEO_Internals19removeAllDuplicatesEv @2791
    _ZN13GEO_Internals19resetPhysicalGroupsEv @2792
    _ZN13GEO_Internals20setTransfiniteVolumeEiRKSt6vectorIiSaIiEE @2793
    _ZN13GEO_Internals21setTransfiniteSurfaceEiiRKSt6vectorIiSaIiEE @2794
    _ZN13GEO_Internals22newGeometryPolarSphereEiii @2795
    _ZN13GEO_Internals26intersectCurvesWithSurfaceERKSt6vectorIiSaIiEEiRS2_ @2796
    _ZN13GEO_Internals27setTransfiniteVolumeQuadTriEi @2797
    _ZN13GEO_Internals4copyERKSt6vectorISt4pairIiiESaIS2_EERS4_ @2798
    _ZN13GEO_Internals5twistERKSt6vectorISt4pairIiiESaIS2_EEddddddddddRS4_P13ExtrudeParams @2799
    _ZN13GEO_Internals6dilateERKSt6vectorISt4pairIiiESaIS2_EEdddddd @2800
    _ZN13GEO_Internals6removeERKSt6vectorISt4pairIiiESaIS2_EEb @2801
    _ZN13GEO_Internals6removeEiib @2802
    _ZN13GEO_Internals6rotateERKSt6vectorISt4pairIiiESaIS2_EEddddddd @2803
    _ZN13GEO_Internals7addLineERiRKSt6vectorIiSaIiEE @2804
    _ZN13GEO_Internals7addLineERiii @2805
    _ZN13GEO_Internals7destroyEv @2806
    _ZN13GEO_Internals7extrudeERKSt6vectorISt4pairIiiESaIS2_EEdddRS4_P13ExtrudeParams @2807
    _ZN13GEO_Internals7revolveERKSt6vectorISt4pairIiiESaIS2_EEdddddddRS4_P13ExtrudeParams @2808
    _ZN13GEO_Internals8_extrudeEiRKSt6vectorISt4pairIiiESaIS2_EEddddddddddRS4_P13ExtrudeParams @2809
    _ZN13GEO_Internals8_freeAllEv @2810
    _ZN13GEO_Internals8addNurbsERiRKSt6vectorIiSaIiEERKS1_IdSaIdEE @2811
    _ZN13GEO_Internals8symmetryERKSt6vectorISt4pairIiiESaIS2_EEdddd @2812
    _ZN13GEO_Internals9addBezierERiRKSt6vectorIiSaIiEE @2813
    _ZN13GEO_Internals9addSplineERiRKSt6vectorIiSaIiEE @2814
    _ZN13GEO_Internals9addVertexERiddP11gmshSurfaced @2815
    _ZN13GEO_Internals9addVertexERidddd @2816
    _ZN13GEO_Internals9addVolumeERiRKSt6vectorIiSaIiEE @2817
    _ZN13GEO_Internals9getVertexEiRdS0_S0_ @2818
    _ZN13GEO_Internals9setMaxTagEii @2819
    _ZN13GEO_Internals9translateERKSt6vectorISt4pairIiiESaIS2_EEddd @2820
    _ZN13GEdgeCompound10orderEdgesEv @2821
    _ZN13GEdgeCompound11parametrizeEv @2822
    _ZN13GEdgeCompoundC1EP6GModeliRSt6vectorIP5GEdgeSaIS4_EE @2823
    _ZN13GEdgeCompoundC1EP6GModeliRSt6vectorIP5GEdgeSaIS4_EERS2_IiSaIiEE @2824
    _ZN13GEdgeCompoundC2EP6GModeliRSt6vectorIP5GEdgeSaIS4_EE @2825
    _ZN13GEdgeCompoundC2EP6GModeliRSt6vectorIP5GEdgeSaIS4_EERS2_IiSaIiEE @2826
    _ZN13GEdgeCompoundD0Ev @2827
    _ZN13GEdgeCompoundD1Ev @2828
    _ZN13GEdgeCompoundD2Ev @2829
    _ZN13GFaceCompound10deleteMeshEv @2830
    _ZN13GFaceCompoundD0Ev @2831
    _ZN13GFaceCompoundD1Ev @2832
    _ZN13GModelFactory10add3DBlockEP6GModelSt6vectorIdSaIdEEddd @2833
    _ZN13GModelFactory11add2DellipsEP6GModeldddd @2834
    _ZN13GModelFactory11addCylinderEP6GModelSt6vectorIdSaIdEES4_d @2835
    _ZN13GModelFactory12addCircleArcEP6GModelRKNS_17arcCreationMethodEP7GVertexS6_RK7SPoint3 @2836
    _ZN13GModelFactory15addThruSectionsEP6GModelSt6vectorIS2_IP5GEdgeSaIS4_EESaIS6_EE @2837
    _ZN13GModelFactory19computeBooleanUnionEP6GModelS1_i @2838
    _ZN13GModelFactory19setPeriodicAllFacesEP6GModelSt6vectorIdSaIdEE @2839
    _ZN13GModelFactory22setPeriodicPairOfFacesEP6GModeliSt6vectorIiSaIiEEiS4_ @2840
    _ZN13GModelFactory24computeBooleanDifferenceEP6GModelS1_i @2841
    _ZN13GModelFactory26computeBooleanIntersectionEP6GModelS1_i @2842
    _ZN13GModelFactory6filletEP6GModelSt6vectorIiSaIiEEd @2843
    _ZN13GModelFactory6rotateEP6GModelSt6vectorIdSaIdEES4_di @2844
    _ZN13GModelFactory7addConeEP6GModelSt6vectorIdSaIdEES4_dd @2845
    _ZN13GModelFactory7addFaceEP6GModelSt6vectorIP5GEdgeSaIS4_EES2_IS2_IdSaIdEESaIS8_EE @2846
    _ZN13GModelFactory7addPipeEP6GModelP7GEntitySt6vectorIP5GEdgeSaIS6_EE @2847
    _ZN13GModelFactory7extrudeEP6GModelP7GEntitySt6vectorIdSaIdEES6_ @2848
    _ZN13GModelFactory7revolveEP6GModelP7GEntitySt6vectorIdSaIdEES6_d @2849
    _ZN13GModelFactory8addBlockEP6GModelSt6vectorIdSaIdEES4_ @2850
    _ZN13GModelFactory8addNURBSEP6GModelP7GVertexS3_St6vectorIS4_IdSaIdEESaIS6_EES6_S6_S4_IiSaIiEE @2851
    _ZN13GModelFactory8addTorusEP6GModelSt6vectorIdSaIdEES4_dd @2852
    _ZN13GModelFactory9add2DrectEP6GModeldddd @2853
    _ZN13GModelFactory9addSphereEP6GModeldddd @2854
    _ZN13GModelFactory9addSplineEP6GModelRKNS_10splineTypeEP7GVertexS6_St6vectorIS7_IdSaIdEESaIS9_EE @2855
    _ZN13GModelFactory9translateEP6GModelSt6vectorIdSaIdEEi @2856
    _ZN13GenericRegionC1EP6GModelii @2857
    _ZN13GenericRegionC2EP6GModelii @2858
    _ZN13GenericRegionD0Ev @2859
    _ZN13GenericRegionD1Ev @2860
    _ZN13GenericRegionD2Ev @2861
    _ZN13GenericVertex11setPositionER6GPoint @2862
    _ZN13GenericVertex14VertexMeshSizeE @2863 DATA
    _ZN13GenericVertex29setPrescribedMeshSizeAtVertexEd @2864
    _ZN13GenericVertex9VertexXYZE @2865 DATA
    _ZN13GenericVertexC1EP6GModelii @2866
    _ZN13GenericVertexC1EP6GModeliiRKSt6vectorIdSaIdEE @2867
    _ZN13GenericVertexC2EP6GModelii @2868
    _ZN13GenericVertexC2EP6GModeliiRKSt6vectorIdSaIdEE @2869
    _ZN13GenericVertexD0Ev @2870
    _ZN13GenericVertexD1Ev @2871
    _ZN13GenericVertexD2Ev @2872
    _ZN13GradientBasis19mapFromIdealElementEiPA3_d @2873
    _ZN13GradientBasis19mapFromIdealElementEiR10fullMatrixIdES2_S2_ @2874
    _ZN13GradientBasis19mapFromIdealElementEiR10fullVectorIdES2_S2_ @2875
    _ZN13GradientBasisC1E13FuncSpaceData @2876
    _ZN13GradientBasisC2E13FuncSpaceData @2877
    _ZN13GradientField14getDescriptionB5cxx11Ev @2878
    _ZN13GradientField7getNameEv @2879
    _ZN13GradientFieldD0Ev @2880
    _ZN13GradientFieldD1Ev @2881
    _ZN13GradientFieldclEdddP7GEntity @2882
    _ZN13JacobianBasis13jacobianOrderEi @2883
    _ZN13JacobianBasis13jacobianOrderEii @2884
    _ZN13JacobianBasis19jacobianMatrixSpaceEii @2885
    _ZN13JacobianBasisC1E13FuncSpaceData @2886
    _ZN13JacobianBasisC2E13FuncSpaceData @2887
    _ZN13MHexahedron2010getEdgeRepEbiPdS0_S0_P8SVector3 @2888
    _ZN13MHexahedron2010getFaceRepEbiPdS0_S0_P8SVector3 @2889
    _ZN13MHexahedron2012getVertexBDFEi @2890
    _ZN13MHexahedron2012getVertexINPEi @2891
    _ZN13MHexahedron2012getVertexUNVEi @2892
    _ZN13MHexahedron2012getVertexVTKEi @2893
    _ZN13MHexahedron2013getVertexDIFFEi @2894
    _ZN13MHexahedron2014getNumEdgesRepEb @2895
    _ZN13MHexahedron2014getNumFacesRepEb @2896
    _ZN13MHexahedron207reverseEv @2897
    _ZN13MHexahedron209getVertexEi @2898
    _ZN13MHexahedron209setVertexEiP7MVertex @2899
    _ZN13MHexahedron20D0Ev @2900
    _ZN13MHexahedron20D1Ev @2901
    _ZN13MHexahedron2710getEdgeRepEbiPdS0_S0_P8SVector3 @2902
    _ZN13MHexahedron2710getFaceRepEbiPdS0_S0_P8SVector3 @2903
    _ZN13MHexahedron2712getVertexINPEi @2904
    _ZN13MHexahedron2712getVertexVTKEi @2905
    _ZN13MHexahedron2713getVertexDIFFEi @2906
    _ZN13MHexahedron2714getNumEdgesRepEb @2907
    _ZN13MHexahedron2714getNumFacesRepEb @2908
    _ZN13MHexahedron277reverseEv @2909
    _ZN13MHexahedron279getVertexEi @2910
    _ZN13MHexahedron279setVertexEiP7MVertex @2911
    _ZN13MHexahedron27D0Ev @2912
    _ZN13MHexahedron27D1Ev @2913
    _ZN13MTetrahedronN10getEdgeRepEbiPdS0_S0_P8SVector3 @2914
    _ZN13MTetrahedronN10getFaceRepEbiPdS0_S0_P8SVector3 @2915
    _ZN13MTetrahedronN14getNumEdgesRepEb @2916
    _ZN13MTetrahedronN14getNumFacesRepEb @2917
    _ZN13MTetrahedronN25_order2indicesReversedTetE @2918 DATA
    _ZN13MTetrahedronN7reverseEv @2919
    _ZN13MTetrahedronN9getVertexEi @2920
    _ZN13MTetrahedronN9setVertexEiP7MVertex @2921
    _ZN13MTetrahedronNC1ERKSt6vectorIP7MVertexSaIS2_EEcii @2922
    _ZN13MTetrahedronND0Ev @2923
    _ZN13MTetrahedronND1Ev @2924
    _ZN13MathEvalField14getDescriptionB5cxx11Ev @2925
    _ZN13MathEvalField7getNameEv @2926
    _ZN13MathEvalFieldD0Ev @2927
    _ZN13MathEvalFieldD1Ev @2928
    _ZN13MathEvalFieldclEdddP7GEntity @2929
    _ZN13MinAnisoField14getDescriptionB5cxx11Ev @2930
    _ZN13MinAnisoField7getNameEv @2931
    _ZN13MinAnisoFieldD0Ev @2932
    _ZN13MinAnisoFieldD1Ev @2933
    _ZN13MinAnisoFieldclEdddP7GEntity @2934
    _ZN13MinAnisoFieldclEdddR8SMetric3P7GEntity @2935
    _ZN13Nearest_point11init_regionEP7GRegion @2936
    _ZN13Nearest_point11print_fieldEP7GRegion @2937
    _ZN13Nearest_point13print_segmentE7SPoint3S0_RSt14basic_ofstreamIcSt11char_traitsIcEE @2938
    _ZN13Nearest_point1TEddddd @2939
    _ZN13Nearest_point4testEv @2940
    _ZN13Nearest_point5clampEddd @2941
    _ZN13Nearest_point5clearEv @2942
    _ZN13Nearest_point5fieldE @2943 DATA
    _ZN13Nearest_point6searchEdddR8SVector3 @2944
    _ZN13Nearest_point7closestEP8MElement7SPoint3 @2945
    _ZN13Nearest_point7kd_treeE @2946 DATA
    _ZN13Nearest_point8vicinityE @2947 DATA
    _ZN13Nearest_pointC1Ev @2948
    _ZN13Nearest_pointC2Ev @2949
    _ZN13OCC_Internals10addEllipseERiddddddd @2950
    _ZN13OCC_Internals11addCylinderERidddddddd @2951
    _ZN13OCC_Internals11addLineLoopERiRKSt6vectorIiSaIiEE @2952
    _ZN13OCC_Internals11setMeshSizeEiid @2953
    _ZN13OCC_Internals11synchronizeEP6GModel @2954
    _ZN13OCC_Internals12addCircleArcERiiii @2955
    _ZN13OCC_Internals12addRectangleERidddddd @2956
    _ZN13OCC_Internals12importShapesERKNSt7__cxx1112basic_stringIcSt11char_traitsIcESaIcEEEbRSt6vectorISt4pairIiiESaISA_EES7_ @2957
    _ZN13OCC_Internals13addEllipseArcERiiii @2958
    _ZN13OCC_Internals13addThickSolidEiiRKSt6vectorIiSaIiEEdRS0_ISt4pairIiiESaIS6_EE @2959
    _ZN13OCC_Internals13mergeVerticesERKSt6vectorIiSaIiEE @2960
    _ZN13OCC_Internals14addSurfaceLoopERiRKSt6vectorIiSaIiEE @2961
    _ZN13OCC_Internals15addPlaneSurfaceERiRKSt6vectorIiSaIiEE @2962
    _ZN13OCC_Internals15addThruSectionsEiRKSt6vectorIiSaIiEEbbRS0_ISt4pairIiiESaIS6_EE @2963
    _ZN13OCC_Internals15booleanOperatorEiNS_15BooleanOperatorERKSt6vectorISt4pairIiiESaIS3_EES7_RS5_RS1_IS5_SaIS5_EEbb @2964
    _ZN13OCC_Internals17addSurfaceFillingERii @2965
    _ZN13OCC_Internals19removeAllDuplicatesEv @2966
    _ZN13OCC_Internals4copyERKSt6vectorISt4pairIiiESaIS2_EERS4_ @2967
    _ZN13OCC_Internals6_errorENSt7__cxx1112basic_stringIcSt11char_traitsIcESaIcEEE @2968
    _ZN13OCC_Internals6addBoxERidddddd @2969
    _ZN13OCC_Internals6dilateERKSt6vectorISt4pairIiiESaIS2_EEdddddd @2970
    _ZN13OCC_Internals6filletERKSt6vectorIiSaIiEES4_dRS0_ISt4pairIiiESaIS6_EEb @2971
    _ZN13OCC_Internals6removeERKSt6vectorISt4pairIiiESaIS2_EEb @2972
    _ZN13OCC_Internals6rotateERKSt6vectorISt4pairIiiESaIS2_EEddddddd @2973
    _ZN13OCC_Internals7addConeERiddddddddd @2974
    _ZN13OCC_Internals7addDiskERiddddd @2975
    _ZN13OCC_Internals7addLineERiRKSt6vectorIiSaIiEE @2976
    _ZN13OCC_Internals7addPipeERKSt6vectorISt4pairIiiESaIS2_EEiRS4_ @2977
    _ZN13OCC_Internals7addWireERiRKSt6vectorIiSaIiEEb @2978
    _ZN13OCC_Internals7extrudeERKSt6vectorISt4pairIiiESaIS2_EEdddRS4_P13ExtrudeParams @2979
    _ZN13OCC_Internals7revolveERKSt6vectorISt4pairIiiESaIS2_EEdddddddRS4_P13ExtrudeParams @2980
    _ZN13OCC_Internals8addTorusERidddddd @2981
    _ZN13OCC_Internals8addWedgeERiddddddd @2982
    _ZN13OCC_Internals8symmetryERKSt6vectorISt4pairIiiESaIS2_EEdddd @2983
    _ZN13OCC_Internals9addBezierERiRKSt6vectorIiSaIiEE @2984
    _ZN13OCC_Internals9addCircleERidddddd @2985
    _ZN13OCC_Internals9addSphereERiddddddd @2986
    _ZN13OCC_Internals9addSplineERiRKSt6vectorIiSaIiEE @2987
    _ZN13OCC_Internals9addVertexERidddd @2988
    _ZN13OCC_Internals9addVolumeERiRKSt6vectorIiSaIiEE @2989
    _ZN13OCC_Internals9getVertexEiRdS0_S0_ @2990
    _ZN13OCC_Internals9setMaxTagEii @2991
    _ZN13OCC_Internals9translateERKSt6vectorISt4pairIiiESaIS2_EEddd @2992
    _ZN13PViewDataList10_getStringEiiiRNSt7__cxx1112basic_stringIcSt11char_traitsIcESaIcEEERdS7_S7_S7_ @2993
    _ZN13PViewDataList10_stat64i32ERSt6vectorIdSaIdEERS0_IcSaIcEEi @2994
    _ZN13PViewDataList10_stat64i32ERSt6vectorIdSaIdEEiiii @2995
    _ZN13PViewDataList11_getRawDataEiPPSt6vectorIdSaIdEEPPiS5_S5_ @2996
    _ZN13PViewDataList11combineTimeER8nameData @2997
    _ZN13PViewDataList11getNumEdgesEiii @2998
    _ZN13PViewDataList11getNumLinesEi @2999
    _ZN13PViewDataList11getNumNodesEiii @3000
    _ZN13PViewDataList11getString2DEiiRNSt7__cxx1112basic_stringIcSt11char_traitsIcESaIcEEERdS7_S7_ @3001
    _ZN13PViewDataList11getString3DEiiRNSt7__cxx1112basic_stringIcSt11char_traitsIcESaIcEEERdS7_S7_S7_ @3002
    _ZN13PViewDataList11importListsEPiPPSt6vectorIdSaIdEE @3003
    _ZN13PViewDataList11isListBasedEv @3004
    _ZN13PViewDataList12combineSpaceER8nameData @3005
    _ZN13PViewDataList12getDimensionEiii @3006
    _ZN13PViewDataList12getNumPointsEi @3007
    _ZN13PViewDataList12getNumPrismsEi @3008
    _ZN13PViewDataList12getNumValuesEiii @3009
    _ZN13PViewDataList13getMemoryInMbEv @3010
    _ZN13PViewDataList13getNumScalarsEi @3011
    _ZN13PViewDataList13getNumTensorsEi @3012
    _ZN13PViewDataList13getNumVectorsEi @3013
    _ZN13PViewDataList13incrementListEiii @3014
    _ZN13PViewDataList14getBoundingBoxEi @3015
    _ZN13PViewDataList14getNumElementsEii @3016
    _ZN13PViewDataList14getNumEntitiesEi @3017
    _ZN13PViewDataList14getNumPolygonsEi @3018
    _ZN13PViewDataList14getNumPyramidsEi @3019
    _ZN13PViewDataList14getNumTrihedraEi @3020
    _ZN13PViewDataList14reverseElementEiii @3021
    _ZN13PViewDataList14setBoundingBoxER14SBoundingBox3d @3022
    _ZN13PViewDataList15getListPointersEPiPPSt6vectorIdSaIdEE @3023
    _ZN13PViewDataList15getNumHexahedraEi @3024
    _ZN13PViewDataList15getNumPolyhedraEi @3025
    _ZN13PViewDataList15getNumStrings2DEv @3026
    _ZN13PViewDataList15getNumStrings3DEv @3027
    _ZN13PViewDataList15getNumTimeStepsEv @3028
    _ZN13PViewDataList15getNumTrianglesEi @3029
    _ZN13PViewDataList16getNumComponentsEiii @3030
    _ZN13PViewDataList16getNumTetrahedraEi @3031
    _ZN13PViewDataList17getNumQuadranglesEi @3032
    _ZN13PViewDataList5setXYERSt6vectorIdSaIdEES3_ @3033
    _ZN13PViewDataList6getMaxEibiPi @3034
    _ZN13PViewDataList6getMinEibiPi @3035
    _ZN13PViewDataList6setMaxEd @3036
    _ZN13PViewDataList6setMinEd @3037
    _ZN13PViewDataList6smoothEv @3038
    _ZN13PViewDataList7getNodeEiiiiRdS0_S0_ @3039
    _ZN13PViewDataList7getTimeEi @3040
    _ZN13PViewDataList7getTypeEiii @3041
    _ZN13PViewDataList7readPOSEP6_iobufdb @3042
    _ZN13PViewDataList7setNodeEiiiiddd @3043
    _ZN13PViewDataList7setXYZVERSt6vectorIdSaIdEES3_S3_S3_ @3044
    _ZN13PViewDataList8_setLastEi @3045
    _ZN13PViewDataList8_setLastEiiiiiiRSt6vectorIdSaIdEEi @3046
    _ZN13PViewDataList8finalizeEbRKNSt7__cxx1112basic_stringIcSt11char_traitsIcESaIcEEE @3047
    _ZN13PViewDataList8getValueEiiiiRd @3048
    _ZN13PViewDataList8getValueEiiiiiRd @3049
    _ZN13PViewDataList8setValueEiiiiid @3050
    _ZN13PViewDataList8writeMSHERKNSt7__cxx1112basic_stringIcSt11char_traitsIcESaIcEEEdbbbibbb @3051
    _ZN13PViewDataList8writePOSERKNSt7__cxx1112basic_stringIcSt11char_traitsIcESaIcEEEbbb @3052
    _ZN13PViewDataList9setOrder2Ei @3053
    _ZN13PViewDataListC1Eb @3054
    _ZN13PViewDataListC2Eb @3055
    _ZN13PViewDataListD0Ev @3056
    _ZN13PViewDataListD1Ev @3057
    _ZN13PostViewField14getDescriptionB5cxx11Ev @3058
    _ZN13PostViewField7getNameEv @3059
    _ZN13PostViewFieldD0Ev @3060
    _ZN13PostViewFieldD1Ev @3061
    _ZN13PostViewFieldclEdddP7GEntity @3062
    _ZN13PostViewFieldclEdddR8SMetric3P7GEntity @3063
    _ZN13RestrictField14getDescriptionB5cxx11Ev @3064
    _ZN13RestrictField7getNameEv @3065
    _ZN13RestrictFieldC1Ev @3066
    _ZN13RestrictFieldD0Ev @3067
    _ZN13RestrictFieldD1Ev @3068
    _ZN13RestrictFieldclEdddP7GEntity @3069
    _ZN13Supplementary10statisticsEP7GRegion @3070
    _ZN13Supplementary11conformityAE5Prism @3071
    _ZN13Supplementary11conformityAEP7MVertexS1_S1_S1_ @3072
    _ZN13Supplementary11conformityBE5Prism @3073
    _ZN13Supplementary11conformityCE5Prism @3074
    _ZN13Supplementary12build_tuplesEP7GRegion @3075
    _ZN13Supplementary12intersectionERKSt3setIP7MVertexSt4lessIS2_ESaIS2_EES8_RKSt6vectorIS2_S5_ERS6_ @3076
    _ZN13Supplementary13init_markingsEP7GRegion @3077
    _ZN13Supplementary14faces_statuquoE5Prism @3078
    _ZN13Supplementary14faces_statuquoEP7MVertexS1_S1_S1_ @3079
    _ZN13Supplementary15scaled_jacobianEP7MVertexS1_S1_S1_ @3080
    _ZN13Supplementary17build_hash_tableAE5Facet @3081
    _ZN13Supplementary17build_hash_tableAE5Prism @3082
    _ZN13Supplementary17build_hash_tableAEP7MVertexS1_S1_S1_ @3083
    _ZN13Supplementary17build_hash_tableBE5Prism @3084
    _ZN13Supplementary17build_hash_tableBE8Diagonal @3085
    _ZN13Supplementary17build_hash_tableBEP7MVertexS1_S1_S1_ @3086
    _ZN13Supplementary17build_hash_tableCE5Prism @3087
    _ZN13Supplementary17build_hash_tableCE8Diagonal @3088
    _ZN13Supplementary19min_scaled_jacobianE5Prism @3089
    _ZN13Supplementary24build_vertex_to_verticesEP7GRegion @3090
    _ZN13Supplementary24create_quads_on_boundaryEP7GRegion @3091
    _ZN13Supplementary24create_quads_on_boundaryEP7MVertexS1_S1_S1_ @3092
    _ZN13Supplementary26build_vertex_to_tetrahedraEP7GRegion @3093
    _ZN13Supplementary3etaEP7MVertexS1_S1_S1_ @3094
    _ZN13Supplementary3sixEP8MElement @3095
    _ZN13Supplementary4findEP7MVertex5PrismRSt3setIP8MElementSt4lessIS5_ESaIS5_EE @3096
    _ZN13Supplementary4findEP7MVertexS1_RKSt6vectorIS1_SaIS1_EERSt3setIS1_St4lessIS1_ES3_E @3097
    _ZN13Supplementary4fiveEP8MElement @3098
    _ZN13Supplementary4fourEP8MElement @3099
    _ZN13Supplementary5eightEP8MElement @3100
    _ZN13Supplementary5mergeEP7GRegion @3101
    _ZN13Supplementary5validE5Prism @3102
    _ZN13Supplementary5validE5PrismRKSt3setIP8MElementSt4lessIS3_ESaIS3_EE @3103
    _ZN13Supplementary6linkedEP7MVertexS1_ @3104
    _ZN13Supplementary6sliverEP8MElement5Prism @3105
    _ZN13Supplementary7executeEP7GRegion @3106
    _ZN13Supplementary7executeEv @3107
    _ZN13Supplementary7patternEP7GRegion @3108
    _ZN13Supplementary9duplicateE8Diagonal @3109
    _ZN13Supplementary9inclusionE5Facet @3110
    _ZN13Supplementary9inclusionE8Diagonal @3111
    _ZN13Supplementary9inclusionEP7MVertex5Prism @3112
    _ZN13Supplementary9inclusionEP7MVertexS1_S1_RKSt3setIP8MElementSt4lessIS4_ESaIS4_EE @3113
    _ZN13Supplementary9inclusionEP7MVertexS1_S1_S1_S1_ @3114
    _ZN13Supplementary9rearrangeEP7GRegion @3115
    _ZN13SupplementaryC1Ev @3116
    _ZN13SupplementaryC2Ev @3117
    _ZN13SupplementaryD1Ev @3118
    _ZN13SupplementaryD2Ev @3119
    _ZN13VoronoiVertex10get_index1Ev @3120
    _ZN13VoronoiVertex10get_index2Ev @3121
    _ZN13VoronoiVertex10get_index3Ev @3122
    _ZN13VoronoiVertex10get_index4Ev @3123
    _ZN13VoronoiVertex10set_index1Ei @3124
    _ZN13VoronoiVertex10set_index2Ei @3125
    _ZN13VoronoiVertex10set_index3Ei @3126
    _ZN13VoronoiVertex10set_index4Ei @3127
    _ZN13VoronoiVertex11get_normal1Ev @3128
    _ZN13VoronoiVertex11get_normal2Ev @3129
    _ZN13VoronoiVertex11set_normal1E8SVector3 @3130
    _ZN13VoronoiVertex11set_normal2E8SVector3 @3131
    _ZN13VoronoiVertex12get_categoryEv @3132
    _ZN13VoronoiVertex12set_categoryEi @3133
    _ZN13VoronoiVertex5get_hEv @3134
    _ZN13VoronoiVertex5set_hEd @3135
    _ZN13VoronoiVertex9get_pointEv @3136
    _ZN13VoronoiVertex9set_pointE7SPoint3 @3137
    _ZN13VoronoiVertexC1Ev @3138
    _ZN13VoronoiVertexC2Ev @3139
    _ZN13VoronoiVertexD1Ev @3140
    _ZN13VoronoiVertexD2Ev @3141
    _ZN13adaptivePoint10recurErrorEPS_dd @3142
    _ZN13adaptivePoint11allVerticesE @3143 DATA
    _ZN13adaptivePoint11recurCreateEPS_ii @3144
    _ZN13adaptivePoint3allB5cxx11E @3145 DATA
    _ZN13adaptivePoint5errorEdd @3146
    _ZN13adaptivePoint6createEi @3147
    _ZN13adaptivePoint8numEdgesE @3148 DATA
    _ZN13adaptivePoint8numNodesE @3149 DATA
    _ZN13adaptivePrism10recurErrorEPS_dd @3150
    _ZN13adaptivePrism11allVerticesE @3151 DATA
    _ZN13adaptivePrism11recurCreateEPS_ii @3152
    _ZN13adaptivePrism3allB5cxx11E @3153 DATA
    _ZN13adaptivePrism5errorEdd @3154
    _ZN13adaptivePrism6createEi @3155
    _ZN13adaptivePrism8numEdgesE @3156 DATA
    _ZN13adaptivePrism8numNodesE @3157 DATA
    _ZN13bidimMeshDataD1Ev @3158
    _ZN13deMeshGRegionclEP7GRegion @3159
    _ZN13gLevelsetConeC1EPKdS1_RS0_i @3160
    _ZN13gLevelsetConeC1ERKS_ @3161
    _ZN13gLevelsetConeC2EPKdS1_RS0_i @3162
    _ZN13gLevelsetConeC2ERKS_ @3163
    _ZN13gLevelsetConeD0Ev @3164
    _ZN13gLevelsetConeD1Ev @3165
    _ZN13gLevelsetYarnC1Eiiddii @3166
    _ZN13gLevelsetYarnC2Eiiddii @3167
    _ZN13gLevelsetYarnD0Ev @3168
    _ZN13gLevelsetYarnD1Ev @3169
    _ZN13globalVTKData15vtkGlobalCoordsE @3170 DATA
    _ZN13globalVTKData15vtkGlobalValuesE @3171 DATA
    _ZN13globalVTKData17vtkGlobalCellTypeE @3172 DATA
    _ZN13globalVTKData21vtkGlobalConnectivityE @3173 DATA
    _ZN13gmsh_yysymbolC1ERKS_ @3174
    _ZN13gmsh_yysymbolC1Ev @3175
    _ZN13gmsh_yysymbolD1Ev @3176
    _ZN13initMeshGFaceclEP5GFace @3177
    _ZN13qmTetrahedron2qmEP12MTetrahedronRKNS_8MeasuresEPd @3178
    _ZN13qmTetrahedron2qmEPK7MVertexS2_S2_S2_RKNS_8MeasuresEPd @3179
    _ZN13qmTetrahedron2qmERKdS1_S1_S1_S1_S1_S1_S1_S1_S1_S1_S1_RKNS_8MeasuresEPd @3180
    _ZN13qmTetrahedron3etaERKdS1_S1_S1_S1_S1_S1_S1_S1_S1_S1_S1_Pd @3181
    _ZN13qmTetrahedron4condERKdS1_S1_S1_S1_S1_S1_S1_S1_S1_S1_S1_Pd @3182
    _ZN13qmTetrahedron5gammaERKdS1_S1_S1_S1_S1_S1_S1_S1_S1_S1_S1_Pd @3183
    _ZN14AttractorField14getDescriptionB5cxx11Ev @3184
    _ZN14AttractorField6updateEv @3185
    _ZN14AttractorField7getNameEv @3186
    _ZN14AttractorFieldC1Ev @3187
    _ZN14AttractorFieldD0Ev @3188
    _ZN14AttractorFieldD1Ev @3189
    _ZN14AttractorFieldclEdddP7GEntity @3190
    _ZN14BDS_GeomEntityC1Eii @3191
    _ZN14BDS_GeomEntityD1Ev @3192
    _ZN14CurvatureField14getDescriptionB5cxx11Ev @3193
    _ZN14CurvatureField7getNameEv @3194
    _ZN14CurvatureField9grad_normER5FielddddPd @3195
    _ZN14CurvatureFieldD0Ev @3196
    _ZN14CurvatureFieldD1Ev @3197
    _ZN14CurvatureFieldclEdddP7GEntity @3198
    _ZN14FieldOptionInt14numericalValueEd @3199
    _ZN14FieldOptionInt21getTextRepresentationERNSt7__cxx1112basic_stringIcSt11char_traitsIcESaIcEEE @3200
    _ZN14FieldOptionInt7getTypeEv @3201
    _ZN14FieldOptionIntD0Ev @3202
    _ZN14FieldOptionIntD1Ev @3203
    _ZN14LaplacianField14getDescriptionB5cxx11Ev @3204
    _ZN14LaplacianField7getNameEv @3205
    _ZN14LaplacianFieldD0Ev @3206
    _ZN14LaplacianFieldD1Ev @3207
    _ZN14LaplacianFieldclEdddP7GEntity @3208
    _ZN14LinearSeamEdgeC1EP6GModeliP7GVertexS3_ @3209
    _ZN14LinearSeamEdgeC2EP6GModeliP7GVertexS3_ @3210
    _ZN14LinearSeamEdgeD0Ev @3211
    _ZN14LinearSeamEdgeD1Ev @3212
    _ZN14LinearSeamEdgeD2Ev @3213
    _ZN14MElementOctree7findAllEdddib @3214
    _ZN14MElementOctreeC1EP6GModel @3215
    _ZN14MElementOctreeC1ERKSt6vectorIP8MElementSaIS2_EE @3216
    _ZN14MElementOctreeC2EP6GModel @3217
    _ZN14MElementOctreeC2ERKSt6vectorIP8MElementSaIS2_EE @3218
    _ZN14MElementOctreeD1Ev @3219
    _ZN14MElementOctreeD2Ev @3220
    _ZN14MPolygonBorder9setDomainEP8MElementi @3221
    _ZN14MPolygonBorderD0Ev @3222
    _ZN14MPolygonBorderD1Ev @3223
    _ZN14MTetrahedron1010getEdgeRepEbiPdS0_S0_P8SVector3 @3224
    _ZN14MTetrahedron1010getFaceRepEbiPdS0_S0_P8SVector3 @3225
    _ZN14MTetrahedron1012getVertexBDFEi @3226
    _ZN14MTetrahedron1012getVertexINPEi @3227
    _ZN14MTetrahedron1012getVertexUNVEi @3228
    _ZN14MTetrahedron1012getVertexVTKEi @3229
    _ZN14MTetrahedron1013getVertexDIFFEi @3230
    _ZN14MTetrahedron1014getNumEdgesRepEb @3231
    _ZN14MTetrahedron1014getNumFacesRepEb @3232
    _ZN14MTetrahedron107reverseEv @3233
    _ZN14MTetrahedron109getVertexEi @3234
    _ZN14MTetrahedron109setVertexEiP7MVertex @3235
    _ZN14MTetrahedron10D0Ev @3236
    _ZN14MTetrahedron10D1Ev @3237
    _ZN14PViewEvaluatorD0Ev @3238
    _ZN14PViewEvaluatorD1Ev @3239
    _ZN14SBoundingBox3d5emptyEv @3240
    _ZN14SBoundingBox3dC1ERKS_ @3241
    _ZN14SBoundingBox3dC1Edddddd @3242
    _ZN14SBoundingBox3dC1Ev @3243
    _ZN14SBoundingBox3dD1Ev @3244
    _ZN14SBoundingBox3daSEOS_ @3245
    _ZN14ThresholdField14getDescriptionB5cxx11Ev @3246
    _ZN14ThresholdField7getNameEv @3247
    _ZN14ThresholdFieldC1Ev @3248
    _ZN14ThresholdFieldD0Ev @3249
    _ZN14ThresholdFieldD1Ev @3250
    _ZN14ThresholdFieldclEdddP7GEntity @3251
    _ZN14VoronoiElement10get_tensorEv @3252
    _ZN14VoronoiElement10set_tensorE6Tensor @3253
    _ZN14VoronoiElement11get_qualityEv @3254
    _ZN14VoronoiElement12get_jacobianEv @3255
    _ZN14VoronoiElement16compute_jacobianEv @3256
    _ZN14VoronoiElement1TEddddddd @3257
    _ZN14VoronoiElement4swapEv @3258
    _ZN14VoronoiElement5get_hEddd @3259
    _ZN14VoronoiElement6get_v1Ev @3260
    _ZN14VoronoiElement6get_v2Ev @3261
    _ZN14VoronoiElement6get_v3Ev @3262
    _ZN14VoronoiElement6get_v4Ev @3263
    _ZN14VoronoiElement6set_v1E13VoronoiVertex @3264
    _ZN14VoronoiElement6set_v2E13VoronoiVertex @3265
    _ZN14VoronoiElement6set_v3E13VoronoiVertex @3266
    _ZN14VoronoiElement6set_v4E13VoronoiVertex @3267
    _ZN14VoronoiElement7deriv_hEv @3268
    _ZN14VoronoiElement9get_dh_dxEv @3269
    _ZN14VoronoiElement9get_dh_dyEv @3270
    _ZN14VoronoiElement9get_dh_dzEv @3271
    _ZN14VoronoiElementC1Ev @3272
    _ZN14VoronoiElementC2Ev @3273
    _ZN14VoronoiElementD1Ev @3274
    _ZN14VoronoiElementD2Ev @3275
    _ZN14adaptiveVertex3addEdddRSt3setIS_St4lessIS_ESaIS_EE @3276
    _ZN14backgroundMesh10get_octreeEv @3277
    _ZN14backgroundMesh11updateSizesEP5GFace @3278
    _ZN14backgroundMesh13getSmoothnessEP8MElement @3279
    _ZN14backgroundMesh13getSmoothnessEddd @3280
    _ZN14backgroundMesh15propagate1dMeshEP5GFace @3281
    _ZN14backgroundMesh19propagateCrossFieldEP5GFace @3282
    _ZN14backgroundMesh19propagateCrossFieldEP5GFaceP14simpleFunctionIdE @3283
    _ZN14backgroundMesh21getMeshElementByCoordEdddb @3284
    _ZN14backgroundMesh21propagateCrossFieldHJEP5GFace @3285
    _ZN14backgroundMesh24setCrossFieldsByDistanceEP5GFace @3286
    _ZN14backgroundMesh29propagateCrossFieldByDistanceEP5GFace @3287
    _ZN14backgroundMesh3setEP5GFace @3288
    _ZN14backgroundMesh5printERKNSt7__cxx1112basic_stringIcSt11char_traitsIcESaIcEEEP5GFaceRKSt3mapIP7MVertexdSt4lessISC_ESaISt4pairIKSC_dEEEi @3289
    _ZN14backgroundMesh5unsetEv @3290
    _ZN14backgroundMesh8_currentE @3291 DATA
    _ZN14backgroundMeshC1EP5GFaceb @3292
    _ZN14backgroundMeshC2EP5GFaceb @3293
    _ZN14backgroundMeshD0Ev @3294
    _ZN14backgroundMeshD1Ev @3295
    _ZN14backgroundMeshD2Ev @3296
    _ZN14discreteRegion13setBoundFacesERKSt3setIiSt4lessIiESaIiEE @3297
    _ZN14discreteRegion13setBoundFacesERKSt6vectorIiSaIiEES4_ @3298
    _ZN14discreteRegion6remeshEv @3299
    _ZN14discreteRegion9findFacesERSt3mapI5MFaceSt6vectorIiSaIiEE9Less_FaceSaISt4pairIKS1_S4_EEE @3300
    _ZN14discreteRegionC1EP6GModeli @3301
    _ZN14discreteRegionC2EP6GModeli @3302
    _ZN14discreteRegionD0Ev @3303
    _ZN14discreteRegionD1Ev @3304
    _ZN14discreteVertexD0Ev @3305
    _ZN14discreteVertexD1Ev @3306
    _ZN14gLevelsetCrackC1ESt6vectorIP9gLevelsetSaIS2_EEbi @3307
    _ZN14gLevelsetCrackD0Ev @3308
    _ZN14gLevelsetCrackD1Ev @3309
    _ZN14gLevelsetPlaneC1EPKdS1_S1_i @3310
    _ZN14gLevelsetPlaneC1EPKdS1_i @3311
    _ZN14gLevelsetPlaneC1ERKS_ @3312
    _ZN14gLevelsetPlaneC1ERKSt6vectorIdSaIdEES4_i @3313
    _ZN14gLevelsetPlaneC1Eddddi @3314
    _ZN14gLevelsetPlaneC2EPKdS1_S1_i @3315
    _ZN14gLevelsetPlaneC2EPKdS1_i @3316
    _ZN14gLevelsetPlaneC2ERKS_ @3317
    _ZN14gLevelsetPlaneC2ERKSt6vectorIdSaIdEES4_i @3318
    _ZN14gLevelsetPlaneD0Ev @3319
    _ZN14gLevelsetPlaneD1Ev @3320
    _ZN14gLevelsetToolsC1ERKS_ @3321
    _ZN14gLevelsetToolsC2ERKS_ @3322
    _ZN14gLevelsetToolsC2ERKSt6vectorIP9gLevelsetSaIS2_EEbi @3323
    _ZN14gLevelsetToolsC2Ei @3324
    _ZN14gLevelsetToolsD2Ev @3325
    _ZN14gLevelsetUnionC1ERKS_ @3326
    _ZN14gLevelsetUnionC1ESt6vectorIP9gLevelsetSaIS2_EEbi @3327
    _ZN14gLevelsetUnionD0Ev @3328
    _ZN14gLevelsetUnionD1Ev @3329
    _ZN14pyramidalBasisC1Ei @3330
    _ZN14pyramidalBasisC2Ei @3331
    _ZN14pyramidalBasisD0Ev @3332
    _ZN14pyramidalBasisD1Ev @3333
    _ZN14pyramidalBasisD2Ev @3334
    _ZN14simpleFunctionIdE14hasDerivativesEv @3335
    _ZN14simpleFunctionIdEC2Ed @3336
    _ZN14simpleFunctionIdED0Ev @3337
    _ZN14simpleFunctionIdED1Ev @3338
    _ZN14simpleFunctionIdED2Ev @3339
    _ZN14smooth_normals3addEdddddd @3340
    _ZN14smooth_normals3getEdddRdS0_S0_ @3341
    _ZN15CorrespVertices10getdistP2PEv @3342
    _ZN15CorrespVertices10setdistP2PEd @3343
    _ZN15CorrespVertices11getEndPointEv @3344
    _ZN15CorrespVertices11getIsMasterEv @3345
    _ZN15CorrespVertices11setEndPointE7SPoint3 @3346
    _ZN15CorrespVertices11setIsMasterEb @3347
    _ZN15CorrespVertices12getEndNormalEv @3348
    _ZN15CorrespVertices12getTagMasterEv @3349
    _ZN15CorrespVertices12getangleProdEv @3350
    _ZN15CorrespVertices12setEndNormalE8SVector3 @3351
    _ZN15CorrespVertices12setTagMasterEi @3352
    _ZN15CorrespVertices12setangleProdEd @3353
    _ZN15CorrespVertices13getStartPointEv @3354
    _ZN15CorrespVertices13setStartPointEP7MVertex @3355
    _ZN15CorrespVertices14getEndTriangleEv @3356
    _ZN15CorrespVertices14getStartNormalEv @3357
    _ZN15CorrespVertices14setEndTriangleE8faceXtet @3358
    _ZN15CorrespVertices14setStartNormalE8SVector3 @3359
    _ZN15CorrespVertices20getEndTriangleActiveEv @3360
    _ZN15CorrespVertices20setEndTriangleActiveEb @3361
    _ZN15CorrespVertices9getActiveEv @3362
    _ZN15CorrespVertices9setActiveEb @3363
    _ZN15CorrespVerticesC1Ev @3364
    _ZN15CorrespVerticesC2Ev @3365
    _ZN15CorrespVerticesD1Ev @3366
    _ZN15CorrespVerticesD2Ev @3367
    _ZN15FieldOptionBool14numericalValueEd @3368
    _ZN15FieldOptionBool21getTextRepresentationERNSt7__cxx1112basic_stringIcSt11char_traitsIcESaIcEEE @3369
    _ZN15FieldOptionBool7getTypeEv @3370
    _ZN15FieldOptionBoolD0Ev @3371
    _ZN15FieldOptionBoolD1Ev @3372
    _ZN15FieldOptionList21getTextRepresentationERNSt7__cxx1112basic_stringIcSt11char_traitsIcESaIcEEE @3373
    _ZN15FieldOptionList4listENSt7__cxx114listIiSaIiEEE @3374
    _ZN15FieldOptionList7getTypeEv @3375
    _ZN15FieldOptionListD0Ev @3376
    _ZN15FieldOptionListD1Ev @3377
    _ZN15FieldOptionPath7getTypeEv @3378
    _ZN15FieldOptionPathD0Ev @3379
    _ZN15FieldOptionPathD1Ev @3380
    _ZN15FunctionManager13leaveFunctionEPP6_iobufRNSt7__cxx1112basic_stringIcSt11char_traitsIcESaIcEEERi @3381
    _ZN15FunctionManager14createFunctionERKNSt7__cxx1112basic_stringIcSt11char_traitsIcESaIcEEEP6_iobufS7_i @3382
    _ZN15FunctionManager5clearEv @3383
    _ZN15FunctionManager8InstanceEv @3384
    _ZN15FunctionManager8instanceE @3385 DATA
    _ZN15FunctionManagerC1Ev @3386
    _ZN15FunctionManagerC2Ev @3387
    _ZN15GRegionCompound16getBoundingFacesEv @3388
    _ZN15GRegionCompoundC1EP6GModeliRSt6vectorIP7GRegionSaIS4_EE @3389
    _ZN15GRegionCompoundC2EP6GModeliRSt6vectorIP7GRegionSaIS4_EE @3390
    _ZN15GRegionCompoundD0Ev @3391
    _ZN15GRegionCompoundD1Ev @3392
    _ZN15GRegionCompoundD2Ev @3393
    _ZN15GeomMeshMatcher10matchEdgesEP6GModelS1_PSt6vectorI4PairIP7GVertexS5_ESaIS6_EERb @3394
    _ZN15GeomMeshMatcher10matchFacesEP6GModelS1_PSt6vectorI4PairIP5GEdgeS5_ESaIS6_EERb @3395
    _ZN15GeomMeshMatcher12forceTomatchEP6GModelS1_d @3396
    _ZN15GeomMeshMatcher12matchRegionsEP6GModelS1_PSt6vectorI4PairIP5GFaceS5_ESaIS6_EERb @3397
    _ZN15GeomMeshMatcher13_gmm_instanceE @3398 DATA
    _ZN15GeomMeshMatcher13matchVerticesEP6GModelS1_Rb @3399
    _ZN15GeomMeshMatcher5matchEP6GModelS1_ @3400
    _ZN15GeomMeshMatcher7destroyEv @3401
    _ZN15GeomMeshMatcher8instanceEv @3402
    _ZN15MElementFactory6createEiRSt6vectorIP7MVertexSaIS2_EEiibiP8MElementS7_S7_ @3403
    _ZN15MElementFactory6createEiiRKSt6vectorIiSaIiEEP6GModel @3404
    _ZN15MSubTetrahedron12updateParentEP6GModel @3405
    _ZN15MSubTetrahedron14getBaseElementEv @3406
    _ZN15MSubTetrahedron14setMultiParentERSt6vectorIP8MElementSaIS2_EEb @3407
    _ZN15MSubTetrahedron20getIntegrationPointsEiPiPP5IntPt @3408
    _ZN15MSubTetrahedron20getShapeFunctionNodeEi @3409
    _ZN15MSubTetrahedron9setParentEP8MElementb @3410
    _ZN15MSubTetrahedronD0Ev @3411
    _ZN15MSubTetrahedronD1Ev @3412
    _ZN15MSubTetrahedronD2Ev @3413
    _ZN15MTriangleBorder20getIntegrationPointsEiPiPP5IntPt @3414
    _ZN15MTriangleBorder9setDomainEP8MElementi @3415
    _ZN15MTriangleBorderD0Ev @3416
    _ZN15MTriangleBorderD1Ev @3417
    _ZN15PViewDataGModel10getElementEiii @3418
    _ZN15PViewDataGModel10isNodeDataEv @3419
    _ZN15PViewDataGModel10skipEntityEii @3420
    _ZN15PViewDataGModel11_getElementEiii @3421
    _ZN15PViewDataGModel11combineTimeER8nameData @3422
    _ZN15PViewDataGModel11destroyDataEv @3423
    _ZN15PViewDataGModel11getFileNameB5cxx11Ei @3424
    _ZN15PViewDataGModel11getNumEdgesEiii @3425
    _ZN15PViewDataGModel11getNumLinesEi @3426
    _ZN15PViewDataGModel11getNumNodesEiii @3427
    _ZN15PViewDataGModel11hasTimeStepEi @3428
    _ZN15PViewDataGModel11importListsEPiPPSt6vectorIdSaIdEE @3429
    _ZN15PViewDataGModel11skipElementEiiibi @3430
    _ZN15PViewDataGModel12getDimensionEiii @3431
    _ZN15PViewDataGModel12getNumPointsEi @3432
    _ZN15PViewDataGModel12getNumPrismsEi @3433
    _ZN15PViewDataGModel12getNumValuesEiii @3434
    _ZN15PViewDataGModel12hasPartitionEii @3435
    _ZN15PViewDataGModel13getMemoryInMbEv @3436
    _ZN15PViewDataGModel13getNumScalarsEi @3437
    _ZN15PViewDataGModel13getNumTensorsEi @3438
    _ZN15PViewDataGModel13getNumVectorsEi @3439
    _ZN15PViewDataGModel14getBoundingBoxEi @3440
    _ZN15PViewDataGModel14getNumElementsEii @3441
    _ZN15PViewDataGModel14getNumEntitiesEi @3442
    _ZN15PViewDataGModel14getNumPolygonsEi @3443
    _ZN15PViewDataGModel14getNumPyramidsEi @3444
    _ZN15PViewDataGModel14getNumTrihedraEi @3445
    _ZN15PViewDataGModel14reverseElementEiii @3446
    _ZN15PViewDataGModel14setBoundingBoxER14SBoundingBox3d @3447
    _ZN15PViewDataGModel14useGaussPointsEv @3448
    _ZN15PViewDataGModel15getNumHexahedraEi @3449
    _ZN15PViewDataGModel15getNumPolyhedraEi @3450
    _ZN15PViewDataGModel15getNumTimeStepsEv @3451
    _ZN15PViewDataGModel15getNumTrianglesEi @3452
    _ZN15PViewDataGModel15getValueByIndexEiiiiRd @3453
    _ZN15PViewDataGModel16getNumComponentsEiii @3454
    _ZN15PViewDataGModel16getNumTetrahedraEi @3455
    _ZN15PViewDataGModel17getNumQuadranglesEi @3456
    _ZN15PViewDataGModel17hasMultipleMeshesEv @3457
    _ZN15PViewDataGModel24getFirstNonEmptyTimeStepEi @3458
    _ZN15PViewDataGModel6getMaxEibiPi @3459
    _ZN15PViewDataGModel6getMinEibiPi @3460
    _ZN15PViewDataGModel6setMaxEd @3461
    _ZN15PViewDataGModel6setMinEd @3462
    _ZN15PViewDataGModel6smoothEv @3463
    _ZN15PViewDataGModel7addDataEP6GModelRSt3mapIiSt6vectorIdSaIdEESt4lessIiESaISt4pairIKiS5_EEEidii @3464
    _ZN15PViewDataGModel7getNodeEiiiiRdS0_S0_ @3465
    _ZN15PViewDataGModel7getTimeEi @3466
    _ZN15PViewDataGModel7getTypeEiii @3467
    _ZN15PViewDataGModel7readMEDERKNSt7__cxx1112basic_stringIcSt11char_traitsIcESaIcEEEi @3468
    _ZN15PViewDataGModel7readMSHERKNSt7__cxx1112basic_stringIcSt11char_traitsIcESaIcEEES7_iP6_iobufbbidiiiS7_ @3469
    _ZN15PViewDataGModel7setNodeEiiiiddd @3470
    _ZN15PViewDataGModel7tagNodeEiiiii @3471
    _ZN15PViewDataGModel8_getNodeEP8MElementi @3472
    _ZN15PViewDataGModel8finalizeEbRKNSt7__cxx1112basic_stringIcSt11char_traitsIcESaIcEEE @3473
    _ZN15PViewDataGModel8getModelEi @3474
    _ZN15PViewDataGModel8getValueEiiiiRd @3475
    _ZN15PViewDataGModel8getValueEiiiiiRd @3476
    _ZN15PViewDataGModel8hasModelEP6GModeli @3477
    _ZN15PViewDataGModel8setValueEiiiiid @3478
    _ZN15PViewDataGModel8writeMEDERKNSt7__cxx1112basic_stringIcSt11char_traitsIcESaIcEEE @3479
    _ZN15PViewDataGModel8writeMSHERKNSt7__cxx1112basic_stringIcSt11char_traitsIcESaIcEEEdbbbibbb @3480
    _ZN15PViewDataGModel9getEntityEii @3481
    _ZN15PViewDataGModelC1ENS_8DataTypeE @3482
    _ZN15PViewDataGModelC2ENS_8DataTypeE @3483
    _ZN15PViewDataGModelD0Ev @3484
    _ZN15PViewDataGModelD1Ev @3485
    _ZN15PViewDataGModelD2Ev @3486
    _ZN15PViewDataRemote14getBoundingBoxEi @3487
    _ZN15PViewDataRemote14getNumElementsEii @3488
    _ZN15PViewDataRemote14setBoundingBoxER14SBoundingBox3d @3489
    _ZN15PViewDataRemote15getNumTimeStepsEv @3490
    _ZN15PViewDataRemote22fillRemoteVertexArraysERNSt7__cxx1112basic_stringIcSt11char_traitsIcESaIcEEE @3491
    _ZN15PViewDataRemote6getMaxEibiPi @3492
    _ZN15PViewDataRemote6getMinEibiPi @3493
    _ZN15PViewDataRemote6setMaxEd @3494
    _ZN15PViewDataRemote6setMinEd @3495
    _ZN15PViewDataRemote7getTimeEi @3496
    _ZN15PViewDataRemote8finalizeEbRKNSt7__cxx1112basic_stringIcSt11char_traitsIcESaIcEEE @3497
    _ZN15PViewDataRemote8isRemoteEv @3498
    _ZN15PViewDataRemoteD0Ev @3499
    _ZN15PViewDataRemoteD1Ev @3500
    _ZN15ParametricField14getDescriptionB5cxx11Ev @3501
    _ZN15ParametricField7getNameEv @3502
    _ZN15ParametricFieldC1Ev @3503
    _ZN15ParametricFieldD0Ev @3504
    _ZN15ParametricFieldD1Ev @3505
    _ZN15ParametricFieldclEdddP7GEntity @3506
    _ZN15StructuredField14getDescriptionB5cxx11Ev @3507
    _ZN15StructuredField7getNameEv @3508
    _ZN15StructuredFieldC1Ev @3509
    _ZN15StructuredFieldD0Ev @3510
    _ZN15StructuredFieldD1Ev @3511
    _ZN15StructuredFieldclEdddP7GEntity @3512
    _ZN15adaptivePyramid10recurErrorEPS_dd @3513
    _ZN15adaptivePyramid11allVerticesE @3514 DATA
    _ZN15adaptivePyramid11recurCreateEPS_ii @3515
    _ZN15adaptivePyramid3allB5cxx11E @3516 DATA
    _ZN15adaptivePyramid5errorEdd @3517
    _ZN15adaptivePyramid6createEi @3518
    _ZN15adaptivePyramid8numEdgesE @3519 DATA
    _ZN15adaptivePyramid8numNodesE @3520 DATA
    _ZN15gLevelsetConrodC1EPKdS1_S1_RS0_S2_S2_S2_S2_S2_S2_S2_S2_S2_i @3521
    _ZN15gLevelsetConrodC1ERKS_ @3522
    _ZN15gLevelsetConrodC2EPKdS1_S1_RS0_S2_S2_S2_S2_S2_S2_S2_S2_S2_i @3523
    _ZN15gLevelsetConrodC2ERKS_ @3524
    _ZN15gLevelsetConrodD0Ev @3525
    _ZN15gLevelsetConrodD1Ev @3526
    _ZN15gLevelsetNACA00C1Edddd @3527
    _ZN15gLevelsetNACA00C2Edddd @3528
    _ZN15gLevelsetNACA00D0Ev @3529
    _ZN15gLevelsetNACA00D1Ev @3530
    _ZN15gLevelsetPoints15setup_level_setERK10fullMatrixIdERS1_S4_ @3531
    _ZN15gLevelsetPoints9computeLSERSt6vectorIP7MVertexSaIS2_EE @3532
    _ZN15gLevelsetPointsC1ER10fullMatrixIdEi @3533
    _ZN15gLevelsetPointsC1ERKS_ @3534
    _ZN15gLevelsetPointsC2ER10fullMatrixIdEi @3535
    _ZN15gLevelsetPointsC2ERKS_ @3536
    _ZN15gLevelsetPointsD0Ev @3537
    _ZN15gLevelsetPointsD1Ev @3538
    _ZN15gLevelsetSphereC1ERKdS1_S1_S1_i @3539
    _ZN15gLevelsetSphereC2ERKdS1_S1_S1_i @3540
    _ZN15gLevelsetSphereD0Ev @3541
    _ZN15gLevelsetSphereD1Ev @3542
    _ZN15gmshPolarSphere14NewPolarSphereEidddd @3543
    _ZN15gmshPolarSphere19getMetricEigenvalueERK7SPoint2 @3544
    _ZN15gmshPolarSphereC1Edddd @3545
    _ZN15gmshPolarSphereC2Edddd @3546
    _ZN15gmshPolarSphereD0Ev @3547
    _ZN15gmshPolarSphereD1Ev @3548
    _ZN15initMeshGRegionclEP7GRegion @3549
    _ZN15orientMeshGEdgeclEP5GEdge @3550
    _ZN15orientMeshGFaceclEP5GFace @3551
    _ZN15polynomialBasisC1Ei @3552
    _ZN15polynomialBasisC2Ei @3553
    _ZN15polynomialBasisD0Ev @3554
    _ZN15polynomialBasisD1Ev @3555
    _ZN15polynomialBasisD2Ev @3556
    _ZN16BDS_SwapEdgeTestC2Ev @3557
    _ZN16BDS_SwapEdgeTestD2Ev @3558
    _ZN16adaptMeshGRegionclEP7GRegion @3559
    _ZN16adaptiveElementsI12adaptiveLineE4initEi @3560
    _ZN16adaptiveElementsI12adaptiveLineE5adaptEdiRSt6vectorI7PCoordsSaIS3_EERS2_I7PValuesSaIS7_EERdSB_P15GMSH_PostPluginb @3561
    _ZN16adaptiveElementsI12adaptiveLineE9addInViewEdiP9PViewDataP13PViewDataListP15GMSH_PostPlugin @3562
    _ZN16adaptiveElementsI13adaptivePointE4initEi @3563
    _ZN16adaptiveElementsI13adaptivePointE5adaptEdiRSt6vectorI7PCoordsSaIS3_EERS2_I7PValuesSaIS7_EERdSB_P15GMSH_PostPluginb @3564
    _ZN16adaptiveElementsI13adaptivePointE9addInViewEdiP9PViewDataP13PViewDataListP15GMSH_PostPlugin @3565
    _ZN16adaptiveElementsI13adaptivePrismE11adaptForVTKEdiRSt6vectorI7PCoordsSaIS3_EERS2_I7PValuesSaIS7_EERdSB_ @3566
    _ZN16adaptiveElementsI13adaptivePrismE15addInViewForVTKEiP9PViewDataR7VTKDatabb @3567
    _ZN16adaptiveElementsI13adaptivePrismE4initEi @3568
    _ZN16adaptiveElementsI13adaptivePrismE5adaptEdiRSt6vectorI7PCoordsSaIS3_EERS2_I7PValuesSaIS7_EERdSB_P15GMSH_PostPluginb @3569
    _ZN16adaptiveElementsI13adaptivePrismE9addInViewEdiP9PViewDataP13PViewDataListP15GMSH_PostPlugin @3570
    _ZN16adaptiveElementsI15adaptivePyramidE11adaptForVTKEdiRSt6vectorI7PCoordsSaIS3_EERS2_I7PValuesSaIS7_EERdSB_ @3571
    _ZN16adaptiveElementsI15adaptivePyramidE15addInViewForVTKEiP9PViewDataR7VTKDatabb @3572
    _ZN16adaptiveElementsI15adaptivePyramidE4initEi @3573
    _ZN16adaptiveElementsI15adaptivePyramidE5adaptEdiRSt6vectorI7PCoordsSaIS3_EERS2_I7PValuesSaIS7_EERdSB_P15GMSH_PostPluginb @3574
    _ZN16adaptiveElementsI15adaptivePyramidE9addInViewEdiP9PViewDataP13PViewDataListP15GMSH_PostPlugin @3575
    _ZN16adaptiveElementsI16adaptiveTriangleE11adaptForVTKEdiRSt6vectorI7PCoordsSaIS3_EERS2_I7PValuesSaIS7_EERdSB_ @3576
    _ZN16adaptiveElementsI16adaptiveTriangleE15addInViewForVTKEiP9PViewDataR7VTKDatabb @3577
    _ZN16adaptiveElementsI16adaptiveTriangleE4initEi @3578
    _ZN16adaptiveElementsI16adaptiveTriangleE5adaptEdiRSt6vectorI7PCoordsSaIS3_EERS2_I7PValuesSaIS7_EERdSB_P15GMSH_PostPluginb @3579
    _ZN16adaptiveElementsI16adaptiveTriangleE9addInViewEdiP9PViewDataP13PViewDataListP15GMSH_PostPlugin @3580
    _ZN16adaptiveElementsI18adaptiveHexahedronE11adaptForVTKEdiRSt6vectorI7PCoordsSaIS3_EERS2_I7PValuesSaIS7_EERdSB_ @3581
    _ZN16adaptiveElementsI18adaptiveHexahedronE15addInViewForVTKEiP9PViewDataR7VTKDatabb @3582
    _ZN16adaptiveElementsI18adaptiveHexahedronE4initEi @3583
    _ZN16adaptiveElementsI18adaptiveHexahedronE5adaptEdiRSt6vectorI7PCoordsSaIS3_EERS2_I7PValuesSaIS7_EERdSB_P15GMSH_PostPluginb @3584
    _ZN16adaptiveElementsI18adaptiveHexahedronE9addInViewEdiP9PViewDataP13PViewDataListP15GMSH_PostPlugin @3585
    _ZN16adaptiveElementsI18adaptiveQuadrangleE11adaptForVTKEdiRSt6vectorI7PCoordsSaIS3_EERS2_I7PValuesSaIS7_EERdSB_ @3586
    _ZN16adaptiveElementsI18adaptiveQuadrangleE15addInViewForVTKEiP9PViewDataR7VTKDatabb @3587
    _ZN16adaptiveElementsI18adaptiveQuadrangleE4initEi @3588
    _ZN16adaptiveElementsI18adaptiveQuadrangleE5adaptEdiRSt6vectorI7PCoordsSaIS3_EERS2_I7PValuesSaIS7_EERdSB_P15GMSH_PostPluginb @3589
    _ZN16adaptiveElementsI18adaptiveQuadrangleE9addInViewEdiP9PViewDataP13PViewDataListP15GMSH_PostPlugin @3590
    _ZN16adaptiveElementsI19adaptiveTetrahedronE11adaptForVTKEdiRSt6vectorI7PCoordsSaIS3_EERS2_I7PValuesSaIS7_EERdSB_ @3591
    _ZN16adaptiveElementsI19adaptiveTetrahedronE15addInViewForVTKEiP9PViewDataR7VTKDatabb @3592
    _ZN16adaptiveElementsI19adaptiveTetrahedronE4initEi @3593
    _ZN16adaptiveElementsI19adaptiveTetrahedronE5adaptEdiRSt6vectorI7PCoordsSaIS3_EERS2_I7PValuesSaIS7_EERdSB_P15GMSH_PostPluginb @3594
    _ZN16adaptiveElementsI19adaptiveTetrahedronE9addInViewEdiP9PViewDataP13PViewDataListP15GMSH_PostPlugin @3595
    _ZN16adaptiveTriangle10recurErrorEPS_dd @3596
    _ZN16adaptiveTriangle11allVerticesE @3597 DATA
    _ZN16adaptiveTriangle11recurCreateEPS_ii @3598
    _ZN16adaptiveTriangle3allB5cxx11E @3599 DATA
    _ZN16adaptiveTriangle5errorEdd @3600
    _ZN16adaptiveTriangle6createEi @3601
    _ZN16adaptiveTriangle8numEdgesE @3602 DATA
    _ZN16adaptiveTriangle8numNodesE @3603 DATA
    _ZN16backgroundMesh2D11endelementsEv @3604
    _ZN16backgroundMesh2D11endverticesEv @3605
    _ZN16backgroundMesh2D11updateSizesEv @3606
    _ZN16backgroundMesh2D13beginelementsEv @3607
    _ZN16backgroundMesh2D13beginverticesEv @3608
    _ZN16backgroundMesh2D15propagateValuesERSt3mapIP7MVertexdSt4lessIS2_ESaISt4pairIKS2_dEEER14simpleFunctionIdEb @3609
    _ZN16backgroundMesh2D16computeSizeFieldEv @3610
    _ZN16backgroundMesh2D16create_face_meshEv @3611
    _ZN16backgroundMesh2D16create_mesh_copyEv @3612
    _ZN16backgroundMesh2D5resetEb @3613
    _ZN16backgroundMesh2D5unsetEv @3614
    _ZN16backgroundMesh2D9getOctreeEv @3615
    _ZN16backgroundMesh2DC1EP5GFaceb @3616
    _ZN16backgroundMesh2DC2EP5GFaceb @3617
    _ZN16backgroundMesh2DD0Ev @3618
    _ZN16backgroundMesh2DD1Ev @3619
    _ZN16backgroundMesh2DD2Ev @3620
    _ZN16backgroundMesh3D15propagateValuesERSt3mapIP7MVertexdSt4lessIS2_ESaISt4pairIKS2_dEEER14simpleFunctionIdEb @3621
    _ZN16backgroundMesh3D16computeSizeFieldEv @3622
    _ZN16backgroundMesh3D20get_nearest_neighborEPK7MVertex @3623
    _ZN16backgroundMesh3D20get_nearest_neighborEPKd @3624
    _ZN16backgroundMesh3D20get_nearest_neighborEPKdRd @3625
    _ZN16backgroundMesh3D20get_nearest_neighborEddd @3626
    _ZN16backgroundMesh3D20get_nearest_neighborEdddRd @3627
    _ZN16backgroundMesh3D9getOctreeEv @3628
    _ZN16backgroundMesh3DC1EP7GRegion @3629
    _ZN16backgroundMesh3DC2EP7GRegion @3630
    _ZN16backgroundMesh3DD0Ev @3631
    _ZN16backgroundMesh3DD1Ev @3632
    _ZN16backgroundMesh3DD2Ev @3633
    _ZN16gLevelsetPopcornC1Eddddddi @3634
    _ZN16gLevelsetPopcornC2Eddddddi @3635
    _ZN16gLevelsetPopcornD0Ev @3636
    _ZN16gLevelsetPopcornD1Ev @3637
    _ZN16gLevelsetQuadric21computeRotationMatrixEPKdPA3_d @3638
    _ZN16gLevelsetQuadric21computeRotationMatrixEPKdS1_PA3_d @3639
    _ZN16gLevelsetQuadric2AxEPKdPdd @3640
    _ZN16gLevelsetQuadric3xAxEPKdRdd @3641
    _ZN16gLevelsetQuadric4initEv @3642
    _ZN16gLevelsetQuadric6rotateEPA3_Kd @3643
    _ZN16gLevelsetQuadric9translateEPKd @3644
    _ZN16gLevelsetQuadricC1ERKS_ @3645
    _ZN16gLevelsetQuadricC2ERKS_ @3646
    _ZN16gLevelsetReverseC1EP9gLevelseti @3647
    _ZN16gLevelsetReverseD0Ev @3648
    _ZN16gLevelsetReverseD1Ev @3649
    _ZN16gaussIntegration10getPyramidEiR10fullMatrixIdER10fullVectorIdE @3650
    _ZN16gaussIntegration11getTriangleEiR10fullMatrixIdER10fullVectorIdE @3651
    _ZN16gaussIntegration13getHexahedronEiR10fullMatrixIdER10fullVectorIdE @3652
    _ZN16gaussIntegration14getTetrahedronEiR10fullMatrixIdER10fullVectorIdE @3653
    _ZN16gaussIntegration3getEiiR10fullMatrixIdER10fullVectorIdE @3654
    _ZN16gaussIntegration7getLineEiR10fullMatrixIdER10fullVectorIdE @3655
    _ZN16gaussIntegration7getQuadEiR10fullMatrixIdER10fullVectorIdE @3656
    _ZN16gaussIntegration8getPrismEiR10fullMatrixIdER10fullVectorIdE @3657
    _ZN16listOfPointsFifo11erase_firstEv @3658
    _ZN16listOfPointsFifo14get_first_sizeEv @3659
    _ZN16listOfPointsFifo15get_first_layerEv @3660
    _ZN16listOfPointsFifo16get_first_vertexEv @3661
    _ZN16listOfPointsFifo19get_first_directionEv @3662
    _ZN16listOfPointsFifo20get_first_crossfieldEv @3663
    _ZN16listOfPointsFifo4sizeEv @3664
    _ZN16listOfPointsFifo5emptyEv @3665
    _ZN16listOfPointsFifo6insertEP22smoothness_vertex_pair @3666
    _ZN16listOfPointsFifoD0Ev @3667
    _ZN16listOfPointsFifoD1Ev @3668
    _ZN16robustPredicates12incirclefastEPdS0_S0_S0_ @3669
    _ZN16robustPredicates12incircleslowEPdS0_S0_S0_ @3670
    _ZN16robustPredicates12inspherefastEPdS0_S0_S0_S0_ @3671
    _ZN16robustPredicates12insphereslowEPdS0_S0_S0_S0_ @3672
    _ZN16robustPredicates12orient2dfastEPdS0_S0_ @3673
    _ZN16robustPredicates12orient2dslowEPdS0_S0_ @3674
    _ZN16robustPredicates12orient3dfastEPdS0_S0_S0_ @3675
    _ZN16robustPredicates12orient3dslowEPdS0_S0_S0_ @3676
    _ZN16robustPredicates13expansion_sumEiPdiS0_S0_ @3677
    _ZN16robustPredicates13incircleadaptEPdS0_S0_S0_d @3678
    _ZN16robustPredicates13incircleexactEPdS0_S0_S0_ @3679
    _ZN16robustPredicates13insphereadaptEPdS0_S0_S0_S0_d @3680
    _ZN16robustPredicates13insphereexactEPdS0_S0_S0_S0_ @3681
    _ZN16robustPredicates13orient2dadaptEPdS0_S0_d @3682
    _ZN16robustPredicates13orient2dexactEPdS0_S0_ @3683
    _ZN16robustPredicates13orient3dadaptEPdS0_S0_S0_d @3684
    _ZN16robustPredicates13orient3dexactEPdS0_S0_S0_ @3685
    _ZN16robustPredicates13orient4dadaptEPdS0_S0_S0_S0_dddddd @3686
    _ZN16robustPredicates13orient4dexactEPdS0_S0_S0_S0_ddddd @3687
    _ZN16robustPredicates14grow_expansionEiPddS0_ @3688
    _ZN16robustPredicates15scale_expansionEiPddS0_ @3689
    _ZN16robustPredicates18fast_expansion_sumEiPdiS0_S0_ @3690
    _ZN16robustPredicates20linear_expansion_sumEiPdiS0_S0_ @3691
    _ZN16robustPredicates23expansion_sum_zeroelim1EiPdiS0_S0_ @3692
    _ZN16robustPredicates23expansion_sum_zeroelim2EiPdiS0_S0_ @3693
    _ZN16robustPredicates23grow_expansion_zeroelimEiPddS0_ @3694
    _ZN16robustPredicates24scale_expansion_zeroelimEiPddS0_ @3695
    _ZN16robustPredicates27fast_expansion_sum_zeroelimEiPdiS0_S0_ @3696
    _ZN16robustPredicates29linear_expansion_sum_zeroelimEiPdiS0_S0_ @3697
    _ZN16robustPredicates8compressEiPdS0_ @3698
    _ZN16robustPredicates8estimateEiPd @3699
    _ZN16robustPredicates8incircleEPdS0_S0_S0_ @3700
    _ZN16robustPredicates8insphereEPdS0_S0_S0_S0_ @3701
    _ZN16robustPredicates8orient2dEPdS0_S0_ @3702
    _ZN16robustPredicates8orient3dEPdS0_S0_S0_ @3703
    _ZN16robustPredicates8orient4dEPdS0_S0_S0_S0_ddddd @3704
    _ZN16robustPredicates9exactinitEiddd @3705
    _ZN17FieldOptionDouble14numericalValueEd @3706
    _ZN17FieldOptionDouble21getTextRepresentationERNSt7__cxx1112basic_stringIcSt11char_traitsIcESaIcEEE @3707
    _ZN17FieldOptionDouble7getTypeEv @3708
    _ZN17FieldOptionDoubleD0Ev @3709
    _ZN17FieldOptionDoubleD1Ev @3710
    _ZN17FieldOptionString21getTextRepresentationERNSt7__cxx1112basic_stringIcSt11char_traitsIcESaIcEEE @3711
    _ZN17FieldOptionString6stringENSt7__cxx1112basic_stringIcSt11char_traitsIcESaIcEEE @3712
    _ZN17FieldOptionString7getTypeEv @3713
    _ZN17FieldOptionStringD0Ev @3714
    _ZN17FieldOptionStringD1Ev @3715
    _ZN17JacobiPolynomialsC1Eddi @3716
    _ZN17JacobiPolynomialsC2Eddi @3717
    _ZN17JacobiPolynomialsD1Ev @3718
    _ZN17JacobiPolynomialsD2Ev @3719
    _ZN17MsgProgressStatus4nextEv @3720
    _ZN17MsgProgressStatusC1Ei @3721
    _ZN17MsgProgressStatusC2Ei @3722
    _ZN17MsgProgressStatusD1Ev @3723
    _ZN17MsgProgressStatusD2Ev @3724
    _ZN17bezierBasisRaiser12computeCoeffERK10fullMatrixIdES3_RS1_ @3725
    _ZN17bezierBasisRaiser12computeCoeffERK10fullVectorIdERK10fullMatrixIdES7_RS5_ @3726
    _ZN17bezierBasisRaiser12computeCoeffERK10fullVectorIdES3_RS1_ @3727
    _ZN17bezierBasisRaiser12computeCoeffERK10fullVectorIdES3_S3_RS1_ @3728
    _ZN17bezierBasisRaiser15_fillRaiserDataEv @3729
    _ZN17bezierBasisRaiser18_fillRaiserDataPyrEv @3730
    _ZN17bezierBasisRaiser20getRaisedBezierBasisEi @3731
    _ZN17gLevelsetCylinderC1EPKdS1_RS0_S2_S2_i @3732
    _ZN17gLevelsetCylinderC1EPKdS1_RS0_S2_i @3733
    _ZN17gLevelsetCylinderC1ERKS_ @3734
    _ZN17gLevelsetCylinderC1ERKSt6vectorIdSaIdEES4_RKdS6_i @3735
    _ZN17gLevelsetCylinderC2EPKdS1_RS0_S2_S2_i @3736
    _ZN17gLevelsetCylinderC2EPKdS1_RS0_S2_i @3737
    _ZN17gLevelsetCylinderC2ERKS_ @3738
    _ZN17gLevelsetCylinderC2ERKSt6vectorIdSaIdEES4_RKdS6_i @3739
    _ZN17gLevelsetCylinderD0Ev @3740
    _ZN17gLevelsetCylinderD1Ev @3741
    _ZN17gLevelsetDistMeshC1EP6GModelNSt7__cxx1112basic_stringIcSt11char_traitsIcESaIcEEEii @3742
    _ZN17gLevelsetDistMeshC2EP6GModelNSt7__cxx1112basic_stringIcSt11char_traitsIcESaIcEEEii @3743
    _ZN17gLevelsetDistMeshD0Ev @3744
    _ZN17gLevelsetDistMeshD1Ev @3745
    _ZN17gLevelsetDistMeshD2Ev @3746
    _ZN17gLevelsetImprovedC1ERKS_ @3747
    _ZN17gLevelsetImprovedC2ERKS_ @3748
    _ZN17gLevelsetMathEvalC1ENSt7__cxx1112basic_stringIcSt11char_traitsIcESaIcEEEi @3749
    _ZN17gLevelsetMathEvalC2ENSt7__cxx1112basic_stringIcSt11char_traitsIcESaIcEEEi @3750
    _ZN17gLevelsetMathEvalD0Ev @3751
    _ZN17gLevelsetMathEvalD1Ev @3752
    _ZN17gLevelsetPostViewC1Eii @3753
    _ZN17gLevelsetPostViewC2Eii @3754
    _ZN17gLevelsetPostViewD0Ev @3755
    _ZN17gLevelsetPostViewD1Ev @3756
    _ZN17gLevelsetShamrockC1Edddddii @3757
    _ZN17gLevelsetShamrockC2Edddddii @3758
    _ZN17gLevelsetShamrockD0Ev @3759
    _ZN17gLevelsetShamrockD1Ev @3760
    _ZN18BarycenterLessThan9toleranceE @3761 DATA
    _ZN18BoundaryLayerField10setupFor1dEi @3762
    _ZN18BoundaryLayerField10setupFor2dEi @3763
    _ZN18BoundaryLayerField14getDescriptionB5cxx11Ev @3764
    _ZN18BoundaryLayerField16computeFor1dMeshEdddR8SMetric3 @3765
    _ZN18BoundaryLayerField16removeAttractorsEv @3766
    _ZN18BoundaryLayerField7getNameEv @3767
    _ZN18BoundaryLayerFieldC1Ev @3768
    _ZN18BoundaryLayerFieldC2Ev @3769
    _ZN18BoundaryLayerFieldD0Ev @3770
    _ZN18BoundaryLayerFieldD1Ev @3771
    _ZN18BoundaryLayerFieldclEP14AttractorFieldddddR8SMetric3P7GEntity @3772
    _ZN18BoundaryLayerFieldclEdddP7GEntity @3773
    _ZN18BoundaryLayerFieldclEdddR8SMetric3P7GEntity @3774
    _ZN18MathEvalExpression12set_functionERKNSt7__cxx1112basic_stringIcSt11char_traitsIcESaIcEEE @3775
    _ZN18MathEvalExpression8evaluateEddd @3776
    _ZN18MathEvalExpressionD1Ev @3777
    _ZN18MathEvalFieldAniso14getDescriptionB5cxx11Ev @3778
    _ZN18MathEvalFieldAniso7getNameEv @3779
    _ZN18MathEvalFieldAnisoC1Ev @3780
    _ZN18MathEvalFieldAnisoD0Ev @3781
    _ZN18MathEvalFieldAnisoD1Ev @3782
    _ZN18MathEvalFieldAnisoclEdddP7GEntity @3783
    _ZN18MathEvalFieldAnisoclEdddR8SMetric3P7GEntity @3784
    _ZN18Recombinator_Graph11export_tetsERSt3setIP8MElementSt4lessIS2_ESaIS2_EEP3HexNSt7__cxx1112basic_stringIcSt11char_traitsIcESaIcEEE @3785
    _ZN18Recombinator_Graph12get_triangleEP7MVertexS1_S1_ @3786
    _ZN18Recombinator_Graph12get_triangleEP8MElementiii @3787
    _ZN18Recombinator_Graph12merge_cliqueEP7GRegionR20cliques_losses_graphIP3HexEi @3788
    _ZN18Recombinator_Graph13find_the_lineEP6PELineRKSt8multimapIyS1_St4lessIyESaISt4pairIKyS1_EEE @3789
    _ZN18Recombinator_Graph14buildGraphOnlyEP7GRegionjNSt7__cxx1112basic_stringIcSt11char_traitsIcESaIcEEE @3790
    _ZN18Recombinator_Graph14buildGraphOnlyEjNSt7__cxx1112basic_stringIcSt11char_traitsIcESaIcEEE @3791
    _ZN18Recombinator_Graph14export_all_hexERiP7GRegion @3792
    _ZN18Recombinator_Graph15add_graph_entryEP3HexS1_ @3793
    _ZN18Recombinator_Graph15execute_blossomEP7GRegionjNSt7__cxx1112basic_stringIcSt11char_traitsIcESaIcEEE @3794
    _ZN18Recombinator_Graph15execute_blossomEjNSt7__cxx1112basic_stringIcSt11char_traitsIcESaIcEEE @3795
    _ZN18Recombinator_Graph15is_blossom_pairEP10PETriangleS1_ @3796
    _ZN18Recombinator_Graph16fill_edges_tableERKSt6vectorIP7MVertexSaIS2_EEP3Hex @3797
    _ZN18Recombinator_Graph17compute_hex_ranksEv @3798
    _ZN18Recombinator_Graph17createBlossomInfoEP7GRegion @3799
    _ZN18Recombinator_Graph17createBlossomInfoEv @3800
    _ZN18Recombinator_Graph17export_single_hexEP3HexNSt7__cxx1112basic_stringIcSt11char_traitsIcESaIcEEE @3801
    _ZN18Recombinator_Graph17find_hex_in_graphEP3Hex @3802
    _ZN18Recombinator_Graph17find_the_triangleEP10PETriangleRKSt8multimapIyS1_St4lessIyESaISt4pairIKyS1_EEE @3803
    _ZN18Recombinator_Graph17find_the_triangleEP10PETriangleRSt8multimapIySt4pairIS1_iESt4lessIyESaIS3_IKyS4_EEE @3804
    _ZN18Recombinator_Graph18is_not_good_enoughEP3Hex @3805
    _ZN18Recombinator_Graph19create_losses_graphEP7GRegion @3806
    _ZN18Recombinator_Graph19evaluate_hex_coupleEP3HexS1_ @3807
    _ZN18Recombinator_Graph20find_hex_in_graphrowEP3HexRSt8multimapIyS1_St4lessIyESaISt4pairIKyS1_EEE @3808
    _ZN18Recombinator_Graph21add_face_connectivityEP8MElementiii @3809
    _ZN18Recombinator_Graph21export_hexmesh_so_farERi @3810
    _ZN18Recombinator_Graph21export_single_hex_allEP3HexNSt7__cxx1112basic_stringIcSt11char_traitsIcESaIcEEE @3811
    _ZN18Recombinator_Graph21export_single_hex_tetEP3HexNSt7__cxx1112basic_stringIcSt11char_traitsIcESaIcEEE @3812
    _ZN18Recombinator_Graph21fill_tet_to_hex_tableEP3Hex @3813
    _ZN18Recombinator_Graph21initialize_structuresEP7GRegion @3814
    _ZN18Recombinator_Graph21post_check_validationEP3Hex @3815
    _ZN18Recombinator_Graph22export_hex_init_degreeEP7GRegionRKSt3mapIP3HexiSt4lessIS4_ESaISt4pairIKS4_iEEERKSt6vectorIS4_SaIS4_EE @3816
    _ZN18Recombinator_Graph23export_single_hex_facesEP3HexNSt7__cxx1112basic_stringIcSt11char_traitsIcESaIcEEE @3817
    _ZN18Recombinator_Graph24clear_potential_hex_infoEv @3818
    _ZN18Recombinator_Graph24find_hex_couple_in_graphEP3HexS1_ @3819
    _ZN18Recombinator_Graph25add_or_free_potential_hexEP3Hex @3820
    _ZN18Recombinator_Graph25compute_hex_ranks_blossomEv @3821
    _ZN18Recombinator_Graph25create_faces_connectivityEv @3822
    _ZN18Recombinator_Graph25find_face_in_blossom_infoEP7MVertexS1_S1_S1_ @3823
    _ZN18Recombinator_Graph28export_direct_neighbor_tableEi @3824
    _ZN18Recombinator_Graph30find_the_created_potential_hexEP3HexRKSt8multimapIyS1_St4lessIyESaISt4pairIKyS1_EEE @3825
    _ZN18Recombinator_Graph31create_indirect_neighbors_graphEv @3826
    _ZN18Recombinator_Graph45create_direct_neighbors_incompatibility_graphEv @3827
    _ZN18Recombinator_Graph5mergeEP7GRegion @3828
    _ZN18Recombinator_Graph7executeEP7GRegion @3829
    _ZN18Recombinator_Graph8add_faceEP7MVertexS1_S1_P3Hex @3830
    _ZN18Recombinator_Graph8add_faceEP7MVertexS1_S1_RSt8multimapIySt4pairIP10PETriangleiESt4lessIyESaIS3_IKyS6_EEE @3831
    _ZN18Recombinator_Graph9add_edgesEP3Hex @3832
    _ZN18Recombinator_Graph9merge_hexEP7GRegionP3Hex @3833
    _ZN18Recombinator_GraphC1EjNSt7__cxx1112basic_stringIcSt11char_traitsIcESaIcEEE @3834
    _ZN18Recombinator_GraphC2EjNSt7__cxx1112basic_stringIcSt11char_traitsIcESaIcEEE @3835
    _ZN18Recombinator_GraphD0Ev @3836
    _ZN18Recombinator_GraphD1Ev @3837
    _ZN18Recombinator_GraphD2Ev @3838
    _ZN18adaptiveHexahedron10recurErrorEPS_dd @3839
    _ZN18adaptiveHexahedron11allVerticesE @3840 DATA
    _ZN18adaptiveHexahedron11recurCreateEPS_ii @3841
    _ZN18adaptiveHexahedron3allB5cxx11E @3842 DATA
    _ZN18adaptiveHexahedron5errorEdd @3843
    _ZN18adaptiveHexahedron6createEi @3844
    _ZN18adaptiveHexahedron8numEdgesE @3845 DATA
    _ZN18adaptiveHexahedron8numNodesE @3846 DATA
    _ZN18adaptiveQuadrangle10recurErrorEPS_dd @3847
    _ZN18adaptiveQuadrangle11allVerticesE @3848 DATA
    _ZN18adaptiveQuadrangle11recurCreateEPS_ii @3849
    _ZN18adaptiveQuadrangle3allB5cxx11E @3850 DATA
    _ZN18adaptiveQuadrangle5errorEdd @3851
    _ZN18adaptiveQuadrangle6createEi @3852
    _ZN18adaptiveQuadrangle8numEdgesE @3853 DATA
    _ZN18adaptiveQuadrangle8numNodesE @3854 DATA
    _ZN18closestPointFinderC1EP7GEntityd @3855
    _ZN18closestPointFinderC2EP7GEntityd @3856
    _ZN18closestPointFinderD1Ev @3857
    _ZN18closestPointFinderD2Ev @3858
    _ZN18closestPointFinderclERK7SPoint3 @3859
    _ZN18constantPerElementIdED0Ev @3860
    _ZN18constantPerElementIdED1Ev @3861
    _ZN18curveFunctorCircleD0Ev @3862
    _ZN18curveFunctorCircleD1Ev @3863
    _ZN18gLevelsetEllipsoidC1EPKdS1_RS0_S2_S2_i @3864
    _ZN18gLevelsetEllipsoidC1ERKS_ @3865
    _ZN18gLevelsetEllipsoidC2EPKdS1_RS0_S2_S2_i @3866
    _ZN18gLevelsetEllipsoidC2ERKS_ @3867
    _ZN18gLevelsetEllipsoidD0Ev @3868
    _ZN18gLevelsetEllipsoidD1Ev @3869
    _ZN18gLevelsetPrimitiveC2Ei @3870
    _ZN18gLevelsetPrimitiveD2Ev @3871
    _ZN19ElementDataLessThanILi3EE9toleranceE @3872 DATA
    _ZN19IntersectAnisoField14getDescriptionB5cxx11Ev @3873
    _ZN19IntersectAnisoField7getNameEv @3874
    _ZN19IntersectAnisoFieldD0Ev @3875
    _ZN19IntersectAnisoFieldD1Ev @3876
    _ZN19IntersectAnisoFieldclEdddP7GEntity @3877
    _ZN19IntersectAnisoFieldclEdddR8SMetric3P7GEntity @3878
    _ZN19LegendrePolynomialsC1Ei @3879
    _ZN19LegendrePolynomialsC2Ei @3880
    _ZN19LegendrePolynomialsD1Ev @3881
    _ZN19LegendrePolynomialsD2Ev @3882
    _ZN19TetMeshConnectivity20are_vertex_neighborsEP7MVertexS1_ @3883
    _ZN19adaptiveTetrahedron10recurErrorEPS_dd @3884
    _ZN19adaptiveTetrahedron11allVerticesE @3885 DATA
    _ZN19adaptiveTetrahedron11recurCreateEPS_ii @3886
    _ZN19adaptiveTetrahedron3allB5cxx11E @3887 DATA
    _ZN19adaptiveTetrahedron5errorEdd @3888
    _ZN19adaptiveTetrahedron6createEi @3889
    _ZN19adaptiveTetrahedron8numEdgesE @3890 DATA
    _ZN19adaptiveTetrahedron8numNodesE @3891 DATA
    _ZN19meshGRegionExtrudedclEP7GRegion @3892
    _ZN19multiscalePartition21assembleAllPartitionsERSt6vectorIP8MElementSaIS2_EE @3893
    _ZN19multiscalePartition21setNumberOfPartitionsERi @3894
    _ZN19multiscalePartition9partitionER14partitionLeveli15typeOfPartition @3895
    _ZN19multiscalePartitionC1ERSt6vectorIP8MElementSaIS2_EEi15typeOfPartitioni @3896
    _ZN19multiscalePartitionC2ERSt6vectorIP8MElementSaIS2_EEi15typeOfPartitioni @3897
    _ZN19surfaceFunctorGFaceD0Ev @3898
    _ZN19surfaceFunctorGFaceD1Ev @3899
    _ZN20AlphaElementLessThan11numVerticesE @3900 DATA
    _ZN20AlphaElementLessThan3eyeE @3901 DATA
    _ZN20BoundaryLayerColumns10getColumnsEP7MVertexS1_i @3902
    _ZN20BoundaryLayerColumns9addColumnERK8SVector3P7MVertexSt6vectorIS4_SaIS4_EE @3903
    _ZN20ExternalProcessField14getDescriptionB5cxx11Ev @3904
    _ZN20ExternalProcessField7getNameEv @3905
    _ZN20ExternalProcessFieldD0Ev @3906
    _ZN20ExternalProcessFieldD1Ev @3907
    _ZN20ExternalProcessFieldclEdddP7GEntity @3908
    _ZN20MaxEigenHessianField14getDescriptionB5cxx11Ev @3909
    _ZN20MaxEigenHessianField7getNameEv @3910
    _ZN20MaxEigenHessianFieldD0Ev @3911
    _ZN20MaxEigenHessianFieldD1Ev @3912
    _ZN20MaxEigenHessianFieldclEdddP7GEntity @3913
    _ZN20SOrientedBoundingBox10getMaxSizeEv @3914
    _ZN20SOrientedBoundingBox10getMinSizeEv @3915
    _ZN20SOrientedBoundingBox10intersectsERS_ @3916
    _ZN20SOrientedBoundingBox5fillpEv @3917
    _ZN20SOrientedBoundingBox7compareERS_S0_ @3918
    _ZN20SOrientedBoundingBox7getAxisEi @3919
    _ZN20SOrientedBoundingBox8buildOBBESt6vectorI7SPoint3SaIS1_EE @3920
    _ZN20SOrientedBoundingBoxC1EPS_ @3921
    _ZN20SOrientedBoundingBoxC1ER8SVector3dddRKS0_S3_S3_ @3922
    _ZN20SOrientedBoundingBoxC1Ev @3923
    _ZN20SOrientedBoundingBoxC2EPS_ @3924
    _ZN20SOrientedBoundingBoxC2ER8SVector3dddRKS0_S3_S3_ @3925
    _ZN20SOrientedBoundingBoxC2Ev @3926
    _ZN20cliques_losses_graphIP3HexE13compatibilityERKS1_RKyS4_S6_ @3927
    _ZN20cliques_losses_graphIP3HexED0Ev @3928
    _ZN20cliques_losses_graphIP3HexED1Ev @3929
    _ZN20gLevelsetGenCylinderC1EPKdS1_RS0_i @3930
    _ZN20gLevelsetGenCylinderC1ERKS_ @3931
    _ZN20gLevelsetGenCylinderC2EPKdS1_RS0_i @3932
    _ZN20gLevelsetGenCylinderC2ERKS_ @3933
    _ZN20gLevelsetGenCylinderD0Ev @3934
    _ZN20gLevelsetGenCylinderD1Ev @3935
    _ZN20gLevelsetMathEvalAllC1ESt6vectorINSt7__cxx1112basic_stringIcSt11char_traitsIcESaIcEEESaIS6_EEi @3936
    _ZN20gLevelsetMathEvalAllC2ESt6vectorINSt7__cxx1112basic_stringIcSt11char_traitsIcESaIcEEESaIS6_EEi @3937
    _ZN20gLevelsetMathEvalAllD0Ev @3938
    _ZN20gLevelsetMathEvalAllD1Ev @3939
    _ZN20jacobianBasedQuality13_CoeffDataICNC1ER10fullVectorIdER10fullMatrixIdEPK11bezierBasisS9_i @3940
    _ZN20jacobianBasedQuality13_CoeffDataICNC2ER10fullVectorIdER10fullMatrixIdEPK11bezierBasisS9_i @3941
    _ZN20jacobianBasedQuality13_CoeffDataICND0Ev @3942
    _ZN20jacobianBasedQuality13_CoeffDataICND1Ev @3943
    _ZN20jacobianBasedQuality13_CoeffDataIGEC1ER10fullVectorIdER10fullMatrixIdEPK11bezierBasisS9_ii @3944
    _ZN20jacobianBasedQuality13_CoeffDataIGEC2ER10fullVectorIdER10fullMatrixIdEPK11bezierBasisS9_ii @3945
    _ZN20jacobianBasedQuality13_CoeffDataIGED0Ev @3946
    _ZN20jacobianBasedQuality13_CoeffDataIGED1Ev @3947
    _ZN20jacobianBasedQuality13_CoeffDataJacC1ER10fullVectorIdEPK11bezierBasisi @3948
    _ZN20jacobianBasedQuality13_CoeffDataJacC2ER10fullVectorIdEPK11bezierBasisi @3949
    _ZN20jacobianBasedQuality13_CoeffDataJacD0Ev @3950
    _ZN20jacobianBasedQuality13_CoeffDataJacD1Ev @3951
    _ZN20jacobianBasedQuality13minICNMeasureEP8MElementbb @3952
    _ZN20jacobianBasedQuality13minIGEMeasureEP8MElementbb @3953
    _ZN20jacobianBasedQuality16sampleIGEMeasureEP8MElementiRdS2_ @3954
    _ZN20jacobianBasedQuality17_subdivideDomainsERSt6vectorIPNS_10_CoeffDataESaIS2_EE @3955
    _ZN20jacobianBasedQuality20minSampledICNMeasureEP8MElementi @3956
    _ZN20jacobianBasedQuality20minSampledIGEMeasureEP8MElementi @3957
    _ZN20jacobianBasedQuality21_computeBoundRationalERK10fullVectorIdES3_bb @3958
    _ZN20jacobianBasedQuality25_subdivideDomainsMinOrMaxINS_9_lessMaxBEEEvRSt6vectorIPNS_10_CoeffDataESaIS4_EERdS8_ @3959
    _ZN20jacobianBasedQuality25_subdivideDomainsMinOrMaxINS_9_lessMinBEEEvRSt6vectorIPNS_10_CoeffDataESaIS4_EERdS8_ @3960
    _ZN20jacobianBasedQuality25minMaxJacobianDeterminantEP8MElementRdS2_PK10fullMatrixIdE @3961
    _ZN20meshPartitionOptionsD1Ev @3962
    _ZN21FieldOptionListDouble10listdoubleENSt7__cxx114listIdSaIdEEE @3963
    _ZN21FieldOptionListDouble21getTextRepresentationERNSt7__cxx1112basic_stringIcSt11char_traitsIcESaIcEEE @3964
    _ZN21FieldOptionListDouble7getTypeEv @3965
    _ZN21FieldOptionListDoubleD0Ev @3966
    _ZN21FieldOptionListDoubleD1Ev @3967
    _ZN21gLevelsetIntersectionC1ERKS_ @3968
    _ZN21gLevelsetIntersectionC1ESt6vectorIP9gLevelsetSaIS2_EEbi @3969
    _ZN21gLevelsetIntersectionD0Ev @3970
    _ZN21gLevelsetIntersectionD1Ev @3971
    _ZN21gmshParametricSurface20NewParametricSurfaceEiPcS0_S0_ @3972
    _ZN21gmshParametricSurfaceC1EPcS0_S0_ @3973
    _ZN21gmshParametricSurfaceC2EPcS0_S0_ @3974
    _ZN21gmshParametricSurfaceD0Ev @3975
    _ZN21gmshParametricSurfaceD1Ev @3976
    _ZN21gmshParametricSurfaceD2Ev @3977
    _ZN21writePhysicalGroupGEOclERSt4pairIKiSt6vectorIP7GEntitySaIS4_EEE @3978
    _ZN23BDS_SwapEdgeTestQualityC1Ebb @3979
    _ZN23BDS_SwapEdgeTestQualityD0Ev @3980
    _ZN23BDS_SwapEdgeTestQualityD1Ev @3981
    _ZN23MathEvalExpressionAniso12set_functionEiRKNSt7__cxx1112basic_stringIcSt11char_traitsIcESaIcEEE @3982
    _ZN23gLevelsetGeneralQuadricC1EPKdS1_RS0_S2_S2_S2_S2_i @3983
    _ZN23gLevelsetGeneralQuadricC1ERKS_ @3984
    _ZN23gLevelsetGeneralQuadricC2EPKdS1_RS0_S2_S2_S2_S2_i @3985
    _ZN23gLevelsetGeneralQuadricC2ERKS_ @3986
    _ZN23gLevelsetGeneralQuadricD0Ev @3987
    _ZN23gLevelsetGeneralQuadricD1Ev @3988
    _ZN23optimizeMeshGRegionGmshclEP7GRegionb @3989
    _ZN24AttractorAnisoCurveField14getDescriptionB5cxx11Ev @3990
    _ZN24AttractorAnisoCurveField6updateEv @3991
    _ZN24AttractorAnisoCurveField7getNameEv @3992
    _ZN24AttractorAnisoCurveFieldC1Ev @3993
    _ZN24AttractorAnisoCurveFieldD0Ev @3994
    _ZN24AttractorAnisoCurveFieldD1Ev @3995
    _ZN24AttractorAnisoCurveFieldclEdddP7GEntity @3996
    _ZN24AttractorAnisoCurveFieldclEdddR8SMetric3P7GEntity @3997
    _ZN24GOrientedTransfiniteFace9getVertexEii @3998
    _ZN24GOrientedTransfiniteFaceC1EP5GFaceRSt6vectorIP7MVertexSaIS4_EE @3999
    _ZN24MVertexBoundaryLayerData11getChildrenEi @4000
    _ZN24MVertexBoundaryLayerData14getNumChildrenEi @4001
    _ZN24MVertexBoundaryLayerData17addChildrenFamilyESt6vectorIP7MVertexSaIS2_EE @4002
    _ZN24MVertexBoundaryLayerData22getNumChildrenFamiliesEv @4003
    _ZN25CategorizedSourceElementsC1EP7GRegion @4004
    _ZN25CategorizedSourceElementsC2EP7GRegion @4005
    _ZN25CategorizedSourceElementsD1Ev @4006
    _ZN25optimizeMeshGRegionNetgenclEP7GRegionb @4007
    _ZN26PointLessThanLexicographic1tE @4008 DATA
    _ZN26SOrientedBoundingRectangle4areaEv @4009
    _ZN26SOrientedBoundingRectangleC1Ev @4010
    _ZN26SOrientedBoundingRectangleC2Ev @4011
    _ZN26SOrientedBoundingRectangleD1Ev @4012
    _ZN26SOrientedBoundingRectangleD2Ev @4013
    _ZN26frameFieldBackgroundMesh2D14get_smoothnessEP7MVertex @4014
    _ZN26frameFieldBackgroundMesh2D14get_smoothnessEdd @4015
    _ZN26frameFieldBackgroundMesh2D15eval_crossfieldEP7MVertexR8STensor3 @4016
    _ZN26frameFieldBackgroundMesh2D15eval_crossfieldEddR8STensor3 @4017
    _ZN26frameFieldBackgroundMesh2D16compute_RK_infosEdddddR7RK_form @4018
    _ZN26frameFieldBackgroundMesh2D16exportCrossFieldERKNSt7__cxx1112basic_stringIcSt11char_traitsIcESaIcEEE @4019
    _ZN26frameFieldBackgroundMesh2D17computeCrossFieldER14simpleFunctionIdE @4020
    _ZN26frameFieldBackgroundMesh2D17computeSmoothnessEv @4021
    _ZN26frameFieldBackgroundMesh2D29compute_crossfield_directionsEddd @4022
    _ZN26frameFieldBackgroundMesh2D5angleEP7MVertex @4023
    _ZN26frameFieldBackgroundMesh2D5angleEdd @4024
    _ZN26frameFieldBackgroundMesh2D5resetEb @4025
    _ZN26frameFieldBackgroundMesh2DC1EP5GFace @4026
    _ZN26frameFieldBackgroundMesh2DC2EP5GFace @4027
    _ZN26frameFieldBackgroundMesh2DD0Ev @4028
    _ZN26frameFieldBackgroundMesh2DD1Ev @4029
    _ZN26frameFieldBackgroundMesh2DD2Ev @4030
    _ZN26frameFieldBackgroundMesh3D11permutationE @4031 DATA
    _ZN26frameFieldBackgroundMesh3D14apply_rotationERK8SVector3RKdRK8STensor3 @4032
    _ZN26frameFieldBackgroundMesh3D14get_smoothnessEP7MVertex @4033
    _ZN26frameFieldBackgroundMesh3D14get_smoothnessEddd @4034
    _ZN26frameFieldBackgroundMesh3D15build_neighborsERKi @4035
    _ZN26frameFieldBackgroundMesh3D17computeCrossFieldEv @4036
    _ZN26frameFieldBackgroundMesh3D19get_rotation_matrixERKdRK8SVector3Pd @4037
    _ZN26frameFieldBackgroundMesh3D19initiate_crossfieldEv @4038
    _ZN26frameFieldBackgroundMesh3D20compare_to_neighborsE7SPoint3R8STensor3St17_Rb_tree_iteratorISt4pairIKdP7MVertexEES9_R8SVector3RdRSt6vectorIdSaIdEE @4039
    _ZN26frameFieldBackgroundMesh3D21initiate_ANN_researchEv @4040
    _ZN26frameFieldBackgroundMesh3D23get_min_rotation_matrixERK8STensor3S2_RdR8SVector3db @4041
    _ZN26frameFieldBackgroundMesh3D23get_recursive_neighborsERSt3setIP7MVertexSt4lessIS2_ESaIS2_EES7_RS0_IP8MElementS3_IS9_ESaIS9_EERSt8multimapIiS2_S3_IiESaISt4pairIKiS2_EEEii @4042
    _ZN26frameFieldBackgroundMesh3D24get_vectorial_smoothnessEPK7MVertexR8SVector3 @4043
    _ZN26frameFieldBackgroundMesh3D24get_vectorial_smoothnessEdddR8SVector3 @4044
    _ZN26frameFieldBackgroundMesh3D24get_vectorial_smoothnessEiPK7MVertex @4045
    _ZN26frameFieldBackgroundMesh3D24get_vectorial_smoothnessEiddd @4046
    _ZN26frameFieldBackgroundMesh3D25exportVectorialSmoothnessERKNSt7__cxx1112basic_stringIcSt11char_traitsIcESaIcEEE @4047
    _ZN26frameFieldBackgroundMesh3D26get_approximate_smoothnessEP7MVertex @4048
    _ZN26frameFieldBackgroundMesh3D26get_approximate_smoothnessEddd @4049
    _ZN26frameFieldBackgroundMesh3D27eval_approximate_crossfieldEPK7MVertexR8STensor3 @4050
    _ZN26frameFieldBackgroundMesh3D27eval_approximate_crossfieldEdddR8STensor3 @4051
    _ZN26frameFieldBackgroundMesh3D27get_rotation_angle_and_axisERK8STensor3S2_RdR8SVector3iR13montripletbis @4052
    _ZN26frameFieldBackgroundMesh3D29build_vertex_to_element_tableEv @4053
    _ZN26frameFieldBackgroundMesh3D32get_nearest_neighbor_on_boundaryEP7MVertex @4054
    _ZN26frameFieldBackgroundMesh3D32get_nearest_neighbor_on_boundaryEP7MVertexRd @4055
    _ZN26frameFieldBackgroundMesh3D35computeSmoothnessOnlyFromBoundariesEv @4056
    _ZN26frameFieldBackgroundMesh3DC1EP7GRegion @4057
    _ZN26frameFieldBackgroundMesh3DC2EP7GRegion @4058
    _ZN26frameFieldBackgroundMesh3DD0Ev @4059
    _ZN26frameFieldBackgroundMesh3DD1Ev @4060
    _ZN26frameFieldBackgroundMesh3DD2Ev @4061
    _ZN27cliques_compatibility_graphIP3HexE11begin_graphEv @4062
    _ZN27cliques_compatibility_graphIP3HexE12find_cliquesERSt8multimapIyS1_St4lessIyESaISt4pairIKyS1_EEEi @4063
    _ZN27cliques_compatibility_graphIP3HexE12find_cliquesEv @4064
    _ZN27cliques_compatibility_graphIP3HexE12store_cliqueEi @4065
    _ZN27cliques_compatibility_graphIP3HexE13compatibilityERKS1_RKyS4_S6_ @4066
    _ZN27cliques_compatibility_graphIP3HexE9end_graphEv @4067
    _ZN27cliques_compatibility_graphIP3HexED0Ev @4068
    _ZN27cliques_compatibility_graphIP3HexED1Ev @4069
    _ZN27cliques_compatibility_graphIP3HexED2Ev @4070
    _ZN28MVertexLessThanLexicographic12getToleranceEv @4071
    _ZN28MVertexLessThanLexicographic9toleranceE @4072 DATA
    _ZN28listOfPointsScalarSmoothness11erase_firstEv @4073
    _ZN28listOfPointsScalarSmoothness14get_first_sizeEv @4074
    _ZN28listOfPointsScalarSmoothness15get_first_layerEv @4075
    _ZN28listOfPointsScalarSmoothness16get_first_vertexEv @4076
    _ZN28listOfPointsScalarSmoothness19get_first_directionEv @4077
    _ZN28listOfPointsScalarSmoothness20get_first_crossfieldEv @4078
    _ZN28listOfPointsScalarSmoothness4sizeEv @4079
    _ZN28listOfPointsScalarSmoothness5emptyEv @4080
    _ZN28listOfPointsScalarSmoothness6insertEP22smoothness_vertex_pair @4081
    _ZN28listOfPointsScalarSmoothnessD0Ev @4082
    _ZN28listOfPointsScalarSmoothnessD1Ev @4083
    _ZN28quadMeshRemoveHalfOfOneDMesh9subdivideEv @4084
    _ZN28quadMeshRemoveHalfOfOneDMeshC1EP5GFace @4085
    _ZN31surfacePointWithExclusionRegion15inExclusionZoneERK7SPoint2 @4086
    _ZN31surfacePointWithExclusionRegion5printEP6_iobufi @4087
    _ZN31surfacePointWithExclusionRegionC1EP7MVertexPA1_7SPoint2RS2_R8SMetric3PS_ @4088
    _ZN31surfacePointWithExclusionRegionC2EP7MVertexPA1_7SPoint2RS2_R8SMetric3PS_ @4089
    _ZN3CTX10unpackBlueEj @4090
    _ZN3CTX11unpackAlphaEj @4091
    _ZN3CTX11unpackGreenEj @4092
    _ZN3CTX8instanceEv @4093
    _ZN3CTX9_instanceE @4094 DATA
    _ZN3CTX9packColorEiiii @4095
    _ZN3CTX9unpackRedEj @4096
    _ZN3CTXC1ERKS_ @4097
    _ZN3CTXC1Ev @4098
    _ZN3CTXC2Ev @4099
    _ZN3CTXD1Ev @4100
    _ZN3CTXD2Ev @4101
    _ZN3CTXUt0_D1Ev @4102
    _ZN3HexC1EP7MVertexS1_S1_S1_S1_S1_S1_S1_ @4103
    _ZN3MapINSt7__cxx1112basic_stringIcSt11char_traitsIcESaIcEEE6StructEC2Ev @4104
    _ZN3MapINSt7__cxx1112basic_stringIcSt11char_traitsIcESaIcEEE6StructED2Ev @4105
    _ZN3MapINSt7__cxx1112basic_stringIcSt11char_traitsIcESaIcEEE6StructEixES5_ @4106
    _ZN3MapINSt7__cxx1112basic_stringIcSt11char_traitsIcESaIcEEE7StructsE4FindES5_ @4107
    _ZN3MapINSt7__cxx1112basic_stringIcSt11char_traitsIcESaIcEEE7StructsE5clearEv @4108
    _ZN3MapINSt7__cxx1112basic_stringIcSt11char_traitsIcESaIcEEE7StructsEC2Ev @4109
    _ZN3MapINSt7__cxx1112basic_stringIcSt11char_traitsIcESaIcEEE7StructsED2Ev @4110
    _ZN3MapINSt7__cxx1112basic_stringIcSt11char_traitsIcESaIcEEE7StructsEixES5_ @4111
    _ZN3Msg10SetInfoCpuEb @4112
    _ZN3Msg10SetLogFileERKNSt7__cxx1112basic_stringIcSt11char_traitsIcESaIcEEE @4113
    _ZN3Msg10_startTimeE @4114 DATA
    _ZN3Msg10_verbosityE @4115 DATA
    _ZN3Msg11GetCallbackEv @4116
    _ZN3Msg11GetCommRankEv @4117
    _ZN3Msg11GetCommSizeEv @4118
    _ZN3Msg11PrintTimersEv @4119
    _ZN3Msg11SetCallbackEP11GmshMessage @4120
    _ZN3Msg11SetCommRankEi @4121
    _ZN3Msg11SetCommSizeEi @4122
    _ZN3Msg11_errorCountE @4123 DATA
    _ZN3Msg11_firstErrorB5cxx11E @4124 DATA
    _ZN3Msg11_launchDateB5cxx11E @4125 DATA
    _ZN3Msg12GetThreadNumEv @4126
    _ZN3Msg12GetVerbosityEv @4127
    _ZN3Msg12SetVerbosityEi @4128
    _ZN3Msg12_commandLineB5cxx11E @4129 DATA
    _ZN3Msg12_logFileNameB5cxx11E @4130 DATA
    _ZN3Msg13GetErrorCountEv @4131
    _ZN3Msg13GetFirstErrorB5cxx11Ev @4132
    _ZN3Msg13GetGmshClientEv @4133
    _ZN3Msg13GetLaunchDateB5cxx11Ev @4134
    _ZN3Msg13GetMaxThreadsEv @4135
    _ZN3Msg13GetNumThreadsEv @4136
    _ZN3Msg13ProgressMeterEiibPKcz @4137
    _ZN3Msg13RequestRenderEv @4138
    _ZN3Msg13SetNumThreadsEi @4139
    _ZN3Msg13_firstWarningB5cxx11E @4140 DATA
    _ZN3Msg13_warningCountE @4141 DATA
    _ZN3Msg14FinalizeOnelabEv @4142
    _ZN3Msg14PrintResourcesB5cxx11Ebbbb @4143
    _ZN3Msg14SetWindowTitleERKNSt7__cxx1112basic_stringIcSt11char_traitsIcESaIcEEE @4144
    _ZN3Msg15GetFirstWarningB5cxx11Ev @4145
    _ZN3Msg15GetOnelabActionB5cxx11Ev @4146
    _ZN3Msg15GetOnelabNumberENSt7__cxx1112basic_stringIcSt11char_traitsIcESaIcEEEdb @4147
    _ZN3Msg15GetOnelabStringENSt7__cxx1112basic_stringIcSt11char_traitsIcESaIcEEERKS5_b @4148
    _ZN3Msg15GetWarningCountEv @4149
    _ZN3Msg15RunOnelabClientERKNSt7__cxx1112basic_stringIcSt11char_traitsIcESaIcEEES7_ @4150
    _ZN3Msg15SetOnelabActionERKNSt7__cxx1112basic_stringIcSt11char_traitsIcESaIcEEE @4151
    _ZN3Msg15SetOnelabNumberENSt7__cxx1112basic_stringIcSt11char_traitsIcESaIcEEEdbbbi @4152
    _ZN3Msg15SetOnelabStringENSt7__cxx1112basic_stringIcSt11char_traitsIcESaIcEEES5_bbbiRKS5_ @4153
    _ZN3Msg16InitializeOnelabERKNSt7__cxx1112basic_stringIcSt11char_traitsIcESaIcEEES7_ @4154
    _ZN3Msg16LoadOnelabClientERKNSt7__cxx1112basic_stringIcSt11char_traitsIcESaIcEEES7_ @4155
    _ZN3Msg16SetOnelabChangedEiRKNSt7__cxx1112basic_stringIcSt11char_traitsIcESaIcEEE @4156
    _ZN3Msg17GetExecutableNameB5cxx11Ev @4157
    _ZN3Msg17PrintErrorCounterEPKc @4158
    _ZN3Msg17ResetErrorCounterEv @4159
    _ZN3Msg17SetExecutableNameERKNSt7__cxx1112basic_stringIcSt11char_traitsIcESaIcEEE @4160
    _ZN3Msg18GetCommandLineArgsB5cxx11Ev @4161
    _ZN3Msg18ResetProgressMeterEv @4162
    _ZN3Msg18_progressMeterStepE @4163 DATA
    _ZN3Msg19GetNumOnelabClientsEv @4164
    _ZN3Msg19_commandLineNumbersB5cxx11E @4165 DATA
    _ZN3Msg19_commandLineStringsB5cxx11E @4166 DATA
    _ZN3Msg20GetProgressMeterStepEv @4167
    _ZN3Msg20SetProgressMeterStepEi @4168
    _ZN3Msg21AddOnelabStringChoiceENSt7__cxx1112basic_stringIcSt11char_traitsIcESaIcEEES5_S5_bbb @4169
    _ZN3Msg21GetCommandLineNumbersB5cxx11Ev @4170
    _ZN3Msg21GetCommandLineStringsB5cxx11Ev @4171
    _ZN3Msg21_atLeastOneErrorInRunE @4172 DATA
    _ZN3Msg21_progressMeterCurrentE @4173 DATA
    _ZN3Msg23ExchangeOnelabParameterERKNSt7__cxx1112basic_stringIcSt11char_traitsIcESaIcEEERS5_RSt3mapIS5_St6vectorIdSaIdEESt4lessIS5_ESaISt4pairIS6_SC_EEERS9_IS5_SA_IS5_SaIS5_EESE_SaISF_IS6_SL_EEE @4174
    _ZN3Msg23ExchangeOnelabParameterERKNSt7__cxx1112basic_stringIcSt11char_traitsIcESaIcEEERSt6vectorIdSaIdEERSt3mapIS5_SA_St4lessIS5_ESaISt4pairIS6_SA_EEERSC_IS5_S8_IS5_SaIS5_EESE_SaISF_IS6_SL_EEE @4175
    _ZN3Msg23UndefineOnelabParameterERKNSt7__cxx1112basic_stringIcSt11char_traitsIcESaIcEEE @4176
    _ZN3Msg28ImportPhysicalGroupsInOnelabEv @4177
    _ZN3Msg4ExitEi @4178
    _ZN3Msg4InfoEPKcz @4179
    _ZN3Msg4InitEiPPc @4180
    _ZN3Msg5DebugEPKcz @4181
    _ZN3Msg5ErrorEPKcz @4182
    _ZN3Msg5FatalEPKcz @4183
    _ZN3Msg5TimerENSt7__cxx1112basic_stringIcSt11char_traitsIcESaIcEEE @4184
    _ZN3Msg6DirectEPKcz @4185
    _ZN3Msg7BarrierEv @4186
    _ZN3Msg7WarningEPKcz @4187
    _ZN3Msg7_clientE @4188 DATA
    _ZN3Msg7_timersB5cxx11E @4189 DATA
    _ZN3Msg8GetValueEPKcd @4190
    _ZN3Msg8StatusGlEPKcz @4191
    _ZN3Msg8_infoCpuE @4192 DATA
    _ZN3Msg8_logFileE @4193 DATA
    _ZN3Msg9GetAnswerEPKciS1_S1_S1_ @4194
    _ZN3Msg9GetStringEPKcNSt7__cxx1112basic_stringIcSt11char_traitsIcESaIcEEE @4195
    _ZN3Msg9StatusBarEbPKcz @4196
    _ZN3Msg9UseOnelabEv @4197
    _ZN3Msg9_callbackE @4198 DATA
    _ZN3Msg9_commRankE @4199 DATA
    _ZN3Msg9_commSizeE @4200 DATA
    _ZN3Msg9_execNameB5cxx11E @4201 DATA
    _ZN3Qtn12storeProductERKS_S1_ @4202
    _ZN4Cell10_globalNumE @4203 DATA
    _ZN4Cell10createCellEP8MElementi @4204
    _ZN4Cell10createCellEPS_i @4205
    _ZN4Cell11getBoundaryERSt3mapIPS_s9Less_CellSaISt4pairIKS1_sEEEb @4206
    _ZN4Cell11hasBoundaryEPS_b @4207
    _ZN4Cell12lastBoundaryEv @4208
    _ZN4Cell13firstBoundaryEb @4209
    _ZN4Cell13getCoboundaryERSt3mapIPS_s9Less_CellSaISt4pairIKS1_sEEEb @4210
    _ZN4Cell13hasCoboundaryEPS_b @4211
    _ZN4Cell13printBoundaryEv @4212
    _ZN4Cell14lastCoboundaryEv @4213
    _ZN4Cell15addBoundaryCellEiPS_b @4214
    _ZN4Cell15firstCoboundaryEb @4215
    _ZN4Cell15getBoundarySizeEb @4216
    _ZN4Cell15printCoboundaryEv @4217
    _ZN4Cell16saveCellBoundaryEv @4218
    _ZN4Cell17addCoboundaryCellEiPS_b @4219
    _ZN4Cell17getCoboundarySizeEb @4220
    _ZN4Cell18removeBoundaryCellEPS_b @4221
    _ZN4Cell19restoreCellBoundaryEv @4222
    _ZN4Cell20removeCoboundaryCellEPS_b @4223
    _ZN4Cell8getCellsERSt3mapIPS_i9Less_CellSaISt4pairIKS1_iEEE @4224
    _ZN4Cell9printCellEv @4225
    _ZN4CellC1EP8MElementi @4226
    _ZN4CellC1EPS_i @4227
    _ZN4CellC2EP8MElementi @4228
    _ZN4CellC2EPS_i @4229
    _ZN4CellD0Ev @4230
    _ZN4CellD1Ev @4231
    _ZN4CellD2Ev @4232
    _ZN4GRbf10evalRbfDerEiRK10fullMatrixIdES3_S3_RS1_ @4233
    _ZN4GRbf11buildOctreeEd @4234
    _ZN4GRbf12curvatureRBFERK10fullMatrixIdERS1_ @4235
    _ZN4GRbf14buildXYZkdtreeEv @4236
    _ZN4GRbf14generateRbfMatEiRK10fullMatrixIdES3_ @4237
    _ZN4GRbf15evalRadialFnDerEidddd @4238
    _ZN4GRbf15setup_level_setERK10fullMatrixIdES3_RS1_S4_ @4239
    _ZN4GRbf16computeCurvatureERK10fullMatrixIdERSt3mapIP7MVertexdSt4lessIS6_ESaISt4pairIKS6_dEEE @4240
    _ZN4GRbf16solveHarmonicMapE10fullMatrixIdESt6vectorIP7MVertexSaIS4_EES2_IdSaIdEERSt3mapIS4_7SPoint3St4lessIS4_ESaISt4pairIKS4_SA_EEE @4241
    _ZN4GRbf21computeLocalCurvatureERK10fullMatrixIdERSt3mapIP7MVertexdSt4lessIS6_ESaISt4pairIKS6_dEEE @4242
    _ZN4GRbf23RbfLapSurface_local_CPMEbRK10fullMatrixIdES3_RS1_ @4243
    _ZN4GRbf23solveHarmonicMap_sparseER12linearSystemIdEiRKSt6vectorIP7MVertexSaIS5_EERKS3_IdSaIdEERSt3mapIS5_7SPoint3St4lessIS5_ESaISt4pairIKS5_SF_EEE @4244
    _ZN4GRbf28RbfLapSurface_global_CPM_lowERK10fullMatrixIdES3_RS1_ @4245
    _ZN4GRbf29RbfLapSurface_global_CPM_highERK10fullMatrixIdES3_RS1_ @4246
    _ZN4GRbf30RbfLapSurface_local_CPM_sparseERSt6vectorIP7MVertexSaIS2_EEbRK10fullMatrixIdES9_R12linearSystemIdE @4247
    _ZN4GRbf30RbfLapSurface_local_projectionERK10fullMatrixIdES3_RS1_ @4248
    _ZN4GRbf31RbfLapSurface_global_CPM_high_2ERK10fullMatrixIdES3_RS1_ @4249
    _ZN4GRbf31RbfLapSurface_global_projectionERK10fullMatrixIdES3_RS1_ @4250
    _ZN4GRbf32RbfLapSurface_global_projection2ERK10fullMatrixIdES3_RS1_ @4251
    _ZN4GRbf5RbfOpEiRK10fullMatrixIdES3_RS1_ @4252
    _ZN4GRbf8UVStoXYZEddRdS0_S0_R8SVector3S2_i @4253
    _ZN4GRbfC1EdiiSt3mapIP7MVertex8SVector3St4lessIS2_ESaISt4pairIKS2_S3_EEESt3setIS2_S5_SaIS2_EESt6vectorIS2_SC_Eb @4254
    _ZN4GRbfC2EdiiSt3mapIP7MVertex8SVector3St4lessIS2_ESaISt4pairIKS2_S3_EEESt3setIS2_S5_SaIS2_EESt6vectorIS2_SC_Eb @4255
    _ZN4GRbfD1Ev @4256
    _ZN4GRbfD2Ev @4257
    _ZN4Node10get_metricEv @4258
    _ZN4Node10set_metricE6Metric @4259
    _ZN4Node8get_sizeEv @4260
    _ZN4Node8set_sizeEd @4261
    _ZN4Node9get_layerEv @4262
    _ZN4Node9get_limitEv @4263
    _ZN4Node9get_pointEv @4264
    _ZN4Node9set_layerEi @4265
    _ZN4Node9set_limitEi @4266
    _ZN4Node9set_pointE7SPoint3 @4267
    _ZN4NodeC1E7SPoint3 @4268
    _ZN4NodeC1Ev @4269
    _ZN4NodeC2E7SPoint3 @4270
    _ZN4NodeC2Ev @4271
    _ZN4NodeD1Ev @4272
    _ZN4NodeD2Ev @4273
    _ZN4Wrap10get_octreeEv @4274
    _ZN4Wrap10get_offsetEv @4275
    _ZN4Wrap10set_octreeEP14MElementOctree @4276
    _ZN4Wrap10set_offsetEi @4277
    _ZN4Wrap13get_dimensionEv @4278
    _ZN4Wrap13get_iterationEv @4279
    _ZN4Wrap13set_dimensionEi @4280
    _ZN4Wrap13set_iterationEi @4281
    _ZN4Wrap14get_movabilityEi @4282
    _ZN4Wrap14set_movabilityEii @4283
    _ZN4Wrap17get_max_iterationEv @4284
    _ZN4Wrap17set_max_iterationEi @4285
    _ZN4Wrap18get_initial_energyEv @4286
    _ZN4Wrap18set_initial_energyEd @4287
    _ZN4Wrap5get_pEv @4288
    _ZN4Wrap5set_pEi @4289
    _ZN4Wrap6resizeEi @4290
    _ZN4Wrap8get_bankEi @4291
    _ZN4Wrap8get_sizeEv @4292
    _ZN4Wrap8set_bankE7SPoint3i @4293
    _ZN4WrapC1Ev @4294
    _ZN4WrapC2Ev @4295
    _ZN4WrapD1Ev @4296
    _ZN4WrapD2Ev @4297
    _ZN4clip13print_segmentE7SPoint3S0_RSt14basic_ofstreamIcSt11char_traitsIcEE @4298
    _ZN4clip3maxEdd @4299
    _ZN4clip3minEdd @4300
    _ZN4clip7executeEP7GRegion @4301
    _ZN4clip7executeERSt6vectorI7SPoint3SaIS1_EERS0_I14VoronoiElementSaIS5_EE @4302
    _ZN4clip7executeEv @4303
    _ZN4clip8categoryEiiii @4304
    _ZN4clipC1Ev @4305
    _ZN4clipC2Ev @4306
    _ZN4clipD1Ev @4307
    _ZN4clipD2Ev @4308
    _ZN4line11getNumEdgesEv @4309
    _ZN4line11getNumNodesEv @4310
    _ZN4line12getDimensionEv @4311
    _ZN4line13getGaussPointEiRdS0_S0_S0_ @4312
    _ZN4line16getShapeFunctionEidddRd @4313
    _ZN4line17getNumGaussPointsEv @4314
    _ZN4line20getGradShapeFunctionEidddPd @4315
    _ZN4line20integrateCirculationEPd @4316
    _ZN4line7getEdgeEiRiS0_ @4317
    _ZN4line7getNodeEiRdS0_S0_ @4318
    _ZN4line8isInsideEddd @4319
    _ZN4lineD0Ev @4320
    _ZN4lineD1Ev @4321
    _ZN4xyzn3epsE @4322 DATA
    _ZN4xyzn5angleEiccc @4323
    _ZN4xyzn6updateEcccf @4324
    _ZN4xyzv12scale_updateEd @4325
    _ZN4xyzv3epsE @4326 DATA
    _ZN4xyzv6updateEiPd @4327
    _ZN4xyzvC1ERKS_ @4328
    _ZN4xyzvC2ERKS_ @4329
    _ZN4xyzvaSERKS_ @4330
    _ZN5CurveD1Ev @4331
    _ZN5Facet12compute_hashEv @4332
    _ZN5Field12putOnNewViewEv @4333
    _ZN5Field14getDescriptionB5cxx11Ev @4334
    _ZN5Field6updateEv @4335
    _ZN5Field9getOptionENSt7__cxx1112basic_stringIcSt11char_traitsIcESaIcEEE @4336
    _ZN5Field9putOnViewEP5PViewi @4337
    _ZN5FieldD0Ev @4338
    _ZN5FieldD1Ev @4339
    _ZN5FieldD2Ev @4340
    _ZN5FieldclEdddR8SMetric3P7GEntity @4341
    _ZN5GEdge10deleteMeshEv @4342
    _ZN5GEdge10discretizeEdRSt6vectorI7SPoint3SaIS1_EERS0_IdSaIdEE @4343
    _ZN5GEdge11setTooSmallEb @4344
    _ZN5GEdge12closestPointER7SPoint3d @4345
    _ZN5GEdge13setMeshMasterEPS_RKSt6vectorIdSaIdEE @4346
    _ZN5GEdge13setMeshMasterEPS_i @4347
    _ZN5GEdge13setVisibilityEcb @4348
    _ZN5GEdge14getMeshElementEj @4349
    _ZN5GEdge18getNumMeshElementsEv @4350
    _ZN5GEdge19replaceEndingPointsEP7GVertexS1_ @4351
    _ZN5GEdge19resetMeshAttributesEv @4352
    _ZN5GEdge20relocateMeshVerticesEv @4353
    _ZN5GEdge23getAdditionalInfoStringB5cxx11Ev @4354
    _ZN5GEdge24getNumMeshParentElementsEv @4355
    _ZN5GEdge28replaceEndingPointsInternalsEP7GVertexS1_ @4356
    _ZN5GEdge4meshEb @4357
    _ZN5GEdge6getOBBEv @4358
    _ZN5GEdge6lengthERKdS1_i @4359
    _ZN5GEdge7addFaceEP5GFace @4360
    _ZN5GEdge7addLineEP5MLine @4361
    _ZN5GEdge7delFaceEP5GFace @4362
    _ZN5GEdge7reverseEv @4363
    _ZN5GEdge8setColorEjb @4364
    _ZN5GEdge8writeGEOEP6_iobuf @4365
    _ZN5GEdgeC1EP6GModeliP7GVertexS3_ @4366
    _ZN5GEdgeC2EP6GModeliP7GVertexS3_ @4367
    _ZN5GEdgeD0Ev @4368
    _ZN5GEdgeD1Ev @4369
    _ZN5GEdgeD2Ev @4370
    _ZN5GFace10deleteMeshEv @4371
    _ZN5GFace11delFreeEdgeEP5GEdge @4372
    _ZN5GFace11replaceEdgeEP5GEdgeS1_ @4373
    _ZN5GFace12replaceEdgesERNSt7__cxx114listIP5GEdgeSaIS3_EEE @4374
    _ZN5GFace13containsParamERK7SPoint2 @4375
    _ZN5GFace13setMeshMasterEPS_RKSt3mapIiiSt4lessIiESaISt4pairIKiiEEE @4376
    _ZN5GFace13setMeshMasterEPS_RKSt6vectorIdSaIdEE @4377
    _ZN5GFace13setVisibilityEcb @4378
    _ZN5GFace14fillPointCloudEdPSt6vectorI7SPoint3SaIS1_EEPS0_I7SPoint2SaIS5_EEPS0_I8SVector3SaIS9_EE @4379
    _ZN5GFace14getMeshElementEj @4380
    _ZN5GFace14setMeshingAlgoEi @4381
    _ZN5GFace15addEmbeddedEdgeEP5GEdge @4382
    _ZN5GFace15fillVertexArrayEb @4383
    _ZN5GFace16computeMeanPlaneERKSt6vectorI7SPoint3SaIS1_EE @4384
    _ZN5GFace16computeMeanPlaneERKSt6vectorIP7MVertexSaIS2_EE @4385
    _ZN5GFace16computeMeanPlaneEv @4386
    _ZN5GFace17addEmbeddedVertexEP7GVertex @4387
    _ZN5GFace18getNumMeshElementsEv @4388
    _ZN5GFace19getMetricEigenvalueERK7SPoint2 @4389
    _ZN5GFace19resetMeshAttributesEv @4390
    _ZN5GFace20relocateMeshVerticesEv @4391
    _ZN5GFace21buildSTLTriangulationEb @4392
    _ZN5GFace23getAdditionalInfoStringB5cxx11Ev @4393
    _ZN5GFace24buildRepresentationCrossEb @4394
    _ZN5GFace24getNumMeshParentElementsEv @4395
    _ZN5GFace28computeMeshSizeFieldAccuracyERdS0_S0_RiS1_ @4396
    _ZN5GFace28setCurvatureControlParameterEi @4397
    _ZN5GFace4meshEb @4398
    _ZN5GFace5lloydEii @4399
    _ZN5GFace6getOBBEv @4400
    _ZN5GFace8setColorEjb @4401
    _ZN5GFace8writeGEOEP6_iobuf @4402
    _ZN5GFaceC1EP6GModeli @4403
    _ZN5GFaceC2EP6GModeli @4404
    _ZN5GFaceD0Ev @4405
    _ZN5GFaceD1Ev @4406
    _ZN5GFaceD2Ev @4407
    _ZN5LpCVT10bisectors1E8SVector37SPoint3S1_S1_S0_S0_ @4408
    _ZN5LpCVT10bisectors2E8SVector37SPoint3S1_S1_S1_S0_ @4409
    _ZN5LpCVT10bisectors3E8SVector37SPoint3S1_S1_S1_S1_ @4410
    _ZN5LpCVT10get_tensorEddd @4411
    _ZN5LpCVT11get_drho_dxEdddi @4412
    _ZN5LpCVT11get_drho_dyEdddi @4413
    _ZN5LpCVT11get_drho_dzEdddi @4414
    _ZN5LpCVT11init_cachesE14VoronoiElementi @4415
    _ZN5LpCVT12verificationERSt6vectorI7SPoint3SaIS1_EERS0_IiSaIiEEii @4416
    _ZN5LpCVT18compute_parametersEv @4417
    _ZN5LpCVT1FE14VoronoiElementi @4418
    _ZN5LpCVT1fE7SPoint3S0_6Tensori @4419
    _ZN5LpCVT4evalERSt6vectorI7SPoint3SaIS1_EERS0_IiSaIiEEiRS0_I8SVector3SaIS8_EERdi @4420
    _ZN5LpCVT4swapEv @4421
    _ZN5LpCVT5clearEv @4422
    _ZN5LpCVT5df_dxE7SPoint3S0_6Tensori @4423
    _ZN5LpCVT5df_dyE7SPoint3S0_6Tensori @4424
    _ZN5LpCVT5df_dzE7SPoint3S0_6Tensori @4425
    _ZN5LpCVT6dF_dC1E14VoronoiElementi @4426
    _ZN5LpCVT6dF_dC2E14VoronoiElementi @4427
    _ZN5LpCVT6dF_dC3E14VoronoiElementi @4428
    _ZN5LpCVT6simpleE14VoronoiElementi @4429
    _ZN5LpCVT8get_sizeEddd @4430
    _ZN5LpCVT8h_to_rhoEdi @4431
    _ZN5LpCVT9get_gaussEv @4432
    _ZN5LpCVTC1Ev @4433
    _ZN5LpCVTC2Ev @4434
    _ZN5LpCVTD1Ev @4435
    _ZN5LpCVTD2Ev @4436
    _ZN5MFaceC1EP7MVertexS1_S1_S1_ @4437
    _ZN5MFaceC1ESt6vectorIP7MVertexSaIS2_EE @4438
    _ZN5MFaceC2EP7MVertexS1_S1_S1_ @4439
    _ZN5MFaceC2ESt6vectorIP7MVertexSaIS2_EE @4440
    _ZN5MFaceD1Ev @4441
    _ZN5MLine10discretizeEdRSt6vectorI7SPoint3SaIS1_EERS0_IdSaIdEE @4442
    _ZN5MLine10getEdgeRepEbiPdS0_S0_P8SVector3 @4443
    _ZN5MLine10getFaceRepEbiPdS0_S0_P8SVector3 @4444
    _ZN5MLine11getNumFacesEv @4445
    _ZN5MLine14getInnerRadiusEv @4446
    _ZN5MLine14getNumEdgesRepEb @4447
    _ZN5MLine14getNumFacesRepEb @4448
    _ZN5MLine20getIntegrationPointsEiPiPP5IntPt @4449
    _ZN5MLine7getFaceEi @4450
    _ZN5MLine7reverseEv @4451
    _ZN5MLine9getLengthEv @4452
    _ZN5MLine9getVertexEi @4453
    _ZN5MLine9getVolumeEv @4454
    _ZN5MLine9setVertexEiP7MVertex @4455
    _ZN5MLineC1ERKSt6vectorIP7MVertexSaIS2_EEii @4456
    _ZN5MLineD0Ev @4457
    _ZN5MLineD1Ev @4458
    _ZN5MTet410radiusNormE @4459 DATA
    _ZN5MTri310radiusNormE @4460 DATA
    _ZN5MTri3C1EP9MTriangledP8SMetric3P13bidimMeshDataP5GFace @4461
    _ZN5MTri3C2EP9MTriangledP8SMetric3P13bidimMeshDataP5GFace @4462
    _ZN5PView10_globalTagE @4463 DATA
    _ZN5PView10getOptionsEv @4464
    _ZN5PView10setChangedEb @4465
    _ZN5PView10setOptionsEP12PViewOptions @4466
    _ZN5PView10sortByNameEv @4467
    _ZN5PView10writeAdaptERKNSt7__cxx1112basic_stringIcSt11char_traitsIcESaIcEEEibidib @4468
    _ZN5PView12getGlobalTagEv @4469
    _ZN5PView12getViewByTagEiii @4470
    _ZN5PView12setGlobalTagEi @4471
    _ZN5PView13getMemoryInMbEv @4472
    _ZN5PView13getViewByNameERKNSt7__cxx1112basic_stringIcSt11char_traitsIcESaIcEEEiiS7_ @4473
    _ZN5PView15fillVertexArrayEPN6onelab18localNetworkClientEiPKci @4474
    _ZN5PView16fillVertexArraysEv @4475
    _ZN5PView17getViewByFileNameERKNSt7__cxx1112basic_stringIcSt11char_traitsIcESaIcEEEii @4476
    _ZN5PView18deleteVertexArraysEv @4477
    _ZN5PView4listE @4478 DATA
    _ZN5PView5_initEi @4479
    _ZN5PView5writeERKNSt7__cxx1112basic_stringIcSt11char_traitsIcESaIcEEEib @4480
    _ZN5PView7addStepEP6GModelRSt3mapIiSt6vectorIdSaIdEESt4lessIiESaISt4pairIKiS5_EEEdi @4481
    _ZN5PView7combineEbib @4482
    _ZN5PView7getDataEb @4483
    _ZN5PView7readMEDERKNSt7__cxx1112basic_stringIcSt11char_traitsIcESaIcEEEi @4484
    _ZN5PView7readMSHERKNSt7__cxx1112basic_stringIcSt11char_traitsIcESaIcEEEi @4485
    _ZN5PView7readPOSERKNSt7__cxx1112basic_stringIcSt11char_traitsIcESaIcEEEi @4486
    _ZN5PView8writeX3DERKNSt7__cxx1112basic_stringIcSt11char_traitsIcESaIcEEE @4487
    _ZN5PViewC1EP9PViewDatai @4488
    _ZN5PViewC1EPS_b @4489
    _ZN5PViewC1ERKNSt7__cxx1112basic_stringIcSt11char_traitsIcESaIcEEERSt6vectorIdSaIdEESB_SB_SB_ @4490
    _ZN5PViewC1ERKNSt7__cxx1112basic_stringIcSt11char_traitsIcESaIcEEES7_P6GModelRSt3mapIiSt6vectorIdSaIdEESt4lessIiESaISt4pairIKiSD_EEEdi @4491
    _ZN5PViewC1ERKNSt7__cxx1112basic_stringIcSt11char_traitsIcESaIcEEES7_RSt6vectorIdSaIdEESB_ @4492
    _ZN5PViewC1Ei @4493
    _ZN5PViewC2EP9PViewDatai @4494
    _ZN5PViewC2EPS_b @4495
    _ZN5PViewC2ERKNSt7__cxx1112basic_stringIcSt11char_traitsIcESaIcEEERSt6vectorIdSaIdEESB_SB_SB_ @4496
    _ZN5PViewC2ERKNSt7__cxx1112basic_stringIcSt11char_traitsIcESaIcEEES7_P6GModelRSt3mapIiSt6vectorIdSaIdEESt4lessIiESaISt4pairIKiSD_EEEdi @4497
    _ZN5PViewC2ERKNSt7__cxx1112basic_stringIcSt11char_traitsIcESaIcEEES7_RSt6vectorIdSaIdEESB_ @4498
    _ZN5PViewC2Ei @4499
    _ZN5PViewD1Ev @4500
    _ZN5PViewD2Ev @4501
    _ZN5Prism11set_qualityEd @4502
    _ZN5Prism12set_verticesEP7MVertexS1_S1_S1_S1_S1_ @4503
    _ZN5Prism5get_aEv @4504
    _ZN5Prism5get_bEv @4505
    _ZN5Prism5get_cEv @4506
    _ZN5Prism5get_dEv @4507
    _ZN5Prism5get_eEv @4508
    _ZN5Prism5get_fEv @4509
    _ZN5PrismC1EP7MVertexS1_S1_S1_S1_S1_ @4510
    _ZN5PrismC1Ev @4511
    _ZN5PrismC2EP7MVertexS1_S1_S1_S1_S1_ @4512
    _ZN5PrismC2Ev @4513
    _ZN5PrismD1Ev @4514
    _ZN5PrismD2Ev @4515
    _ZN5RTreeIP30volumePointWithExclusionRegiondLi3EdLi8ELi4EE10PickBranchEPNS2_4RectEPNS2_4NodeE @4516
    _ZN5RTreeIP30volumePointWithExclusionRegiondLi3EdLi8ELi4EE12RemoveAllRecEPNS2_4NodeE @4517
    _ZN5RTreeIP30volumePointWithExclusionRegiondLi3EdLi8ELi4EE13InsertRectRecEPNS2_4RectERKS1_PNS2_4NodeEPS8_i @4518
    _ZN5RTreeIP30volumePointWithExclusionRegiondLi3EdLi8ELi4EE15ChoosePartitionEPNS2_13PartitionVarsEi @4519
    _ZN5RTreeIP30volumePointWithExclusionRegiondLi3EdLi8ELi4EE8ClassifyEiiPNS2_13PartitionVarsE @4520
    _ZN5RTreeIP30volumePointWithExclusionRegiondLi3EdLi8ELi4EE9PickSeedsEPNS2_13PartitionVarsE @4521
    _ZN5RTreeIP30volumePointWithExclusionRegiondLi3EdLi8ELi4EE9SplitNodeEPNS2_4NodeEPNS2_6BranchEPS4_ @4522
    _ZN5RTreeIP30volumePointWithExclusionRegiondLi3EdLi8ELi4EED0Ev @4523
    _ZN5RTreeIP30volumePointWithExclusionRegiondLi3EdLi8ELi4EED1Ev @4524
    _ZN5RTreeIP31surfacePointWithExclusionRegiondLi2EdLi8ELi4EE12RemoveAllRecEPNS2_4NodeE @4525
    _ZN5RTreeIP31surfacePointWithExclusionRegiondLi2EdLi8ELi4EE13InsertRectRecEPNS2_4RectERKS1_PNS2_4NodeEPS8_i @4526
    _ZN5RTreeIP31surfacePointWithExclusionRegiondLi2EdLi8ELi4EE15ChoosePartitionEPNS2_13PartitionVarsEi @4527
    _ZN5RTreeIP31surfacePointWithExclusionRegiondLi2EdLi8ELi4EE6InsertEPKdS4_RKS1_ @4528
    _ZN5RTreeIP31surfacePointWithExclusionRegiondLi2EdLi8ELi4EE8ClassifyEiiPNS2_13PartitionVarsE @4529
    _ZN5RTreeIP31surfacePointWithExclusionRegiondLi2EdLi8ELi4EE9PickSeedsEPNS2_13PartitionVarsE @4530
    _ZN5RTreeIP31surfacePointWithExclusionRegiondLi2EdLi8ELi4EE9SplitNodeEPNS2_4NodeEPNS2_6BranchEPS4_ @4531
    _ZN5RTreeIP31surfacePointWithExclusionRegiondLi2EdLi8ELi4EED0Ev @4532
    _ZN5RTreeIP31surfacePointWithExclusionRegiondLi2EdLi8ELi4EED1Ev @4533
    _ZN5RTreeIP4NodedLi3EdLi8ELi4EE10PickBranchEPNS2_4RectEPNS2_4NodeE @4534
    _ZN5RTreeIP4NodedLi3EdLi8ELi4EE12RemoveAllRecEPNS2_4NodeE @4535
    _ZN5RTreeIP4NodedLi3EdLi8ELi4EE13InsertRectRecEPNS2_4RectERKS1_PNS2_4NodeEPS8_i @4536
    _ZN5RTreeIP4NodedLi3EdLi8ELi4EE15ChoosePartitionEPNS2_13PartitionVarsEi @4537
    _ZN5RTreeIP4NodedLi3EdLi8ELi4EE6InsertEPKdS4_RKS1_ @4538
    _ZN5RTreeIP4NodedLi3EdLi8ELi4EE8ClassifyEiiPNS2_13PartitionVarsE @4539
    _ZN5RTreeIP4NodedLi3EdLi8ELi4EE9PickSeedsEPNS2_13PartitionVarsE @4540
    _ZN5RTreeIP4NodedLi3EdLi8ELi4EE9SplitNodeEPNS2_4NodeEPNS2_6BranchEPS4_ @4541
    _ZN5RTreeIP4NodedLi3EdLi8ELi4EED0Ev @4542
    _ZN5RTreeIP4NodedLi3EdLi8ELi4EED1Ev @4543
    _ZN5RTreeIP7MVertexdLi3EdLi8ELi4EE10PickBranchEPNS2_4RectEPNS2_4NodeE @4544
    _ZN5RTreeIP7MVertexdLi3EdLi8ELi4EE12RemoveAllRecEPNS2_4NodeE @4545
    _ZN5RTreeIP7MVertexdLi3EdLi8ELi4EE13InsertRectRecEPNS2_4RectERKS1_PNS2_4NodeEPS8_i @4546
    _ZN5RTreeIP7MVertexdLi3EdLi8ELi4EE15ChoosePartitionEPNS2_13PartitionVarsEi @4547
    _ZN5RTreeIP7MVertexdLi3EdLi8ELi4EE6InsertEPKdS4_RKS1_ @4548
    _ZN5RTreeIP7MVertexdLi3EdLi8ELi4EE8ClassifyEiiPNS2_13PartitionVarsE @4549
    _ZN5RTreeIP7MVertexdLi3EdLi8ELi4EE9PickSeedsEPNS2_13PartitionVarsE @4550
    _ZN5RTreeIP7MVertexdLi3EdLi8ELi4EE9SplitNodeEPNS2_4NodeEPNS2_6BranchEPS4_ @4551
    _ZN5RTreeIP7MVertexdLi3EdLi8ELi4EED0Ev @4552
    _ZN5RTreeIP7MVertexdLi3EdLi8ELi4EED1Ev @4553
    _ZN5RTreeIP8MElementdLi3EdLi8ELi4EE10PickBranchEPNS2_4RectEPNS2_4NodeE @4554
    _ZN5RTreeIP8MElementdLi3EdLi8ELi4EE12RemoveAllRecEPNS2_4NodeE @4555
    _ZN5RTreeIP8MElementdLi3EdLi8ELi4EE13InsertRectRecEPNS2_4RectERKS1_PNS2_4NodeEPS8_i @4556
    _ZN5RTreeIP8MElementdLi3EdLi8ELi4EE15ChoosePartitionEPNS2_13PartitionVarsEi @4557
    _ZN5RTreeIP8MElementdLi3EdLi8ELi4EE6InsertEPKdS4_RKS1_ @4558
    _ZN5RTreeIP8MElementdLi3EdLi8ELi4EE8ClassifyEiiPNS2_13PartitionVarsE @4559
    _ZN5RTreeIP8MElementdLi3EdLi8ELi4EE9PickSeedsEPNS2_13PartitionVarsE @4560
    _ZN5RTreeIP8MElementdLi3EdLi8ELi4EE9SplitNodeEPNS2_4NodeEPNS2_6BranchEPS4_ @4561
    _ZN5RTreeIP8MElementdLi3EdLi8ELi4EED0Ev @4562
    _ZN5RTreeIP8MElementdLi3EdLi8ELi4EED1Ev @4563
    _ZN5TupleC1EP7MVertexS1_S1_ @4564
    _ZN5point11getNumEdgesEv @4565
    _ZN5point11getNumNodesEv @4566
    _ZN5point12getDimensionEv @4567
    _ZN5point13getGaussPointEiRdS0_S0_S0_ @4568
    _ZN5point16getShapeFunctionEidddRd @4569
    _ZN5point17getNumGaussPointsEv @4570
    _ZN5point20getGradShapeFunctionEidddPd @4571
    _ZN5point7getEdgeEiRiS0_ @4572
    _ZN5point7getNodeEiRdS0_S0_ @4573
    _ZN5point7xyz2uvwEPdS0_ @4574
    _ZN5point8isInsideEddd @4575
    _ZN5pointD0Ev @4576
    _ZN5pointD1Ev @4577
    _ZN5prism11getNumEdgesEv @4578
    _ZN5prism11getNumNodesEv @4579
    _ZN5prism12getDimensionEv @4580
    _ZN5prism13getGaussPointEiRdS0_S0_S0_ @4581
    _ZN5prism16getShapeFunctionEidddRd @4582
    _ZN5prism17getNumGaussPointsEv @4583
    _ZN5prism20getGradShapeFunctionEidddPd @4584
    _ZN5prism7getEdgeEiRiS0_ @4585
    _ZN5prism7getNodeEiRdS0_S0_ @4586
    _ZN5prism8isInsideEddd @4587
    _ZN5prismD0Ev @4588
    _ZN5prismD1Ev @4589
    _ZN6Filler10get_metricEddd @4590
    _ZN6Filler10get_metricEdddP7GEntity @4591
    _ZN6Filler10print_nodeEP4NodeRSt14basic_ofstreamIcSt11char_traitsIcEE @4592
    _ZN6Filler11improvementEP7GEntityP14MElementOctree7SPoint3d8SVector3 @4593
    _ZN6Filler11treat_modelEv @4594
    _ZN6Filler12new_verticesE @4595 DATA
    _ZN6Filler12treat_regionEP7GRegion @4596
    _ZN6Filler13create_spawnsEP7GEntityP14MElementOctreeP4NodeRSt6vectorIS5_SaIS5_EE @4597
    _ZN6Filler13inside_domainEP14MElementOctreeddd @4598
    _ZN6Filler13print_segmentE7SPoint3S0_RSt14basic_ofstreamIcSt11char_traitsIcEE @4599
    _ZN6Filler14get_new_vertexEi @4600
    _ZN6Filler17far_from_boundaryEP14MElementOctreeP4Node @4601
    _ZN6Filler18compute_parametersEP4NodeP7GEntity @4602
    _ZN6Filler20get_nbr_new_verticesEv @4603
    _ZN6Filler4codeEi @4604
    _ZN6Filler8get_sizeEddd @4605
    _ZN6Filler8get_sizeEdddP7GEntity @4606
    _ZN6FillerC1Ev @4607
    _ZN6FillerC2Ev @4608
    _ZN6FillerD1Ev @4609
    _ZN6FillerD2Ev @4610
    _ZN6GModel10_writeMSH2ERKNSt7__cxx1112basic_stringIcSt11char_traitsIcESaIcEEEdbbbdiibb @4611
    _ZN6GModel10add3DBlockESt6vectorIdSaIdEEddd @4612
    _ZN6GModel10addBSplineEP7GVertexS1_St6vectorIS2_IdSaIdEESaIS4_EE @4613
    _ZN6GModel10deleteMeshEv @4614
    _ZN6GModel10findByNameERKNSt7__cxx1112basic_stringIcSt11char_traitsIcESaIcEEES7_ @4615
    _ZN6GModel10lastRegionEv @4616
    _ZN6GModel10lastVertexEv @4617
    _ZN6GModel10readACTRANERKNSt7__cxx1112basic_stringIcSt11char_traitsIcESaIcEEE @4618
    _ZN6GModel10readSAMCEFERKNSt7__cxx1112basic_stringIcSt11char_traitsIcESaIcEEE @4619
    _ZN6GModel10refineMeshEi @4620
    _ZN6GModel10setCurrentEPS_ @4621
    _ZN6GModel10setFactoryENSt7__cxx1112basic_stringIcSt11char_traitsIcESaIcEEE @4622
    _ZN6GModel10storeChainEiRSt3mapIiSt6vectorIP8MElementSaIS3_EESt4lessIiESaISt4pairIKiS5_EEERS0_IiS0_IiNSt7__cxx1112basic_stringIcSt11char_traitsIcESaIcEEES7_SaIS8_IS9_SJ_EEES7_SaIS8_IS9_SM_EEE @4623
    _ZN6GModel10writeCELUMERKNSt7__cxx1112basic_stringIcSt11char_traitsIcESaIcEEEbd @4624
    _ZN6GModel11add2DellipsEdddd @4625
    _ZN6GModel11addCylinderESt6vectorIdSaIdEES2_d @4626
    _ZN6GModel11firstRegionEv @4627
    _ZN6GModel11firstVertexEv @4628
    _ZN6GModel11readACISSATERKNSt7__cxx1112basic_stringIcSt11char_traitsIcESaIcEEE @4629
    _ZN6GModel11readFourierERKNSt7__cxx1112basic_stringIcSt11char_traitsIcESaIcEEE @4630
    _ZN6GModel11readFourierEv @4631
    _ZN6GModel11readOCCBREPERKNSt7__cxx1112basic_stringIcSt11char_traitsIcESaIcEEE @4632
    _ZN6GModel11readOCCIGESERKNSt7__cxx1112basic_stringIcSt11char_traitsIcESaIcEEE @4633
    _ZN6GModel11readOCCSTEPERKNSt7__cxx1112basic_stringIcSt11char_traitsIcESaIcEEE @4634
    _ZN6GModel11setFileNameENSt7__cxx1112basic_stringIcSt11char_traitsIcESaIcEEE @4635
    _ZN6GModel12createGModelERSt3mapIiP7MVertexSt4lessIiESaISt4pairIKiS2_EEERSt6vectorIiSaIiEERSB_ISD_SaISD_EESE_SE_SE_SE_ @4636
    _ZN6GModel12createGModelERSt3mapIiSt6vectorIP8MElementSaIS3_EESt4lessIiESaISt4pairIKiS5_EEERS0_IiS1_IiSaIiEES7_SaIS8_IS9_SF_EEE @4637
    _ZN6GModel12deleteOctreeEv @4638
    _ZN6GModel12healGeometryEd @4639
    _ZN6GModel12optimizeMeshERKNSt7__cxx1112basic_stringIcSt11char_traitsIcESaIcEEE @4640
    _ZN6GModel12setSelectionEi @4641
    _ZN6GModel12snapVerticesEv @4642
    _ZN6GModel12writeFourierERKNSt7__cxx1112basic_stringIcSt11char_traitsIcESaIcEEE @4643
    _ZN6GModel12writeOCCBREPERKNSt7__cxx1112basic_stringIcSt11char_traitsIcESaIcEEE @4644
    _ZN6GModel12writeOCCSTEPERKNSt7__cxx1112basic_stringIcSt11char_traitsIcESaIcEEE @4645
    _ZN6GModel12writeTOCHNOGERKNSt7__cxx1112basic_stringIcSt11char_traitsIcESaIcEEEbbd @4646
    _ZN6GModel13addPlanarFaceESt6vectorIS0_I11GEdgeSignedSaIS1_EESaIS3_EE @4647
    _ZN6GModel13addPlanarFaceESt6vectorIS0_IP5GEdgeSaIS2_EESaIS4_EE @4648
    _ZN6GModel13addRuledFacesESt6vectorIS0_IP5GEdgeSaIS2_EESaIS4_EE @4649
    _ZN6GModel13classifyFacesERSt3setIP5GFaceSt4lessIS2_ESaIS2_EE @4650
    _ZN6GModel13getMeshStatusEb @4651
    _ZN6GModel13partitionMeshEi @4652
    _ZN6GModel14buildCutGModelEP9gLevelsetbb @4653
    _ZN6GModel14importOCCShapeEPKv @4654
    _ZN6GModel15addCompoundEdgeESt6vectorIP5GEdgeSaIS2_EEi @4655
    _ZN6GModel15addCompoundFaceESt6vectorIP5GFaceSaIS2_EEiii @4656
    _ZN6GModel15addThruSectionsESt6vectorIS0_IP5GEdgeSaIS2_EESaIS4_EE @4657
    _ZN6GModel15computeHomologyEv @4658
    _ZN6GModel15getBoundaryTagsERKSt6vectorISt4pairIiiESaIS2_EERS4_bbb @4659
    _ZN6GModel15getGEOInternalsEv @4660
    _ZN6GModel15getOCCInternalsEv @4661
    _ZN6GModel15setPhysicalNameENSt7__cxx1112basic_stringIcSt11char_traitsIcESaIcEEEii @4662
    _ZN6GModel16classifyAllFacesEv @4663
    _ZN6GModel16fillVertexArraysEv @4664
    _ZN6GModel16noPhysicalGroupsEv @4665
    _ZN6GModel17destroyMeshCachesEv @4666
    _ZN6GModel17getElementaryNameB5cxx11Eii @4667
    _ZN6GModel17getPhysicalNumberERKiRKNSt7__cxx1112basic_stringIcSt11char_traitsIcESaIcEEE @4668
    _ZN6GModel17indexMeshVerticesEbib @4669
    _ZN6GModel18_createFMInternalsEv @4670
    _ZN6GModel18_deleteFMInternalsEv @4671
    _ZN6GModel18_resetOCCInternalsEv @4672
    _ZN6GModel18addCircleArcCenterEP7GVertexS1_S1_ @4673
    _ZN6GModel18addCircleArcCenterEdddP7GVertexS1_ @4674
    _ZN6GModel18addHomologyRequestERKNSt7__cxx1112basic_stringIcSt11char_traitsIcESaIcEEERSt6vectorIiSaIiEESB_SB_ @4675
    _ZN6GModel18checkMeshCoherenceEd @4676
    _ZN6GModel18createOCCInternalsEv @4677
    _ZN6GModel18getEdgeForOCCShapeEPKv @4678
    _ZN6GModel18getFaceForOCCShapeEPKv @4679
    _ZN6GModel18getMeshVertexByTagEi @4680
    _ZN6GModel18getNumMeshElementsEPj @4681
    _ZN6GModel18getNumMeshElementsEv @4682
    _ZN6GModel19_createGEOInternalsEv @4683
    _ZN6GModel19_deleteGEOInternalsEv @4684
    _ZN6GModel19_deleteOCCInternalsEv @4685
    _ZN6GModel19addCircleArc3PointsEdddP7GVertexS1_ @4686
    _ZN6GModel19computeBooleanUnionEPS_i @4687
    _ZN6GModel19deletePhysicalGroupEii @4688
    _ZN6GModel19getMeshElementByTagEi @4689
    _ZN6GModel19getMeshElementIndexEP8MElement @4690
    _ZN6GModel19setMeshElementIndexEP8MElementi @4691
    _ZN6GModel19setPeriodicAllFacesESt6vectorIdSaIdEE @4692
    _ZN6GModel19writePartitionedMSHERKNSt7__cxx1112basic_stringIcSt11char_traitsIcESaIcEEEdbbbd @4693
    _ZN6GModel20deleteMeshPartitionsEv @4694
    _ZN6GModel20deletePhysicalGroupsEv @4695
    _ZN6GModel20extrudeBoundaryLayerEP7GEntityidii @4696
    _ZN6GModel20getMaxPhysicalNumberEi @4697
    _ZN6GModel20getRegionForOCCShapeEPKv @4698
    _ZN6GModel20getVertexForOCCShapeEPKv @4699
    _ZN6GModel21_writePartitionedMSH2ERKNSt7__cxx1112basic_stringIcSt11char_traitsIcESaIcEEEbbbd @4700
    _ZN6GModel21getMeshElementByCoordER7SPoint3ib @4701
    _ZN6GModel21setAllVolumesPositiveEv @4702
    _ZN6GModel21setCompoundVisibilityEv @4703
    _ZN6GModel22createTopologyFromMeshEi @4704
    _ZN6GModel22getMaxElementaryNumberEi @4705
    _ZN6GModel22getMeshElementsByCoordER7SPoint3ib @4706
    _ZN6GModel22getTagsForPhysicalNameEiNSt7__cxx1112basic_stringIcSt11char_traitsIcESaIcEEE @4707
    _ZN6GModel22setPeriodicPairOfFacesEiSt6vectorIiSaIiEEiS2_ @4708
    _ZN6GModel23alignPeriodicBoundariesEv @4709
    _ZN6GModel23createTopologyFromFacesERSt6vectorIP12discreteFaceSaIS2_EEi @4710
    _ZN6GModel23recomputeMeshPartitionsEv @4711
    _ZN6GModel23removeInvisibleElementsEv @4712
    _ZN6GModel24_storeElementsInEntitiesERSt3mapIiSt6vectorIP8MElementSaIS3_EESt4lessIiESaISt4pairIKiS5_EEE @4713
    _ZN6GModel24_storeVerticesInEntitiesERSt3mapIiP7MVertexSt4lessIiESaISt4pairIKiS2_EEE @4714
    _ZN6GModel24_storeVerticesInEntitiesERSt6vectorIP7MVertexSaIS2_EE @4715
    _ZN6GModel24computeBooleanDifferenceEPS_i @4716
    _ZN6GModel24getNumMeshParentElementsEv @4717
    _ZN6GModel25createPartitionBoundariesEii @4718
    _ZN6GModel25createTopologyFromMeshNewEv @4719
    _ZN6GModel25createTopologyFromRegionsERSt6vectorIP14discreteRegionSaIS2_EE @4720
    _ZN6GModel26_storeParentsInSubElementsERSt3mapIiSt6vectorIP8MElementSaIS3_EESt4lessIiESaISt4pairIKiS5_EEE @4721
    _ZN6GModel26computeBooleanIntersectionEPS_i @4722
    _ZN6GModel26exportDiscreteGEOInternalsEv @4723
    _ZN6GModel27pruneMeshVertexAssociationsEv @4724
    _ZN6GModel27removeDuplicateMeshVerticesEd @4725
    _ZN6GModel28_storePhysicalTagsInEntitiesEiRSt3mapIiS0_IiNSt7__cxx1112basic_stringIcSt11char_traitsIcESaIcEEESt4lessIiESaISt4pairIKiS6_EEES8_SaIS9_ISA_SD_EEE @4726
    _ZN6GModel29setAllVolumesPositiveTopologyEv @4727
    _ZN6GModel29setPhysicalNumToEntitiesInBoxEii14SBoundingBox3d @4728
    _ZN6GModel29setPhysicalNumToEntitiesInBoxEiiSt6vectorIdSaIdEES2_ @4729
    _ZN6GModel31getMeshVerticesForPhysicalGroupEiiRSt6vectorIP7MVertexSaIS2_EE @4730
    _ZN6GModel32_associateEntityWithMeshVerticesEv @4731
    _ZN6GModel32makeDiscreteFacesSimplyConnectedEv @4732
    _ZN6GModel33_createGeometryOfDiscreteEntitiesEb @4733
    _ZN6GModel34makeDiscreteRegionsSimplyConnectedEv @4734
    _ZN6GModel4listE @4735 DATA
    _ZN6GModel4loadENSt7__cxx1112basic_stringIcSt11char_traitsIcESaIcEEE @4736
    _ZN6GModel4meshEi @4737
    _ZN6GModel4saveENSt7__cxx1112basic_stringIcSt11char_traitsIcESaIcEEE @4738
    _ZN6GModel5storeERSt6vectorIP7MVertexSaIS2_EEiRSt3mapIiS0_IP8MElementSaIS8_EESt4lessIiESaISt4pairIKiSA_EEERS6_IiS6_IiNSt7__cxx1112basic_stringIcSt11char_traitsIcESaIcEEESC_SaISD_ISE_SO_EEESC_SaISD_ISE_SR_EEE @4739
    _ZN6GModel6boundsEb @4740
    _ZN6GModel6removeEP5GEdge @4741
    _ZN6GModel6removeEP5GFace @4742
    _ZN6GModel6removeEP7GRegion @4743
    _ZN6GModel6removeEP7GVertex @4744
    _ZN6GModel6removeERKSt6vectorISt4pairIiiESaIS2_EEb @4745
    _ZN6GModel6removeEiib @4746
    _ZN6GModel7addConeESt6vectorIdSaIdEES2_dd @4747
    _ZN6GModel7addFaceESt6vectorIP5GEdgeSaIS2_EES0_IS0_IdSaIdEESaIS6_EE @4748
    _ZN6GModel7addLineEP7GVertexS1_ @4749
    _ZN6GModel7addPipeEP7GEntitySt6vectorIP5GEdgeSaIS4_EE @4750
    _ZN6GModel7currentEi @4751
    _ZN6GModel7destroyEb @4752
    _ZN6GModel7extrudeEP7GEntitySt6vectorIdSaIdEES4_ @4753
    _ZN6GModel7readBDFERKNSt7__cxx1112basic_stringIcSt11char_traitsIcESaIcEEE @4754
    _ZN6GModel7readGEOERKNSt7__cxx1112basic_stringIcSt11char_traitsIcESaIcEEE @4755
    _ZN6GModel7readMEDERKNSt7__cxx1112basic_stringIcSt11char_traitsIcESaIcEEE @4756
    _ZN6GModel7readMEDERKNSt7__cxx1112basic_stringIcSt11char_traitsIcESaIcEEEi @4757
    _ZN6GModel7readMSHERKNSt7__cxx1112basic_stringIcSt11char_traitsIcESaIcEEE @4758
    _ZN6GModel7readP3DERKNSt7__cxx1112basic_stringIcSt11char_traitsIcESaIcEEE @4759
    _ZN6GModel7readPLYERKNSt7__cxx1112basic_stringIcSt11char_traitsIcESaIcEEE @4760
    _ZN6GModel7readSTLERKNSt7__cxx1112basic_stringIcSt11char_traitsIcESaIcEEEd @4761
    _ZN6GModel7readUNVERKNSt7__cxx1112basic_stringIcSt11char_traitsIcESaIcEEE @4762
    _ZN6GModel7readVTKERKNSt7__cxx1112basic_stringIcSt11char_traitsIcESaIcEEEb @4763
    _ZN6GModel7revolveEP7GEntitySt6vectorIdSaIdEES4_d @4764
    _ZN6GModel7setNameENSt7__cxx1112basic_stringIcSt11char_traitsIcESaIcEEE @4765
    _ZN6GModel8_currentE @4766 DATA
    _ZN6GModel8addBlockESt6vectorIdSaIdEES2_ @4767
    _ZN6GModel8addNURBSEP7GVertexS1_St6vectorIS2_IdSaIdEESaIS4_EES4_S4_S2_IiSaIiEE @4768
    _ZN6GModel8addTorusESt6vectorIdSaIdEES2_dd @4769
    _ZN6GModel8lastEdgeEv @4770
    _ZN6GModel8lastFaceEv @4771
    _ZN6GModel8readCGNSERKNSt7__cxx1112basic_stringIcSt11char_traitsIcESaIcEEE @4772
    _ZN6GModel8readDIFFERKNSt7__cxx1112basic_stringIcSt11char_traitsIcESaIcEEE @4773
    _ZN6GModel8readGEOMERKNSt7__cxx1112basic_stringIcSt11char_traitsIcESaIcEEE @4774
    _ZN6GModel8readMESHERKNSt7__cxx1112basic_stringIcSt11char_traitsIcESaIcEEE @4775
    _ZN6GModel8readPLY2ERKNSt7__cxx1112basic_stringIcSt11char_traitsIcESaIcEEE @4776
    _ZN6GModel8readVRMLERKNSt7__cxx1112basic_stringIcSt11char_traitsIcESaIcEEE @4777
    _ZN6GModel8writeBDFERKNSt7__cxx1112basic_stringIcSt11char_traitsIcESaIcEEEiibd @4778
    _ZN6GModel8writeGEOERKNSt7__cxx1112basic_stringIcSt11char_traitsIcESaIcEEEbb @4779
    _ZN6GModel8writeINPERKNSt7__cxx1112basic_stringIcSt11char_traitsIcESaIcEEEbbd @4780
    _ZN6GModel8writeIR3ERKNSt7__cxx1112basic_stringIcSt11char_traitsIcESaIcEEEibd @4781
    _ZN6GModel8writeMEDERKNSt7__cxx1112basic_stringIcSt11char_traitsIcESaIcEEEbd @4782
    _ZN6GModel8writeMSHERKNSt7__cxx1112basic_stringIcSt11char_traitsIcESaIcEEEdbbbdiib @4783
    _ZN6GModel8writeNEUERKNSt7__cxx1112basic_stringIcSt11char_traitsIcESaIcEEEbd @4784
    _ZN6GModel8writeP3DERKNSt7__cxx1112basic_stringIcSt11char_traitsIcESaIcEEEbd @4785
    _ZN6GModel8writePOSERKNSt7__cxx1112basic_stringIcSt11char_traitsIcESaIcEEEbbbbbbbd @4786
    _ZN6GModel8writeSTLERKNSt7__cxx1112basic_stringIcSt11char_traitsIcESaIcEEEbbd @4787
    _ZN6GModel8writeSU2ERKNSt7__cxx1112basic_stringIcSt11char_traitsIcESaIcEEEbd @4788
    _ZN6GModel8writeUNVERKNSt7__cxx1112basic_stringIcSt11char_traitsIcESaIcEEEbbd @4789
    _ZN6GModel8writeVTKERKNSt7__cxx1112basic_stringIcSt11char_traitsIcESaIcEEEbbdb @4790
    _ZN6GModel9_readMSH2ERKNSt7__cxx1112basic_stringIcSt11char_traitsIcESaIcEEE @4791
    _ZN6GModel9adaptMeshESt6vectorIiSaIiEES0_IP14simpleFunctionIdESaIS5_EES0_IS0_IdSaIdEESaIS9_EEib @4792
    _ZN6GModel9add2DrectEdddd @4793
    _ZN6GModel9addBezierEP7GVertexS1_St6vectorIS2_IdSaIdEESaIS4_EE @4794
    _ZN6GModel9addSphereEdddd @4795
    _ZN6GModel9addVertexEdddd @4796
    _ZN6GModel9addVolumeESt6vectorIS0_IP5GFaceSaIS2_EESaIS4_EE @4797
    _ZN6GModel9firstEdgeEv @4798
    _ZN6GModel9firstFaceEv @4799
    _ZN6GModel9getFieldsEv @4800
    _ZN6GModel9scaleMeshEd @4801
    _ZN6GModel9setOrderNEiii @4802
    _ZN6GModel9writeCGNSERKNSt7__cxx1112basic_stringIcSt11char_traitsIcESaIcEEEiRK11CGNSOptionsd @4803
    _ZN6GModel9writeDIFFERKNSt7__cxx1112basic_stringIcSt11char_traitsIcESaIcEEEbbd @4804
    _ZN6GModel9writeMAILERKNSt7__cxx1112basic_stringIcSt11char_traitsIcESaIcEEEbd @4805
    _ZN6GModel9writeMESHERKNSt7__cxx1112basic_stringIcSt11char_traitsIcESaIcEEEibd @4806
    _ZN6GModel9writePLY2ERKNSt7__cxx1112basic_stringIcSt11char_traitsIcESaIcEEE @4807
    _ZN6GModel9writeVRMLERKNSt7__cxx1112basic_stringIcSt11char_traitsIcESaIcEEEbd @4808
    _ZN6GModelC1ENSt7__cxx1112basic_stringIcSt11char_traitsIcESaIcEEE @4809
    _ZN6GModelC2ENSt7__cxx1112basic_stringIcSt11char_traitsIcESaIcEEE @4810
    _ZN6GModelD0Ev @4811
    _ZN6GModelD1Ev @4812
    _ZN6GModelD2Ev @4813
    _ZN6GPoint1xEv @4814
    _ZN6GPoint1yEv @4815
    _ZN6GPoint1zEv @4816
    _ZN6GPointC1EdddPK7GEntity @4817
    _ZN6MLine310discretizeEdRSt6vectorI7SPoint3SaIS1_EERS0_IdSaIdEE @4818
    _ZN6MLine310getEdgeRepEbiPdS0_S0_P8SVector3 @4819
    _ZN6MLine312getVertexINPEi @4820
    _ZN6MLine312getVertexUNVEi @4821
    _ZN6MLine314getNumEdgesRepEb @4822
    _ZN6MLine39getVertexEi @4823
    _ZN6MLine39setVertexEiP7MVertex @4824
    _ZN6MLine3D0Ev @4825
    _ZN6MLine3D1Ev @4826
    _ZN6MLineN10discretizeEdRSt6vectorI7SPoint3SaIS1_EERS0_IdSaIdEE @4827
    _ZN6MLineN10getEdgeRepEbiPdS0_S0_P8SVector3 @4828
    _ZN6MLineN14getNumEdgesRepEb @4829
    _ZN6MLineN7reverseEv @4830
    _ZN6MLineN9getVertexEi @4831
    _ZN6MLineN9setVertexEiP7MVertex @4832
    _ZN6MLineND0Ev @4833
    _ZN6MLineND1Ev @4834
    _ZN6MPoint10getEdgeRepEbiPdS0_S0_P8SVector3 @4835
    _ZN6MPoint10getFaceRepEbiPdS0_S0_P8SVector3 @4836
    _ZN6MPoint11getNumFacesEv @4837
    _ZN6MPoint14getNumEdgesRepEb @4838
    _ZN6MPoint14getNumFacesRepEb @4839
    _ZN6MPoint20getIntegrationPointsEiPiPP5IntPt @4840
    _ZN6MPoint7getFaceEi @4841
    _ZN6MPoint9getVertexEi @4842
    _ZN6MPoint9setVertexEiP7MVertex @4843
    _ZN6MPointD0Ev @4844
    _ZN6MPointD1Ev @4845
    _ZN6MPrism10getEdgeRepEbiPdS0_S0_P8SVector3 @4846
    _ZN6MPrism10getFaceRepEbiPdS0_S0_P8SVector3 @4847
    _ZN6MPrism11getNumFacesEv @4848
    _ZN6MPrism13getVolumeSignEv @4849
    _ZN6MPrism14getInnerRadiusEv @4850
    _ZN6MPrism14getNumEdgesRepEb @4851
    _ZN6MPrism14getNumFacesRepEb @4852
    _ZN6MPrism17gammaShapeMeasureEv @4853
    _ZN6MPrism20getIntegrationPointsEiPiPP5IntPt @4854
    _ZN6MPrism7getFaceEi @4855
    _ZN6MPrism7reverseEv @4856
    _ZN6MPrism9getVertexEi @4857
    _ZN6MPrism9setVertexEiP7MVertex @4858
    _ZN6MPrismD0Ev @4859
    _ZN6MPrismD1Ev @4860
    _ZN6Metric7get_m11Ev @4861
    _ZN6Metric7get_m12Ev @4862
    _ZN6Metric7get_m13Ev @4863
    _ZN6Metric7get_m21Ev @4864
    _ZN6Metric7get_m22Ev @4865
    _ZN6Metric7get_m23Ev @4866
    _ZN6Metric7get_m31Ev @4867
    _ZN6Metric7get_m32Ev @4868
    _ZN6Metric7get_m33Ev @4869
    _ZN6Metric7set_m11Ed @4870
    _ZN6Metric7set_m12Ed @4871
    _ZN6Metric7set_m13Ed @4872
    _ZN6Metric7set_m21Ed @4873
    _ZN6Metric7set_m22Ed @4874
    _ZN6Metric7set_m23Ed @4875
    _ZN6Metric7set_m31Ed @4876
    _ZN6Metric7set_m32Ed @4877
    _ZN6Metric7set_m33Ed @4878
    _ZN6MetricC1Ev @4879
    _ZN6MetricC2Ev @4880
    _ZN6MetricD1Ev @4881
    _ZN6MetricD2Ev @4882
    _ZN6PELineC1ERKSt6vectorIP7MVertexSaIS2_EE @4883
    _ZN6PELineC2ERKSt6vectorIP7MVertexSaIS2_EE @4884
    _ZN6PELineD0Ev @4885
    _ZN6PELineD1Ev @4886
    _ZN6PELineD2Ev @4887
    _ZN6PostOp10executeNewEP7GRegion @4888
    _ZN6PostOp10statisticsEP7GRegion @4889
    _ZN6PostOp10workaroundEP8MElement @4890
    _ZN6PostOp12build_tuplesEP7GRegion @4891
    _ZN6PostOp12intersectionERKSt3setIP8MElementSt4lessIS2_ESaIS2_EES8_RS6_ @4892
    _ZN6PostOp12split_prismsEP7GRegion @4893
    _ZN6PostOp13findInTriFaceEP7MVertexS1_S1_S1_P8MElement @4894
    _ZN6PostOp13find_pyramidsEP7MVertexS1_RSt3setIP8MElementSt4lessIS4_ESaIS4_EE @4895
    _ZN6PostOp13find_quadFaceEP7MVertexS1_S1_ @4896
    _ZN6PostOp13init_markingsEP7GRegion @4897
    _ZN6PostOp13matchQuadFaceER5MFaceP7MVertexS3_S3_ @4898
    _ZN6PostOp13removeElseAddERSt3setI5FacetSt4lessIS1_ESaIS1_EEP7MVertexS8_S8_ @4899
    _ZN6PostOp14nonConformDiagEP7MVertexS1_S1_S1_P7GRegion @4900
    _ZN6PostOp14split_pyramidsEP7GRegion @4901
    _ZN6PostOp15find_tetrahedraEP7MVertexS1_RSt3setIP8MElementSt4lessIS4_ESaIS4_EE @4902
    _ZN6PostOp15find_tetrahedraEP7MVertexS1_S1_RSt3setIP8MElementSt4lessIS4_ESaIS4_EE @4903
    _ZN6PostOp15split_hexahedraEP7GRegion @4904
    _ZN6PostOp17init_markings_hexEP7GRegion @4905
    _ZN6PostOp17init_markings_priEP7GRegion @4906
    _ZN6PostOp17init_markings_pyrEP7GRegion @4907
    _ZN6PostOp19otherVertexQuadFaceER5MFaceP7MVertexS3_S3_ @4908
    _ZN6PostOp22find_pyramids_from_triEP7MVertexS1_S1_RSt3setIP8MElementSt4lessIS4_ESaIS4_EE @4909
    _ZN6PostOp23find_pyramids_from_quadEP7MVertexS1_S1_S1_RSt3setIP8MElementSt4lessIS4_ESaIS4_EE @4910
    _ZN6PostOp24build_vertex_to_hexPrismEP7GRegion @4911
    _ZN6PostOp24build_vertex_to_hexPrismEP8MElement @4912
    _ZN6PostOp24build_vertex_to_pyramidsEP7GRegion @4913
    _ZN6PostOp24build_vertex_to_pyramidsEP8MElement @4914
    _ZN6PostOp24create_quads_on_boundaryEP7GRegion @4915
    _ZN6PostOp24create_quads_on_boundaryEP7MVertexS1_S1_S1_ @4916
    _ZN6PostOp24erase_vertex_to_hexPrismEP8MElement @4917
    _ZN6PostOp24erase_vertex_to_pyramidsEP8MElement @4918
    _ZN6PostOp26build_vertex_to_tetrahedraEP7GRegion @4919
    _ZN6PostOp26build_vertex_to_tetrahedraEP8MElement @4920
    _ZN6PostOp26erase_vertex_to_tetrahedraEP8MElement @4921
    _ZN6PostOp3sixEP8MElement @4922
    _ZN6PostOp4findEP7MVertexS1_S1_S1_P8MElement @4923
    _ZN6PostOp4fiveEP8MElement @4924
    _ZN6PostOp4fourEP8MElement @4925
    _ZN6PostOp4meanERKSt3setIP7MVertexSt4lessIS2_ESaIS2_EES2_RKSt6vectorIP8MElementSaISB_EE @4926
    _ZN6PostOp5eightEP8MElement @4927
    _ZN6PostOp5equalEP7MVertexS1_S1_S1_ @4928
    _ZN6PostOp5equalEP7MVertexS1_S1_S1_S1_S1_S1_S1_ @4929
    _ZN6PostOp5otherEP8MElementP7MVertexS3_ @4930
    _ZN6PostOp5otherEP8MElementP7MVertexS3_S3_ @4931
    _ZN6PostOp5validEP8MPyramid @4932
    _ZN6PostOp7executeEP7GRegionii @4933
    _ZN6PostOp7executeEii @4934
    _ZN6PostOp8fourTrihEP8MElement @4935
    _ZN6PostOp8trihedraEP7GRegion @4936
    _ZN6PostOp8trihedraEP7MVertexS1_S1_S1_P7GRegion @4937
    _ZN6PostOp8writeMSHEPKcRSt6vectorIP8MElementSaIS4_EE @4938
    _ZN6PostOp9differentEP7MVertexS1_S1_S1_ @4939
    _ZN6PostOp9pyramids1EP7GRegion @4940
    _ZN6PostOp9pyramids1EP7MVertexS1_S1_S1_P7GRegion @4941
    _ZN6PostOp9pyramids2EP7GRegionb @4942
    _ZN6PostOp9pyramids2EP7MVertexS1_S1_S1_P7GRegionb @4943
    _ZN6PostOp9rearrangeEP7GRegion @4944
    _ZN6PostOpC1Ev @4945
    _ZN6PostOpC2Ev @4946
    _ZN6PostOpD1Ev @4947
    _ZN6PostOpD2Ev @4948
    _ZN6Struct6appendEiRSt3mapINSt7__cxx1112basic_stringIcSt11char_traitsIcESaIcEEESt6vectorIdSaIdEESt4lessIS6_ESaISt4pairIKS6_S9_EEERS0_IS6_S7_IS6_SaIS6_EESB_SaISC_ISD_SJ_EEEi @4949
    _ZN6StructC1EiRSt3mapINSt7__cxx1112basic_stringIcSt11char_traitsIcESaIcEEESt6vectorIdSaIdEESt4lessIS6_ESaISt4pairIKS6_S9_EEERS0_IS6_S7_IS6_SaIS6_EESB_SaISC_ISD_SJ_EEEi @4950
    _ZN6StructC1Ev @4951
    _ZN6StructD1Ev @4952
    _ZN6StructaSERKS_ @4953
    _ZN6Tensor7get_t11Ev @4954
    _ZN6Tensor7get_t12Ev @4955
    _ZN6Tensor7get_t13Ev @4956
    _ZN6Tensor7get_t21Ev @4957
    _ZN6Tensor7get_t22Ev @4958
    _ZN6Tensor7get_t23Ev @4959
    _ZN6Tensor7get_t31Ev @4960
    _ZN6Tensor7get_t32Ev @4961
    _ZN6Tensor7get_t33Ev @4962
    _ZN6Tensor7set_t11Ed @4963
    _ZN6Tensor7set_t12Ed @4964
    _ZN6Tensor7set_t13Ed @4965
    _ZN6Tensor7set_t21Ed @4966
    _ZN6Tensor7set_t22Ed @4967
    _ZN6Tensor7set_t23Ed @4968
    _ZN6Tensor7set_t31Ed @4969
    _ZN6Tensor7set_t32Ed @4970
    _ZN6Tensor7set_t33Ed @4971
    _ZN6TensorC1Ev @4972
    _ZN6TensorC2Ev @4973
    _ZN6TensorD1Ev @4974
    _ZN6TensorD2Ev @4975
    _ZN7BGMBase11findElementEdddb @4976
    _ZN7BGMBase15get_field_valueEdddRKSt3mapIP7MVertexSt6vectorIdSaIdEESt4lessIS2_ESaISt4pairIKS2_S5_EEE @4977
    _ZN7BGMBase15get_field_valueEdddRKSt3mapIP7MVertexdSt4lessIS2_ESaISt4pairIKS2_dEEE @4978
    _ZN7BGMBase20getBackgroundGEntityEv @4979
    _ZN7BGMBase27get_vertices_of_maximum_dimEi @4980
    _ZN7BGMBase4sizeEPK7MVertex @4981
    _ZN7BGMBase4sizeEddd @4982
    _ZN7BGMBase8inDomainEddd @4983
    _ZN7BGMBaseC1EiP7GEntity @4984
    _ZN7BGMBaseC2EiP7GEntity @4985
    _ZN7BGMBaseD1Ev @4986
    _ZN7BGMBaseD2Ev @4987
    _ZN7GEntity10deleteMeshEv @4988
    _ZN7GEntity11cast2RegionEv @4989
    _ZN7GEntity11cast2VertexEv @4990
    _ZN7GEntity12getSelectionEv @4991
    _ZN7GEntity12setSelectionEc @4992
    _ZN7GEntity13getInfoStringB5cxx11Ev @4993
    _ZN7GEntity13getTypeStringB5cxx11Ev @4994
    _ZN7GEntity13getVisibilityEv @4995
    _ZN7GEntity13setMeshMasterEPS_ @4996
    _ZN7GEntity13setMeshMasterEPS_RKSt6vectorIdSaIdEE @4997
    _ZN7GEntity13setVisibilityEcb @4998
    _ZN7GEntity14getMeshElementEj @4999
    _ZN7GEntity14updateVerticesERKSt3mapIP7MVertexS2_St4lessIS2_ESaISt4pairIKS2_S2_EEE @5000
    _ZN7GEntity17addPhysicalEntityEi @5001
    _ZN7GEntity18deleteVertexArraysEv @5002
    _ZN7GEntity18getNumMeshElementsEv @5003
    _ZN7GEntity19getPhysicalEntitiesEv @5004
    _ZN7GEntity19haveParametrizationEv @5005
    _ZN7GEntity19resetMeshAttributesEv @5006
    _ZN7GEntity20relocateMeshVerticesEv @5007
    _ZN7GEntity23getAdditionalInfoStringB5cxx11Ev @5008
    _ZN7GEntity24getNumMeshParentElementsEv @5009
    _ZN7GEntity4meshEb @5010
    _ZN7GEntity6getOBBEv @5011
    _ZN7GEntity8getColorEv @5012
    _ZN7GEntity8setColorEjb @5013
    _ZN7GEntity8useColorEv @5014
    _ZN7GEntity9cast2EdgeEv @5015
    _ZN7GEntity9cast2FaceEv @5016
    _ZN7GEntityC1EP6GModeli @5017
    _ZN7GEntityC2EP6GModeli @5018
    _ZN7GEntityD0Ev @5019
    _ZN7GEntityD1Ev @5020
    _ZN7GEntityD2Ev @5021
    _ZN7GRegion10addElementEiP8MElement @5022
    _ZN7GRegion10deleteMeshEv @5023
    _ZN7GRegion12replaceFacesERNSt7__cxx114listIP5GFaceSaIS3_EEE @5024
    _ZN7GRegion13embeddedEdgesB5cxx11Ev @5025
    _ZN7GRegion13setVisibilityEcb @5026
    _ZN7GRegion14getMeshElementEj @5027
    _ZN7GRegion15addEmbeddedEdgeEP5GEdge @5028
    _ZN7GRegion15addEmbeddedFaceEP5GFace @5029
    _ZN7GRegion16embeddedVerticesB5cxx11Ev @5030
    _ZN7GRegion17addEmbeddedVertexEP7GVertex @5031
    _ZN7GRegion18getNumMeshElementsEv @5032
    _ZN7GRegion19resetMeshAttributesEv @5033
    _ZN7GRegion20replaceFacesInternalERNSt7__cxx114listIP5GFaceSaIS3_EEE @5034
    _ZN7GRegion22computeSolidPropertiesESt6vectorIdSaIdEES2_ @5035
    _ZN7GRegion23getAdditionalInfoStringB5cxx11Ev @5036
    _ZN7GRegion24getNumMeshParentElementsEv @5037
    _ZN7GRegion6getOBBEv @5038
    _ZN7GRegion8setColorEjb @5039
    _ZN7GRegion8writeGEOEP6_iobuf @5040
    _ZN7GRegionC1EP6GModeli @5041
    _ZN7GRegionC2EP6GModeli @5042
    _ZN7GRegionD0Ev @5043
    _ZN7GRegionD1Ev @5044
    _ZN7GRegionD2Ev @5045
    _ZN7GVertex10deleteMeshEv @5046
    _ZN7GVertex11setPositionER6GPoint @5047
    _ZN7GVertex14getMeshElementEj @5048
    _ZN7GVertex18getNumMeshElementsEv @5049
    _ZN7GVertex19resetMeshAttributesEv @5050
    _ZN7GVertex20relocateMeshVerticesEv @5051
    _ZN7GVertex23getAdditionalInfoStringB5cxx11Ev @5052
    _ZN7GVertex29setPrescribedMeshSizeAtVertexEd @5053
    _ZN7GVertex7addEdgeEP5GEdge @5054
    _ZN7GVertex7delEdgeEP5GEdge @5055
    _ZN7GVertex8writeGEOEP6_iobufRKNSt7__cxx1112basic_stringIcSt11char_traitsIcESaIcEEE @5056
    _ZN7GVertexC1EP6GModelid @5057
    _ZN7GVertexC2EP6GModelid @5058
    _ZN7GVertexD0Ev @5059
    _ZN7GVertexD1Ev @5060
    _ZN7GVertexD2Ev @5061
    _ZN7GamePad10read_eventEv @5062
    _ZN7GamePad6toggleEi @5063
    _ZN7GamePad7afficheEv @5064
    _ZN7GamePadC1Ev @5065
    _ZN7GamePadC2Ev @5066
    _ZN7GamePadD1Ev @5067
    _ZN7GamePadD2Ev @5068
    _ZN7MPrismN10getEdgeRepEbiPdS0_S0_P8SVector3 @5069
    _ZN7MPrismN10getFaceRepEbiPdS0_S0_P8SVector3 @5070
    _ZN7MPrismN14getNumEdgesRepEb @5071
    _ZN7MPrismN14getNumFacesRepEb @5072
    _ZN7MPrismN25_order2indicesReversedPriE @5073 DATA
    _ZN7MPrismN7reverseEv @5074
    _ZN7MPrismN9getVertexEi @5075
    _ZN7MPrismN9setVertexEiP7MVertex @5076
    _ZN7MPrismNC1ERKSt6vectorIP7MVertexSaIS2_EEcii @5077
    _ZN7MPrismND0Ev @5078
    _ZN7MPrismND1Ev @5079
    _ZN7MVertex10deleteLastEv @5080
    _ZN7MVertex12setParameterEid @5081
    _ZN7MVertex12writeTOCHNOGEP6_iobufid @5082
    _ZN7MVertex13getVisibilityEv @5083
    _ZN7MVertex13setVisibilityEc @5084
    _ZN7MVertex8forceNumEi @5085
    _ZN7MVertex8writeBDFEP6_iobufid @5086
    _ZN7MVertex8writeINPEP6_iobufd @5087
    _ZN7MVertex8writeMSHEP6_iobufbbd @5088
    _ZN7MVertex8writeNEUEP6_iobufid @5089
    _ZN7MVertex8writeSU2EP6_iobufid @5090
    _ZN7MVertex8writeUNVEP6_iobufd @5091
    _ZN7MVertex8writeVTKEP6_iobufbdb @5092
    _ZN7MVertex9writeDIFFEP6_iobufbd @5093
    _ZN7MVertex9writeMESHEP6_iobufd @5094
    _ZN7MVertex9writeMSH2EP6_iobufbbd @5095
    _ZN7MVertex9writePLY2EP6_iobuf @5096
    _ZN7MVertex9writeVRMLEP6_iobufd @5097
    _ZN7MVertexC1EdddP7GEntityi @5098
    _ZN7MVertexC2EdddP7GEntityi @5099
    _ZN7MVertexD0Ev @5100
    _ZN7MVertexD1Ev @5101
    _ZN7SPoint2C1ERKS_ @5102
    _ZN7SPoint2C1Edd @5103
    _ZN7SPoint2D0Ev @5104
    _ZN7SPoint2D1Ev @5105
    _ZN7SPoint2aSERKS_ @5106
    _ZN7SPoint3C1ERKS_ @5107
    _ZN7SPoint3C1Eddd @5108
    _ZN7SPoint3C1Ev @5109
    _ZN7SPoint3D0Ev @5110
    _ZN7SPoint3D1Ev @5111
    _ZN7SPoint3aSERKS_ @5112
    _ZN7SPoint3ixEi @5113
    _ZN7Structs9defStructERNSt7__cxx1112basic_stringIcSt11char_traitsIcESaIcEEERSt3mapIS5_St6vectorIdSaIdEESt4lessIS5_ESaISt4pairIKS5_SA_EEERS7_IS5_S8_IS5_SaIS5_EESC_SaISD_ISE_SK_EEEib @5114
    _ZN7StructsC1Ev @5115
    _ZN7StructsD1Ev @5116
    _ZN7VTKData11initVTKFileEv @5117
    _ZN7VTKData13getPVCellTypeEi @5118
    _ZN7VTKData14isLittleEndianEv @5119
    _ZN7VTKData15finalizeVTKFileEv @5120
    _ZN7VTKData15writeVTKElmDataEv @5121
    _ZN7VTKData18SwapArrayByteOrderEPvii @5122
    _ZN7VTKDataD1Ev @5123
    _ZN7Wrapper10get_parentEv @5124
    _ZN7Wrapper10set_parentEP4Node @5125
    _ZN7Wrapper14get_individualEv @5126
    _ZN7Wrapper14set_individualEP4Node @5127
    _ZN7Wrapper6get_okEv @5128
    _ZN7Wrapper6set_okEb @5129
    _ZN7WrapperC1EP4NodeS1_ @5130
    _ZN7WrapperC1Ev @5131
    _ZN7WrapperC2EP4NodeS1_ @5132
    _ZN7WrapperC2Ev @5133
    _ZN7WrapperD1Ev @5134
    _ZN7WrapperD2Ev @5135
    _ZN7cross3D11correspQuatEv @5136
    _ZN7cross3D6rotateERK3Qtn @5137
    _ZN7cross3DC1ERK8STensor3 @5138
    _ZN7element11getJacobianEdddPA3_d @5139
    _ZN7element13integrateFluxEPd @5140
    _ZN7element20integrateCirculationEPd @5141
    _ZN7element3TOLE @5142 DATA
    _ZN7element6getXYZEiRdS0_S0_ @5143
    _ZN7element7xyz2uvwEPdS0_ @5144
    _ZN7pyramid11getNumEdgesEv @5145
    _ZN7pyramid11getNumNodesEv @5146
    _ZN7pyramid12getDimensionEv @5147
    _ZN7pyramid13getGaussPointEiRdS0_S0_S0_ @5148
    _ZN7pyramid16getShapeFunctionEidddRd @5149
    _ZN7pyramid17getNumGaussPointsEv @5150
    _ZN7pyramid20getGradShapeFunctionEidddPd @5151
    _ZN7pyramid7getEdgeEiRiS0_ @5152
    _ZN7pyramid7getNodeEiRdS0_S0_ @5153
    _ZN7pyramid8isInsideEddd @5154
    _ZN7pyramidD0Ev @5155
    _ZN7pyramidD1Ev @5156
    _ZN7qmPrism6minNCJEPK6MPrism @5157
    _ZN8BDS_Edge3delEP8BDS_Face @5158
    _ZN8BDS_Edge6updateEv @5159
    _ZN8BDS_Edge7addfaceEP8BDS_Face @5160
    _ZN8BDS_EdgeC1EP9BDS_PointS1_ @5161
    _ZN8BDS_EdgeD1Ev @5162
    _ZN8BDS_Face12oppositeEdgeEP9BDS_Point @5163
    _ZN8BDS_Face14oppositeVertexEP8BDS_Edge @5164
    _ZN8BDS_FaceC1EP8BDS_EdgeS1_S1_S1_ @5165
    _ZN8BDS_Mesh10find_pointEi @5166
    _ZN8BDS_Mesh10split_edgeEP8BDS_EdgeP9BDS_Point @5167
    _ZN8BDS_Mesh12add_triangleEP8BDS_EdgeS1_S1_ @5168
    _ZN8BDS_Mesh12add_triangleEiii @5169
    _ZN8BDS_Mesh12recover_edgeEiiRbPSt3setI13EdgeToRecoverSt4lessIS2_ESaIS2_EES7_ @5170
    _ZN8BDS_Mesh13find_triangleEP8BDS_EdgeS1_S1_ @5171
    _ZN8BDS_Mesh17recover_edge_fastEP9BDS_PointS1_ @5172
    _ZN8BDS_Mesh21smooth_point_centroidEP9BDS_PointP5GFaceb @5173
    _ZN8BDS_Mesh23smooth_point_parametricEP9BDS_PointP5GFace @5174
    _ZN8BDS_Mesh24collapse_edge_parametricEP8BDS_EdgeP9BDS_Point @5175
    _ZN8BDS_Mesh7cleanupEv @5176
    _ZN8BDS_Mesh8add_edgeEii @5177
    _ZN8BDS_Mesh8add_geomEii @5178
    _ZN8BDS_Mesh8del_edgeEP8BDS_Edge @5179
    _ZN8BDS_Mesh8del_faceEP8BDS_Face @5180
    _ZN8BDS_Mesh8get_geomEii @5181
    _ZN8BDS_Mesh9add_pointEiddP5GFace @5182
    _ZN8BDS_Mesh9add_pointEiddd @5183
    _ZN8BDS_Mesh9del_pointEP9BDS_Point @5184
    _ZN8BDS_Mesh9find_edgeEP9BDS_PointS1_ @5185
    _ZN8BDS_Mesh9find_edgeEP9BDS_Pointi @5186
    _ZN8BDS_Mesh9find_edgeEii @5187
    _ZN8BDS_Mesh9swap_edgeEP8BDS_EdgeRK16BDS_SwapEdgeTest @5188
    _ZN8BDS_MeshD0Ev @5189
    _ZN8BDS_MeshD1Ev @5190
    _ZN8BDS_MeshD2Ev @5191
    _ZN8BoxField14getDescriptionB5cxx11Ev @5192
    _ZN8BoxField7getNameEv @5193
    _ZN8BoxFieldC1Ev @5194
    _ZN8BoxFieldD0Ev @5195
    _ZN8BoxFieldD1Ev @5196
    _ZN8BoxFieldclEdddP7GEntity @5197
    _ZN8Filler2D14time_insertionE @5198 DATA
    _ZN8Filler2D16pointInsertion2DEP5GFaceRSt6vectorIP7MVertexSaIS4_EERS2_I8SMetric3SaIS8_EE @5199
    _ZN8Filler2D22time_bgm_and_smoothingE @5200 DATA
    _ZN8Filler2DC1Ev @5201
    _ZN8Filler2DC2Ev @5202
    _ZN8Filler2DD1Ev @5203
    _ZN8Filler2DD2Ev @5204
    _ZN8Filler3D12new_verticesE @5205 DATA
    _ZN8Filler3D12time_meshingE @5206 DATA
    _ZN8Filler3D12treat_regionEP7GRegion @5207
    _ZN8Filler3D14get_new_vertexEi @5208
    _ZN8Filler3D14time_smoothingE @5209 DATA
    _ZN8Filler3D18time_insert_pointsE @5210 DATA
    _ZN8Filler3D20get_nbr_new_verticesEv @5211
    _ZN8Filler3DC1Ev @5212
    _ZN8Filler3DC2Ev @5213
    _ZN8Filler3DD1Ev @5214
    _ZN8Filler3DD2Ev @5215
    _ZN8MElement10getInfoMSHEiPPKc @5216
    _ZN8MElement10primaryPntEdddR7SPoint3 @5217
    _ZN8MElement11_getEdgeRepEP7MVertexS1_PdS2_S2_P8SVector3i @5218
    _ZN8MElement11_getFaceRepEP7MVertexS1_S1_PdS2_S2_P8SVector3 @5219
    _ZN8MElement11getValidityEv @5220
    _ZN8MElement11interpolateEPddddii @5221
    _ZN8MElement12getToleranceEv @5222
    _ZN8MElement12getVertexBDFEi @5223
    _ZN8MElement12getVertexINPEi @5224
    _ZN8MElement12getVertexUNVEi @5225
    _ZN8MElement12getVertexVTKEi @5226
    _ZN8MElement12setPartitionEi @5227
    _ZN8MElement12setToleranceEd @5228
    _ZN8MElement12updateParentEP6GModel @5229
    _ZN8MElement12writeTOCHNOGEP6_iobufi @5230
    _ZN8MElement13getInfoStringB5cxx11Ev @5231
    _ZN8MElement13getVertexDIFFEi @5232
    _ZN8MElement13getVolumeSignEv @5233
    _ZN8MElement13idealJacRangeERdS0_P7GEntity @5234
    _ZN8MElement13integrateCircEPdiii @5235
    _ZN8MElement13integrateFluxEPdiii @5236
    _ZN8MElement13setVisibilityEc @5237
    _ZN8MElement14getBaseElementEv @5238
    _ZN8MElement14getInnerRadiusEv @5239
    _ZN8MElement14getOuterRadiusEv @5240
    _ZN8MElement14interpolateDivEPddddii @5241
    _ZN8MElement14specialQualityEv @5242
    _ZN8MElement15etaShapeMeasureEv @5243
    _ZN8MElement15interpolateCurlEPddddS0_ii @5244
    _ZN8MElement15interpolateGradEPddddS0_iPA3_di @5245
    _ZN8MElement15specialQuality2Ev @5246
    _ZN8MElement16getVertexTOCHNOGEi @5247
    _ZN8MElement17angleShapeMeasureEv @5248
    _ZN8MElement17gammaShapeMeasureEv @5249
    _ZN8MElement17minScaledJacobianEbb @5250
    _ZN8MElement17setVolumePositiveEv @5251
    _ZN8MElement18_isInsideToleranceE @5252 DATA
    _ZN8MElement18minIsotropyMeasureEbb @5253
    _ZN8MElement19getVerticesIdForMSHERSt6vectorIiSaIiEE @5254
    _ZN8MElement20getIntegrationPointsEiPiPP5IntPt @5255
    _ZN8MElement20getNumVerticesForMSHEv @5256
    _ZN8MElement20getShapeFunctionNodeEi @5257
    _ZN8MElement21signedInvCondNumRangeERdS0_P7GEntity @5258
    _ZN8MElement23signedInvGradErrorRangeERdS0_ @5259
    _ZN8MElement4copyERSt3mapIiP7MVertexSt4lessIiESaISt4pairIKiS2_EEERS0_IPS_SB_S3_ISB_ESaIS5_IKSB_SB_EEESH_ @5260
    _ZN8MElement7maxEdgeEv @5261
    _ZN8MElement7minEdgeEv @5262
    _ZN8MElement7reverseEv @5263
    _ZN8MElement8skewnessEv @5264
    _ZN8MElement8writeBDFEP6_iobufiiii @5265
    _ZN8MElement8writeINPEP6_iobufi @5266
    _ZN8MElement8writeIR3EP6_iobufiiii @5267
    _ZN8MElement8writeMSHEP6_iobufbiPSt6vectorIsSaIsEE @5268
    _ZN8MElement8writeNEUEP6_iobufjii @5269
    _ZN8MElement8writePOSEP6_iobufbbbbbbdi @5270
    _ZN8MElement8writeSTLEP6_iobufbd @5271
    _ZN8MElement8writeSU2EP6_iobufi @5272
    _ZN8MElement8writeUNVEP6_iobufiii @5273
    _ZN8MElement8writeVTKEP6_iobufbb @5274
    _ZN8MElement9getVolumeEv @5275
    _ZN8MElement9integrateEPdiii @5276
    _ZN8MElement9setDomainEPS_i @5277
    _ZN8MElement9setParentEPS_b @5278
    _ZN8MElement9setVertexEiP7MVertex @5279
    _ZN8MElement9writeDIFFEP6_iobufibi @5280
    _ZN8MElement9writeMESHEP6_iobufiii @5281
    _ZN8MElement9writeMSH2EP6_iobufdbiiiiiiPSt6vectorIsSaIsEE @5282
    _ZN8MElement9writePLY2EP6_iobuf @5283
    _ZN8MElement9writeVRMLEP6_iobuf @5284
    _ZN8MElementC1Eii @5285
    _ZN8MElementC2Eii @5286
    _ZN8MPolygon10getEdgeRepEbiPdS0_S0_P8SVector3 @5287
    _ZN8MPolygon10getFaceRepEbiPdS0_S0_P8SVector3 @5288
    _ZN8MPolygon11getNumFacesEv @5289
    _ZN8MPolygon13_initVerticesEv @5290
    _ZN8MPolygon14getNumEdgesRepEb @5291
    _ZN8MPolygon14getNumFacesRepEb @5292
    _ZN8MPolygon19getVerticesIdForMSHERSt6vectorIiSaIiEE @5293
    _ZN8MPolygon20getIntegrationPointsEiPiPP5IntPt @5294
    _ZN8MPolygon20getNumVerticesForMSHEv @5295
    _ZN8MPolygon20getShapeFunctionNodeEi @5296
    _ZN8MPolygon7getFaceEi @5297
    _ZN8MPolygon7reverseEv @5298
    _ZN8MPolygon9getVertexEi @5299
    _ZN8MPolygon9setParentEP8MElementb @5300
    _ZN8MPolygonD0Ev @5301
    _ZN8MPolygonD1Ev @5302
    _ZN8MPrism1510getEdgeRepEbiPdS0_S0_P8SVector3 @5303
    _ZN8MPrism1510getFaceRepEbiPdS0_S0_P8SVector3 @5304
    _ZN8MPrism1512getVertexBDFEi @5305
    _ZN8MPrism1512getVertexINPEi @5306
    _ZN8MPrism1512getVertexUNVEi @5307
    _ZN8MPrism1514getNumEdgesRepEb @5308
    _ZN8MPrism1514getNumFacesRepEb @5309
    _ZN8MPrism157reverseEv @5310
    _ZN8MPrism159getVertexEi @5311
    _ZN8MPrism159setVertexEiP7MVertex @5312
    _ZN8MPrism15D0Ev @5313
    _ZN8MPrism15D1Ev @5314
    _ZN8MPrism1810getEdgeRepEbiPdS0_S0_P8SVector3 @5315
    _ZN8MPrism1810getFaceRepEbiPdS0_S0_P8SVector3 @5316
    _ZN8MPrism1814getNumEdgesRepEb @5317
    _ZN8MPrism1814getNumFacesRepEb @5318
    _ZN8MPrism187reverseEv @5319
    _ZN8MPrism189getVertexEi @5320
    _ZN8MPrism189setVertexEiP7MVertex @5321
    _ZN8MPrism18D0Ev @5322
    _ZN8MPrism18D1Ev @5323
    _ZN8MPyramid10getEdgeRepEbiPdS0_S0_P8SVector3 @5324
    _ZN8MPyramid10getFaceRepEbiPdS0_S0_P8SVector3 @5325
    _ZN8MPyramid11getNumFacesEv @5326
    _ZN8MPyramid13getVolumeSignEv @5327
    _ZN8MPyramid14getNumEdgesRepEb @5328
    _ZN8MPyramid14getNumFacesRepEb @5329
    _ZN8MPyramid20getIntegrationPointsEiPiPP5IntPt @5330
    _ZN8MPyramid7getFaceEi @5331
    _ZN8MPyramid7reverseEv @5332
    _ZN8MPyramid9getVertexEi @5333
    _ZN8MPyramid9setVertexEiP7MVertex @5334
    _ZN8MPyramidD0Ev @5335
    _ZN8MPyramidD1Ev @5336
    _ZN8MSubLine12updateParentEP6GModel @5337
    _ZN8MSubLine14getBaseElementEv @5338
    _ZN8MSubLine14setMultiParentERSt6vectorIP8MElementSaIS2_EEb @5339
    _ZN8MSubLine20getIntegrationPointsEiPiPP5IntPt @5340
    _ZN8MSubLine20getShapeFunctionNodeEi @5341
    _ZN8MSubLine9setParentEP8MElementb @5342
    _ZN8MSubLineD0Ev @5343
    _ZN8MSubLineD1Ev @5344
    _ZN8MSubLineD2Ev @5345
    _ZN8MaxField14getDescriptionB5cxx11Ev @5346
    _ZN8MaxField7getNameEv @5347
    _ZN8MaxFieldD0Ev @5348
    _ZN8MaxFieldD1Ev @5349
    _ZN8MaxFieldclEdddP7GEntity @5350
    _ZN8MinField14getDescriptionB5cxx11Ev @5351
    _ZN8MinField7getNameEv @5352
    _ZN8MinFieldD0Ev @5353
    _ZN8MinFieldD1Ev @5354
    _ZN8MinFieldclEdddP7GEntity @5355
    _ZN8PEEntity12compute_hashEv @5356
    _ZN8PEEntityC1ERKSt6vectorIP7MVertexSaIS2_EE @5357
    _ZN8PEEntityC2ERKSt6vectorIP7MVertexSaIS2_EE @5358
    _ZN8PEEntityD0Ev @5359
    _ZN8PEEntityD1Ev @5360
    _ZN8PEEntityD2Ev @5361
    _ZN8SMetric3C1EdddRK8SVector3S2_S2_ @5362
    _ZN8gmshEdge10discretizeEdRSt6vectorI7SPoint3SaIS1_EERS0_IdSaIdEE @5363
    _ZN8gmshEdge14resetNativePtrEP5CurveP7GVertexS3_ @5364
    _ZN8gmshEdge19resetMeshAttributesEv @5365
    _ZN8gmshEdge23getAdditionalInfoStringB5cxx11Ev @5366
    _ZN8gmshEdge8writeGEOEP6_iobuf @5367
    _ZN8gmshEdgeC1EP6GModelP5CurveP7GVertexS5_ @5368
    _ZN8gmshEdgeC2EP6GModelP5CurveP7GVertexS5_ @5369
    _ZN8gmshEdgeD0Ev @5370
    _ZN8gmshEdgeD1Ev @5371
    _ZN8gmshFace13setModelEdgesERNSt7__cxx114listIP5GEdgeSaIS3_EEE @5372
    _ZN8gmshFace14resetNativePtrEP7Surface @5373
    _ZN8gmshFace19getMetricEigenvalueERK7SPoint2 @5374
    _ZN8gmshFace19resetMeshAttributesEv @5375
    _ZN8gmshFace21buildSTLTriangulationEb @5376
    _ZN8gmshFaceC1EP6GModelP7Surface @5377
    _ZN8gmshFaceC2EP6GModelP7Surface @5378
    _ZN8gmshFaceD0Ev @5379
    _ZN8gmshFaceD1Ev @5380
    _ZN8nameDataD1Ev @5381
    _ZN8picojson12last_error_tIbE1sB5cxx11E @5382 DATA
    _ZN8tetgenBR10tetgenmesh10carveholesEv @5383
    _ZN8tetgenBR10tetgenmesh10facenormalEPdS1_S1_S1_iS1_ @5384
    _ZN8tetgenBR10tetgenmesh10facepivot1E @5385 DATA
    _ZN8tetgenBR10tetgenmesh10facepivot2E @5386 DATA
    _ZN8tetgenBR10tetgenmesh10flipshpushEPNS0_4faceE @5387
    _ZN8tetgenBR10tetgenmesh10freememoryEv @5388
    _ZN8tetgenBR10tetgenmesh10incircle3dEPdS1_S1_S1_ @5389
    _ZN8tetgenBR10tetgenmesh10inittablesEv @5390
    _ZN8tetgenBR10tetgenmesh10insphere_sEPdS1_S1_S1_S1_ @5391
    _ZN8tetgenBR10tetgenmesh10lawsonflipEv @5392
    _ZN8tetgenBR10tetgenmesh10memorypool13traversalinitEv @5393
    _ZN8tetgenBR10tetgenmesh10memorypool5allocEv @5394
    _ZN8tetgenBR10tetgenmesh10memorypool7deallocEPv @5395
    _ZN8tetgenBR10tetgenmesh10memorypool7restartEv @5396
    _ZN8tetgenBR10tetgenmesh10memorypool8poolinitEiiii @5397
    _ZN8tetgenBR10tetgenmesh10memorypool8traverseEv @5398
    _ZN8tetgenBR10tetgenmesh10memorypoolC1Eiiii @5399
    _ZN8tetgenBR10tetgenmesh10memorypoolC1Ev @5400
    _ZN8tetgenBR10tetgenmesh10memorypoolC2Eiiii @5401
    _ZN8tetgenBR10tetgenmesh10memorypoolC2Ev @5402
    _ZN8tetgenBR10tetgenmesh10memorypoolD1Ev @5403
    _ZN8tetgenBR10tetgenmesh10memorypoolD2Ev @5404
    _ZN8tetgenBR10tetgenmesh10orient4d_sEPdS1_S1_S1_S1_ddddd @5405
    _ZN8tetgenBR10tetgenmesh10sapexpivotE @5406 DATA
    _ZN8tetgenBR10tetgenmesh10sdestpivotE @5407 DATA
    _ZN8tetgenBR10tetgenmesh10snextpivotE @5408 DATA
    _ZN8tetgenBR10tetgenmesh10stpivottblE @5409 DATA
    _ZN8tetgenBR10tetgenmesh10tspivottblE @5410 DATA
    _ZN8tetgenBR10tetgenmesh11eorgoppotblE @5411 DATA
    _ZN8tetgenBR10tetgenmesh11flipnm_postEPNS0_7trifaceEiiiPNS0_15flipconstraintsE @5412
    _ZN8tetgenBR10tetgenmesh11insertpointEPdPNS0_7trifaceEPNS0_4faceES5_PNS0_17insertvertexflagsE @5413
    _ZN8tetgenBR10tetgenmesh11linelineintEPdS1_S1_S1_S1_S1_S1_S1_ @5414
    _ZN8tetgenBR10tetgenmesh11mergefacetsEv @5415
    _ZN8tetgenBR10tetgenmesh11orthosphereEPdS1_S1_S1_ddddS1_S1_ @5416
    _ZN8tetgenBR10tetgenmesh11projpt2edgeEPdS1_S1_S1_ @5417
    _ZN8tetgenBR10tetgenmesh11projpt2faceEPdS1_S1_S1_S1_ @5418
    _ZN8tetgenBR10tetgenmesh11scarveholesEiPd @5419
    _ZN8tetgenBR10tetgenmesh11smoothpointEPdPNS0_9arraypoolEiPNS0_13optparametersE @5420
    _ZN8tetgenBR10tetgenmesh11splitsliverEPNS0_7trifaceEdi @5421
    _ZN8tetgenBR10tetgenmesh11tetprismvolEPdS1_S1_S1_ @5422
    _ZN8tetgenBR10tetgenmesh11tri_edge_2dEPdS1_S1_S1_S1_S1_iPiS2_ @5423
    _ZN8tetgenBR10tetgenmesh12circumsphereEPdS1_S1_S1_S1_S1_ @5424
    _ZN8tetgenBR10tetgenmesh12edestoppotblE @5425 DATA
    _ZN8tetgenBR10tetgenmesh12enextesymtblE @5426 DATA
    _ZN8tetgenBR10tetgenmesh12eprevesymtblE @5427 DATA
    _ZN8tetgenBR10tetgenmesh12hilbert_initEi @5428
    _ZN8tetgenBR10tetgenmesh12lawsonflip3dEPNS0_15flipconstraintsE @5429
    _ZN8tetgenBR10tetgenmesh12optimizemeshEv @5430
    _ZN8tetgenBR10tetgenmesh12orient3dfastEPdS1_S1_S1_ @5431
    _ZN8tetgenBR10tetgenmesh12planelineintEPdS1_S1_S1_S1_S1_S1_ @5432
    _ZN8tetgenBR10tetgenmesh12pointdeallocEPd @5433
    _ZN8tetgenBR10tetgenmesh12randomnationEj @5434
    _ZN8tetgenBR10tetgenmesh12randomsampleEPdPNS0_7trifaceE @5435
    _ZN8tetgenBR10tetgenmesh12tetallnormalEPdS1_S1_S1_PA3_dS1_ @5436
    _ZN8tetgenBR10tetgenmesh13finddirectionEPNS0_7trifaceEPd @5437
    _ZN8tetgenBR10tetgenmesh13getvertexstarEiPdPNS0_9arraypoolES3_S3_ @5438
    _ZN8tetgenBR10tetgenmesh13hilbert_sort3EPPdiiiddddddi @5439
    _ZN8tetgenBR10tetgenmesh13hilbert_splitEPPdiiidddddd @5440
    _ZN8tetgenBR10tetgenmesh13interiorangleEPdS1_S1_S1_ @5441
    _ZN8tetgenBR10tetgenmesh13jettisonnodesEv @5442
    _ZN8tetgenBR10tetgenmesh13makeshellfaceEPNS0_10memorypoolEPNS0_4faceE @5443
    _ZN8tetgenBR10tetgenmesh13outmesh2meditEPKc @5444
    _ZN8tetgenBR10tetgenmesh13pointtraverseEv @5445
    _ZN8tetgenBR10tetgenmesh13removesliversEi @5446
    _ZN8tetgenBR10tetgenmesh13shortdistanceEPdS1_S1_ @5447
    _ZN8tetgenBR10tetgenmesh13sinsertvertexEPdPNS0_4faceES3_iii @5448
    _ZN8tetgenBR10tetgenmesh13sremovevertexEPdPNS0_4faceES3_i @5449
    _ZN8tetgenBR10tetgenmesh13sscoutsegmentEPNS0_4faceEPdiii @5450
    _ZN8tetgenBR10tetgenmesh13tri_edge_tailEPdS1_S1_S1_S1_S1_ddiPiS2_ @5451
    _ZN8tetgenBR10tetgenmesh13tri_edge_testEPdS1_S1_S1_S1_S1_iPiS2_ @5452
    _ZN8tetgenBR10tetgenmesh13tri_tri_interEPdS1_S1_S1_S1_S1_ @5453
    _ZN8tetgenBR10tetgenmesh13unifysegmentsEv @5454
    _ZN8tetgenBR10tetgenmesh14enqueuesubfaceEPNS0_10memorypoolEPNS0_4faceE @5455
    _ZN8tetgenBR10tetgenmesh14gettetrahedronEPdS1_S1_S1_PNS0_7trifaceE @5456
    _ZN8tetgenBR10tetgenmesh14outsurfacemeshEPKc @5457
    _ZN8tetgenBR10tetgenmesh14tetalldihedralEPdS1_S1_S1_S1_S1_S1_ @5458
    _ZN8tetgenBR10tetgenmesh14tetaspectratioEPdS1_S1_S1_ @5459
    _ZN8tetgenBR10tetgenmesh15incrementalflipEPdiPNS0_15flipconstraintsE @5460
    _ZN8tetgenBR10tetgenmesh15initialdelaunayEPdS1_S1_S1_ @5461
    _ZN8tetgenBR10tetgenmesh15initializepoolsEv @5462
    _ZN8tetgenBR10tetgenmesh15maketetrahedronEPNS0_7trifaceE @5463
    _ZN8tetgenBR10tetgenmesh15reconstructmeshEPv @5464
    _ZN8tetgenBR10tetgenmesh15recoverboundaryERi @5465
    _ZN8tetgenBR10tetgenmesh15recoverdelaunayEv @5466
    _ZN8tetgenBR10tetgenmesh15recoversegmentsEPNS0_9arraypoolEii @5467
    _ZN8tetgenBR10tetgenmesh15recoversubfacesEPNS0_9arraypoolEi @5468
    _ZN8tetgenBR10tetgenmesh16makepoint2submapEPNS0_10memorypoolERPiRPNS0_4faceE @5469
    _ZN8tetgenBR10tetgenmesh16shellfacedeallocEPNS0_10memorypoolEPPPd @5470
    _ZN8tetgenBR10tetgenmesh17insertpoint_abortEPNS0_4faceEPNS0_17insertvertexflagsE @5471
    _ZN8tetgenBR10tetgenmesh17removeedgebyflipsEPNS0_7trifaceEPNS0_15flipconstraintsE @5472
    _ZN8tetgenBR10tetgenmesh17removefacebyflipsEPNS0_7trifaceEPNS0_15flipconstraintsE @5473
    _ZN8tetgenBR10tetgenmesh17shellfacetraverseEPNS0_10memorypoolE @5474
    _ZN8tetgenBR10tetgenmesh18enqueuetetrahedronEPNS0_7trifaceE @5475
    _ZN8tetgenBR10tetgenmesh18identifyinputedgesEPPd @5476
    _ZN8tetgenBR10tetgenmesh18makeindex2pointmapERPPd @5477
    _ZN8tetgenBR10tetgenmesh18recoveredgebyflipsEPdS1_PNS0_4faceEPNS0_7trifaceEi @5478
    _ZN8tetgenBR10tetgenmesh18recoverfacebyflipsEPdS1_S1_PNS0_4faceEPNS0_7trifaceE @5479
    _ZN8tetgenBR10tetgenmesh18tetrahedrondeallocEPPPd @5480
    _ZN8tetgenBR10tetgenmesh19calculateabovepointEPNS0_9arraypoolEPPdS4_S4_ @5481
    _ZN8tetgenBR10tetgenmesh19incrementaldelaunayERi @5482
    _ZN8tetgenBR10tetgenmesh19reduceedgesatvertexEPdPNS0_9arraypoolE @5483
    _ZN8tetgenBR10tetgenmesh19removevertexbyflipsEPd @5484
    _ZN8tetgenBR10tetgenmesh19report_selfint_edgeEPdS1_PNS0_4faceEPNS0_7trifaceENS0_11interresultE @5485
    _ZN8tetgenBR10tetgenmesh19report_selfint_faceEPdS1_S1_PNS0_4faceEPNS0_7trifaceEiPiS6_ @5486
    _ZN8tetgenBR10tetgenmesh19tetrahedrontraverseEv @5487
    _ZN8tetgenBR10tetgenmesh19tri_edge_inter_tailEPdS1_S1_S1_S1_dd @5488
    _ZN8tetgenBR10tetgenmesh20brio_multiscale_sortEPPdiidPi @5489
    _ZN8tetgenBR10tetgenmesh20calculateabovepoint4EPdS1_S1_S1_ @5490
    _ZN8tetgenBR10tetgenmesh20checkflipeligibilityEiPdS1_S1_S1_S1_iiPNS0_15flipconstraintsE @5491
    _ZN8tetgenBR10tetgenmesh21improvequalitybyflipsEv @5492
    _ZN8tetgenBR10tetgenmesh21suppresssteinerpointsEv @5493
    _ZN8tetgenBR10tetgenmesh22alltetrahedrontraverseEv @5494
    _ZN8tetgenBR10tetgenmesh24add_steinerpt_in_segmentEPNS0_4faceEi @5495
    _ZN8tetgenBR10tetgenmesh24suppressbdrysteinerpointEPd @5496
    _ZN8tetgenBR10tetgenmesh25addsteiner4recoversegmentEPNS0_4faceEi @5497
    _ZN8tetgenBR10tetgenmesh25improvequalitybysmoothingEPNS0_13optparametersE @5498
    _ZN8tetgenBR10tetgenmesh25report_overlapping_facetsEPNS0_4faceES2_d @5499
    _ZN8tetgenBR10tetgenmesh2PIE @5500 DATA
    _ZN8tetgenBR10tetgenmesh32add_steinerpt_in_schoenhardtpolyEPNS0_7trifaceEii @5501
    _ZN8tetgenBR10tetgenmesh6epivotE @5502 DATA
    _ZN8tetgenBR10tetgenmesh6flip22EPNS0_4faceEii @5503
    _ZN8tetgenBR10tetgenmesh6flip23EPNS0_7trifaceEiPNS0_15flipconstraintsE @5504
    _ZN8tetgenBR10tetgenmesh6flip31EPNS0_4faceEi @5505
    _ZN8tetgenBR10tetgenmesh6flip32EPNS0_7trifaceEiPNS0_15flipconstraintsE @5506
    _ZN8tetgenBR10tetgenmesh6flip41EPNS0_7trifaceEiPNS0_15flipconstraintsE @5507
    _ZN8tetgenBR10tetgenmesh6flipnmEPNS0_7trifaceEiiiPNS0_15flipconstraintsE @5508
    _ZN8tetgenBR10tetgenmesh6locateEPdPNS0_7trifaceEi @5509
    _ZN8tetgenBR10tetgenmesh7bondtblE @5510 DATA
    _ZN8tetgenBR10tetgenmesh7esymtblE @5511 DATA
    _ZN8tetgenBR10tetgenmesh7fsymtblE @5512 DATA
    _ZN8tetgenBR10tetgenmesh7getedgeEPdS1_PNS0_7trifaceE @5513
    _ZN8tetgenBR10tetgenmesh7slocateEPdPNS0_4faceEiii @5514
    _ZN8tetgenBR10tetgenmesh7triareaEPdS1_S1_ @5515
    _ZN8tetgenBR10tetgenmesh8edge2verE @5516 DATA
    _ZN8tetgenBR10tetgenmesh8enexttblE @5517 DATA
    _ZN8tetgenBR10tetgenmesh8eprevtblE @5518 DATA
    _ZN8tetgenBR10tetgenmesh8flippushERPNS0_7badfaceEPNS0_7trifaceE @5519
    _ZN8tetgenBR10tetgenmesh8lu_decmpEPA4_diPiPdi @5520
    _ZN8tetgenBR10tetgenmesh8lu_solveEPA4_diPiPdi @5521
    _ZN8tetgenBR10tetgenmesh8orgpivotE @5522 DATA
    _ZN8tetgenBR10tetgenmesh8ver2edgeE @5523 DATA
    _ZN8tetgenBR10tetgenmesh9apexpivotE @5524 DATA
    _ZN8tetgenBR10tetgenmesh9arraypool6lookupEi @5525
    _ZN8tetgenBR10tetgenmesh9arraypool7restartEv @5526
    _ZN8tetgenBR10tetgenmesh9arraypool8getblockEi @5527
    _ZN8tetgenBR10tetgenmesh9arraypool8newindexEPPv @5528
    _ZN8tetgenBR10tetgenmesh9arraypool8poolinitEii @5529
    _ZN8tetgenBR10tetgenmesh9arraypoolC1Eii @5530
    _ZN8tetgenBR10tetgenmesh9arraypoolC2Eii @5531
    _ZN8tetgenBR10tetgenmesh9arraypoolD1Ev @5532
    _ZN8tetgenBR10tetgenmesh9arraypoolD2Ev @5533
    _ZN8tetgenBR10tetgenmesh9destpivotE @5534 DATA
    _ZN8tetgenBR10tetgenmesh9makepointEPPdNS0_8verttypeE @5535
    _ZN8tetgenBR10tetgenmesh9oppopivotE @5536 DATA
    _ZN8tetgenBR10tetgenmesh9sorgpivotE @5537 DATA
    _ZN8tetgenBR10tetgenmesh9stbondtblE @5538 DATA
    _ZN8tetgenBR10tetgenmesh9tsbondtblE @5539 DATA
    _ZN8tetgenBR14tetgenbehavior17parse_commandlineEiPPc @5540
    _ZN8triangle11getNumEdgesEv @5541
    _ZN8triangle11getNumNodesEv @5542
    _ZN8triangle12getDimensionEv @5543
    _ZN8triangle13getGaussPointEiRdS0_S0_S0_ @5544
    _ZN8triangle13integrateFluxEPd @5545
    _ZN8triangle16getShapeFunctionEidddRd @5546
    _ZN8triangle17getNumGaussPointsEv @5547
    _ZN8triangle20getGradShapeFunctionEidddPd @5548
    _ZN8triangle7getEdgeEiRiS0_ @5549
    _ZN8triangle7getNodeEiRdS0_S0_ @5550
    _ZN8triangle8isInsideEddd @5551
    _ZN8triangleD0Ev @5552
    _ZN8triangleD1Ev @5553
    _ZN9BDS_Point2lcEv @5554
    _ZN9BDS_Point3delEP8BDS_Edge @5555
    _ZN9BDS_PointC1Eiddd @5556
    _ZN9BDS_PointD1Ev @5557
    _ZN9BallField14getDescriptionB5cxx11Ev @5558
    _ZN9BallField7getNameEv @5559
    _ZN9BallFieldC1Ev @5560
    _ZN9BallFieldD0Ev @5561
    _ZN9BallFieldD1Ev @5562
    _ZN9BallFieldclEdddP7GEntity @5563
    _ZN9Curvature10_destroyedE @5564 DATA
    _ZN9Curvature11getInstanceEv @5565
    _ZN9Curvature12vertexNormalEP7MVertex @5566
    _ZN9Curvature13buildEdgeListEv @5567
    _ZN9Curvature13initializeMapEv @5568
    _ZN9Curvature13rot_coord_sysERK8SVector3S2_S2_RS0_S3_ @5569
    _ZN9Curvature14correctOnEdgesEv @5570
    _ZN9Curvature14writeToMshFileERKNSt7__cxx1112basic_stringIcSt11char_traitsIcESaIcEEE @5571
    _ZN9Curvature14writeToPosFileERKNSt7__cxx1112basic_stringIcSt11char_traitsIcESaIcEEE @5572
    _ZN9Curvature14writeToVtkFileERKNSt7__cxx1112basic_stringIcSt11char_traitsIcESaIcEEE @5573
    _ZN9Curvature15curvatureTensorEv @5574
    _ZN9Curvature15edgeNodalValuesEP5MLineRdS2_i @5575
    _ZN9Curvature15onDeadReferenceEv @5576
    _ZN9Curvature16computeCurvatureEP6GModelNS_15typeOfCurvatureE @5577
    _ZN9Curvature16diagonalize_curvERK8SVector3S2_dddS2_RS0_S3_RdS4_ @5578
    _ZN9Curvature17computePointareasEv @5579
    _ZN9Curvature17retrieveCompoundsEv @5580
    _ZN9Curvature17vertexNodalValuesEP7MVertexRdi @5581
    _ZN9Curvature19triangleNodalValuesEP9MTriangleRdS2_S2_i @5582
    _ZN9Curvature20computeCurvature_RBFEv @5583
    _ZN9Curvature20computeVertexNormalsEv @5584
    _ZN9Curvature20smoothCurvatureFieldEi @5585
    _ZN9Curvature20valueAlreadyComputedEv @5586
    _ZN9Curvature23computeCurvature_SimpleEv @5587
    _ZN9Curvature24writeDirectionsToPosFileERKNSt7__cxx1112basic_stringIcSt11char_traitsIcESaIcEEE @5588
    _ZN9Curvature25_alreadyComputedCurvatureE @5589 DATA
    _ZN9Curvature26computeRusinkiewiczNormalsEv @5590
    _ZN9Curvature28edgeNodalValuesAndDirectionsEP5MLineP8SVector3S3_PdS4_i @5591
    _ZN9Curvature29computeCurvature_RusinkiewiczEi @5592
    _ZN9Curvature30vertexNodalValuesAndDirectionsEP7MVertexP8SVector3S3_PdS4_i @5593
    _ZN9Curvature32triangleNodalValuesAndDirectionsEP9MTriangleP8SVector3S3_PdS4_i @5594
    _ZN9Curvature6createEv @5595
    _ZN9Curvature9_instanceE @5596 DATA
    _ZN9Curvature9proj_curvERK8SVector3S2_dddS2_S2_RdS3_S3_ @5597
    _ZN9CurvatureC1Ev @5598
    _ZN9CurvatureC2Ev @5599
    _ZN9CurvatureD1Ev @5600
    _ZN9CurvatureD2Ev @5601
    _ZN9DocRecord10ConvexHullEv @5602
    _ZN9DocRecord10initializeEv @5603
    _ZN9DocRecord10remove_allEv @5604
    _ZN9DocRecord11DListDeleteEPP7_CDLISTi @5605
    _ZN9DocRecord11DListInsertEii @5606
    _ZN9DocRecord11PredecessorEii @5607
    _ZN9DocRecord11build_edgesEv @5608
    _ZN9DocRecord11clear_edgesEv @5609
    _ZN9DocRecord11makePosViewENSt7__cxx1112basic_stringIcSt11char_traitsIcESaIcEEEP5GFace @5610
    _ZN9DocRecord11tagInteriorEdd @5611
    _ZN9DocRecord12remove_pointEi @5612
    _ZN9DocRecord13BuildDelaunayEv @5613
    _ZN9DocRecord14RemoveAllDListEv @5614
    _ZN9DocRecord15printMedialAxisEP6OctreeNSt7__cxx1112basic_stringIcSt11char_traitsIcESaIcEEEP5GFaceP5GEdge @5615
    _ZN9DocRecord17CountPointsOnHullEv @5616
    _ZN9DocRecord18LowerCommonTangentE2DTS0_ @5617
    _ZN9DocRecord18MakeMeshWithPointsEv @5618
    _ZN9DocRecord18UpperCommonTangentE2DTS0_ @5619
    _ZN9DocRecord19ConvertDlistToArrayEPP7_CDLISTPi @5620
    _ZN9DocRecord19delaunay_conformityEP5GFace @5621
    _ZN9DocRecord19recur_tag_trianglesEiRSt3setIiSt4lessIiESaIiEERSt3mapISt4pairIPvS8_ES7_IiiES1_IS9_ESaIS7_IKS9_SA_EEE @5622
    _ZN9DocRecord23ConvertDListToTrianglesEv @5623
    _ZN9DocRecord25ConvertDListToVoronoiDataEv @5624
    _ZN9DocRecord3addEii @5625
    _ZN9DocRecord5FirstEi @5626
    _ZN9DocRecord5LloydEi @5627
    _ZN9DocRecord5MergeE2DTS0_ @5628
    _ZN9DocRecord5QtestEiiii @5629
    _ZN9DocRecord6DeleteEii @5630
    _ZN9DocRecord6InsertEii @5631
    _ZN9DocRecord7VoronoiEv @5632
    _ZN9DocRecord7concaveEddP5GFace @5633
    _ZN9DocRecord7containEiii @5634
    _ZN9DocRecord8FixFirstEii @5635
    _ZN9DocRecord8IsLeftOfEiii @5636
    _ZN9DocRecord9IsRightOfEiii @5637
    _ZN9DocRecord9RecurTrigEii @5638
    _ZN9DocRecord9SuccessorEii @5639
    _ZN9DocRecord9add_pointEddP5GFace @5640
    _ZN9DocRecord9setPointsEP10fullMatrixIdE @5641
    _ZN9DocRecordC1Ei @5642
    _ZN9DocRecordC2Ei @5643
    _ZN9DocRecordD1Ev @5644
    _ZN9DocRecordD2Ev @5645
    _ZN9GEdgeLoopC1ERKNSt7__cxx114listIP5GEdgeSaIS3_EEE @5646
    _ZN9GEdgeLoopC2ERKNSt7__cxx114listIP5GEdgeSaIS3_EEE @5647
    _ZN9MPyramidN10getEdgeRepEbiPdS0_S0_P8SVector3 @5648
    _ZN9MPyramidN10getFaceRepEbiPdS0_S0_P8SVector3 @5649
    _ZN9MPyramidN14getNumEdgesRepEb @5650
    _ZN9MPyramidN14getNumFacesRepEb @5651
    _ZN9MPyramidN25_order2indicesReversedPyrE @5652 DATA
    _ZN9MPyramidN7reverseEv @5653
    _ZN9MPyramidN9getVertexEi @5654
    _ZN9MPyramidN9setVertexEiP7MVertex @5655
    _ZN9MPyramidNC1ERKSt6vectorIP7MVertexSaIS2_EEcii @5656
    _ZN9MPyramidND0Ev @5657
    _ZN9MPyramidND1Ev @5658
    _ZN9MPyramidND2Ev @5659
    _ZN9MSubPoint12updateParentEP6GModel @5660
    _ZN9MSubPoint14getBaseElementEv @5661
    _ZN9MSubPoint14setMultiParentERSt6vectorIP8MElementSaIS2_EEb @5662
    _ZN9MSubPoint20getIntegrationPointsEiPiPP5IntPt @5663
    _ZN9MSubPoint20getShapeFunctionNodeEi @5664
    _ZN9MSubPoint9setParentEP8MElementb @5665
    _ZN9MSubPointD0Ev @5666
    _ZN9MSubPointD1Ev @5667
    _ZN9MSubPointD2Ev @5668
    _ZN9MTriangle10getEdgeRepEbiPdS0_S0_P8SVector3 @5669
    _ZN9MTriangle10getFaceRepEbiPdS0_S0_P8SVector3 @5670
    _ZN9MTriangle11getNumFacesEv @5671
    _ZN9MTriangle12circumcenterEv @5672
    _ZN9MTriangle14getInnerRadiusEv @5673
    _ZN9MTriangle14getNumEdgesRepEb @5674
    _ZN9MTriangle14getNumFacesRepEb @5675
    _ZN9MTriangle14getOtherVertexEP7MVertexS1_ @5676
    _ZN9MTriangle14getOuterRadiusEv @5677
    _ZN9MTriangle15etaShapeMeasureEv @5678
    _ZN9MTriangle17angleShapeMeasureEv @5679
    _ZN9MTriangle17gammaShapeMeasureEv @5680
    _ZN9MTriangle20getIntegrationPointsEiPiPP5IntPt @5681
    _ZN9MTriangle7getFaceEi @5682
    _ZN9MTriangle7reverseEv @5683
    _ZN9MTriangle8reorientEib @5684
    _ZN9MTriangle9getVertexEi @5685
    _ZN9MTriangle9getVolumeEv @5686
    _ZN9MTriangle9setVertexEiP7MVertex @5687
    _ZN9MTriangleC1ERKSt6vectorIP7MVertexSaIS2_EEii @5688
    _ZN9MTriangleD0Ev @5689
    _ZN9MTriangleD1Ev @5690
    _ZN9MeanField14getDescriptionB5cxx11Ev @5691
    _ZN9MeanField7getNameEv @5692
    _ZN9MeanFieldD0Ev @5693
    _ZN9MeanFieldD1Ev @5694
    _ZN9MeanFieldclEdddP7GEntity @5695
    _ZN9PViewData10fromVectorERKSt6vectorIS0_IdSaIdEESaIS2_EE @5696
    _ZN9PViewData10getElementEiii @5697
    _ZN9PViewData10isNodeDataEv @5698
    _ZN9PViewData10skipEntityEii @5699
    _ZN9PViewData11combineTimeER8nameData @5700
    _ZN9PViewData11getFileNameB5cxx11Ei @5701
    _ZN9PViewData11getNumEdgesEiii @5702
    _ZN9PViewData11getNumLinesEi @5703
    _ZN9PViewData11getNumNodesEiii @5704
    _ZN9PViewData11getString2DEiiRNSt7__cxx1112basic_stringIcSt11char_traitsIcESaIcEEERdS7_S7_ @5705
    _ZN9PViewData11getString3DEiiRNSt7__cxx1112basic_stringIcSt11char_traitsIcESaIcEEERdS7_S7_S7_ @5706
    _ZN9PViewData11hasFileNameERKNSt7__cxx1112basic_stringIcSt11char_traitsIcESaIcEEE @5707
    _ZN9PViewData11hasTimeStepEi @5708
    _ZN9PViewData11importListsEPiPPSt6vectorIdSaIdEE @5709
    _ZN9PViewData11isListBasedEv @5710
    _ZN9PViewData11setFileNameERKNSt7__cxx1112basic_stringIcSt11char_traitsIcESaIcEEE @5711
    _ZN9PViewData11skipElementEiiibi @5712
    _ZN9PViewData12combineSpaceER8nameData @5713
    _ZN9PViewData12getDimensionEiii @5714
    _ZN9PViewData12getFileIndexEv @5715
    _ZN9PViewData12getNumPointsEi @5716
    _ZN9PViewData12getNumPrismsEi @5717
    _ZN9PViewData12getNumValuesEiii @5718
    _ZN9PViewData12hasPartitionEii @5719
    _ZN9PViewData12searchScalarEdddPdiS0_iS0_S0_S0_b @5720
    _ZN9PViewData12searchTensorEdddPdiS0_iS0_S0_S0_b @5721
    _ZN9PViewData12searchVectorEdddPdiS0_iS0_S0_S0_b @5722
    _ZN9PViewData12setFileIndexEi @5723
    _ZN9PViewData13getMemoryInMbEv @5724
    _ZN9PViewData13getNumScalarsEi @5725
    _ZN9PViewData13getNumTensorsEi @5726
    _ZN9PViewData13getNumVectorsEi @5727
    _ZN9PViewData14getNumElementsEii @5728
    _ZN9PViewData14getNumEntitiesEi @5729
    _ZN9PViewData14getNumPolygonsEi @5730
    _ZN9PViewData14getNumPyramidsEi @5731
    _ZN9PViewData14getNumTrihedraEi @5732
    _ZN9PViewData14getScalarValueEiiiiRdiPi @5733
    _ZN9PViewData14reverseElementEiii @5734
    _ZN9PViewData14useGaussPointsEv @5735
    _ZN9PViewData15getListPointersEPiPPSt6vectorIdSaIdEE @5736
    _ZN9PViewData15getNumHexahedraEi @5737
    _ZN9PViewData15getNumPolyhedraEi @5738
    _ZN9PViewData15getNumStrings2DEv @5739
    _ZN9PViewData15getNumStrings3DEv @5740
    _ZN9PViewData15getNumTrianglesEi @5741
    _ZN9PViewData16getNumComponentsEiii @5742
    _ZN9PViewData16getNumTetrahedraEi @5743
    _ZN9PViewData16initAdaptiveDataEiid @5744
    _ZN9PViewData17getNumQuadranglesEi @5745
    _ZN9PViewData17hasMultipleMeshesEv @5746
    _ZN9PViewData19destroyAdaptiveDataEv @5747
    _ZN9PViewData19searchScalarWithTolEdddPdiS0_diS0_S0_S0_b @5748
    _ZN9PViewData19searchTensorWithTolEdddPdiS0_diS0_S0_S0_b @5749
    _ZN9PViewData19searchVectorWithTolEdddPdiS0_diS0_S0_S0_b @5750
    _ZN9PViewData21_interpolationSchemesB5cxx11E @5751 DATA
    _ZN9PViewData21initAdaptiveDataLightEiid @5752
    _ZN9PViewData21saveAdaptedViewForVTKERKNSt7__cxx1112basic_stringIcSt11char_traitsIcESaIcEEEiiidib @5753
    _ZN9PViewData22fillRemoteVertexArraysERNSt7__cxx1112basic_stringIcSt11char_traitsIcESaIcEEE @5754
    _ZN9PViewData24getFirstNonEmptyTimeStepEi @5755
    _ZN9PViewData24getInterpolationMatricesEiRSt6vectorIP10fullMatrixIdESaIS3_EE @5756
    _ZN9PViewData24setInterpolationMatricesEiRK10fullMatrixIdES3_ @5757
    _ZN9PViewData24setInterpolationMatricesEiRK10fullMatrixIdES3_S3_S3_ @5758
    _ZN9PViewData25haveInterpolationMatricesEi @5759
    _ZN9PViewData25removeInterpolationSchemeERKNSt7__cxx1112basic_stringIcSt11char_traitsIcESaIcEEE @5760
    _ZN9PViewData26getSizeInterpolationSchemeEv @5761
    _ZN9PViewData29removeAllInterpolationSchemesEv @5762
    _ZN9PViewData30addMatrixToInterpolationSchemeERKNSt7__cxx1112basic_stringIcSt11char_traitsIcESaIcEEEiR10fullMatrixIdE @5763
    _ZN9PViewData5emptyEv @5764
    _ZN9PViewData5setXYERSt6vectorIdSaIdEES3_ @5765
    _ZN9PViewData6smoothEv @5766
    _ZN9PViewData7getNameB5cxx11Ev @5767
    _ZN9PViewData7getNodeEiiiiRdS0_S0_ @5768
    _ZN9PViewData7getTimeEi @5769
    _ZN9PViewData7getTypeEiii @5770
    _ZN9PViewData7setNameERKNSt7__cxx1112basic_stringIcSt11char_traitsIcESaIcEEE @5771
    _ZN9PViewData7setNodeEiiiiddd @5772
    _ZN9PViewData7setXYZVERSt6vectorIdSaIdEES3_S3_S3_ @5773
    _ZN9PViewData7tagNodeEiiiii @5774
    _ZN9PViewData8finalizeEbRKNSt7__cxx1112basic_stringIcSt11char_traitsIcESaIcEEE @5775
    _ZN9PViewData8getDirtyEv @5776
    _ZN9PViewData8getModelEi @5777
    _ZN9PViewData8getValueEiiiiRd @5778
    _ZN9PViewData8getValueEiiiiiRd @5779
    _ZN9PViewData8hasModelEP6GModeli @5780
    _ZN9PViewData8isRemoteEv @5781
    _ZN9PViewData8setDirtyEb @5782
    _ZN9PViewData8setValueEiiiiid @5783
    _ZN9PViewData8toVectorERSt6vectorIS0_IdSaIdEESaIS2_EE @5784
    _ZN9PViewData8writeMEDERKNSt7__cxx1112basic_stringIcSt11char_traitsIcESaIcEEE @5785
    _ZN9PViewData8writeMSHERKNSt7__cxx1112basic_stringIcSt11char_traitsIcESaIcEEEdbbbibbb @5786
    _ZN9PViewData8writePOSERKNSt7__cxx1112basic_stringIcSt11char_traitsIcESaIcEEEbbb @5787
    _ZN9PViewData8writeSTLERKNSt7__cxx1112basic_stringIcSt11char_traitsIcESaIcEEE @5788
    _ZN9PViewData8writeTXTERKNSt7__cxx1112basic_stringIcSt11char_traitsIcESaIcEEE @5789
    _ZN9PViewData9getEntityEii @5790
    _ZN9PViewDataC1Ev @5791
    _ZN9PViewDataC2Ev @5792
    _ZN9PViewDataD0Ev @5793
    _ZN9PViewDataD1Ev @5794
    _ZN9PViewDataD2Ev @5795
    _ZN9ThinLayer10distP2PMaxE @5796 DATA
    _ZN9ThinLayer12FindNewPointEP7SPoint3PiP5MTet48SVector3 @5797
    _ZN9ThinLayer12VertexToTetsE @5798 DATA
    _ZN9ThinLayer13fillTetToTet4Ev @5799
    _ZN9ThinLayer15VertexToCorrespE @5800 DATA
    _ZN9ThinLayer15getTetFromPointEP7MVertex8SVector3 @5801
    _ZN9ThinLayer15vecOfThinSheetsE @5802 DATA
    _ZN9ThinLayer16fillVertexToTetsEv @5803
    _ZN9ThinLayer19fillvecOfThinSheetsEv @5804
    _ZN9ThinLayer20IsPositivOrientationE8SVector3S0_S0_ @5805
    _ZN9ThinLayer20computeDistToOppSideEP7MVertex @5806
    _ZN9ThinLayer21computeInteriorNormalEP7MVertex @5807
    _ZN9ThinLayer22checkOppositeTrianglesEv @5808
    _ZN9ThinLayer23computeAllDistToOppSideEv @5809
    _ZN9ThinLayer7epsilonE @5810 DATA
    _ZN9ThinLayer7performEv @5811
    _ZN9ThinLayer8angleMaxE @5812 DATA
    _ZN9ThinLayer9TetToTet4E @5813 DATA
    _ZN9ThinLayerC1Ev @5814
    _ZN9ThinLayerC2Ev @5815
    _ZN9ThinLayerD1Ev @5816
    _ZN9ThinLayerD2Ev @5817
    _ZN9Wrapper3D6bgmeshE @5818 DATA
    _ZN9__gnu_cxx13new_allocatorINSt7__cxx1112basic_stringIcSt11char_traitsIcESaIcEEEE10deallocateEPS6_y @5819
    _ZN9__gnu_cxx13new_allocatorINSt7__cxx1112basic_stringIcSt11char_traitsIcESaIcEEEE7destroyIS6_EEvPT_ @5820
    _ZN9__gnu_cxx13new_allocatorINSt7__cxx1112basic_stringIcSt11char_traitsIcESaIcEEEE8allocateEyPKv @5821
    _ZN9__gnu_cxx13new_allocatorINSt7__cxx1112basic_stringIcSt11char_traitsIcESaIcEEEE9constructIS6_JRKS6_EEEvPT_DpOT0_ @5822
    _ZN9__gnu_cxx13new_allocatorINSt7__cxx1112basic_stringIcSt11char_traitsIcESaIcEEEE9constructIS6_JS6_EEEvPT_DpOT0_ @5823
    _ZN9__gnu_cxx13new_allocatorINSt7__cxx1112basic_stringIcSt11char_traitsIcESaIcEEEEC2ERKS7_ @5824
    _ZN9__gnu_cxx13new_allocatorINSt7__cxx1112basic_stringIcSt11char_traitsIcESaIcEEEEC2Ev @5825
    _ZN9__gnu_cxx13new_allocatorINSt7__cxx1112basic_stringIcSt11char_traitsIcESaIcEEEED2Ev @5826
    _ZN9__gnu_cxx13new_allocatorIP14simpleFunctionIdEE10deallocateEPS3_y @5827
    _ZN9__gnu_cxx13new_allocatorIP14simpleFunctionIdEE7destroyIS3_EEvPT_ @5828
    _ZN9__gnu_cxx13new_allocatorIP14simpleFunctionIdEE8allocateEyPKv @5829
    _ZN9__gnu_cxx13new_allocatorIP14simpleFunctionIdEE9constructIS3_JS3_EEEvPT_DpOT0_ @5830
    _ZN9__gnu_cxx13new_allocatorIP14simpleFunctionIdEEC2ERKS4_ @5831
    _ZN9__gnu_cxx13new_allocatorIP14simpleFunctionIdEEC2Ev @5832
    _ZN9__gnu_cxx13new_allocatorIP14simpleFunctionIdEED2Ev @5833
    _ZN9__gnu_cxx13new_allocatorIP7GEntityE10deallocateEPS2_y @5834
    _ZN9__gnu_cxx13new_allocatorIP7GEntityEC2Ev @5835
    _ZN9__gnu_cxx13new_allocatorIP7GEntityED2Ev @5836
    _ZN9__gnu_cxx13new_allocatorIP7GVertexE10deallocateEPS2_y @5837
    _ZN9__gnu_cxx13new_allocatorIP7GVertexE7destroyIS2_EEvPT_ @5838
    _ZN9__gnu_cxx13new_allocatorIP7GVertexE8allocateEyPKv @5839
    _ZN9__gnu_cxx13new_allocatorIP7GVertexE9constructIS2_JRKS2_EEEvPT_DpOT0_ @5840
    _ZN9__gnu_cxx13new_allocatorIP8BDS_EdgeE10deallocateEPS2_y @5841
    _ZN9__gnu_cxx13new_allocatorIP8BDS_EdgeE7destroyIS2_EEvPT_ @5842
    _ZN9__gnu_cxx13new_allocatorIP8BDS_EdgeE8allocateEyPKv @5843
    _ZN9__gnu_cxx13new_allocatorIP8BDS_EdgeE9constructIS2_JRKS2_EEEvPT_DpOT0_ @5844
    _ZN9__gnu_cxx13new_allocatorIP8BDS_EdgeEC2Ev @5845
    _ZN9__gnu_cxx13new_allocatorIP8BDS_EdgeED2Ev @5846
    _ZN9__gnu_cxx13new_allocatorIP8BDS_FaceE10deallocateEPS2_y @5847
    _ZN9__gnu_cxx13new_allocatorIP8BDS_FaceE7destroyIS2_EEvPT_ @5848
    _ZN9__gnu_cxx13new_allocatorIP8BDS_FaceE8allocateEyPKv @5849
    _ZN9__gnu_cxx13new_allocatorIP8BDS_FaceE9constructIS2_JRKS2_EEEvPT_DpOT0_ @5850
    _ZN9__gnu_cxx13new_allocatorIP8BDS_FaceE9constructIS2_JS2_EEEvPT_DpOT0_ @5851
    _ZN9__gnu_cxx13new_allocatorIP8BDS_FaceEC2Ev @5852
    _ZN9__gnu_cxx13new_allocatorIP8BDS_FaceED2Ev @5853
    _ZN9__gnu_cxx13new_allocatorIP9gLevelsetE10deallocateEPS2_y @5854
    _ZN9__gnu_cxx13new_allocatorIP9gLevelsetE7destroyIS2_EEvPT_ @5855
    _ZN9__gnu_cxx13new_allocatorIP9gLevelsetE8allocateEyPKv @5856
    _ZN9__gnu_cxx13new_allocatorIP9gLevelsetE9constructIS2_JRKS2_EEEvPT_DpOT0_ @5857
    _ZN9__gnu_cxx13new_allocatorIP9gLevelsetE9constructIS2_JS2_EEEvPT_DpOT0_ @5858
    _ZN9__gnu_cxx13new_allocatorIP9gLevelsetEC2ERKS3_ @5859
    _ZN9__gnu_cxx13new_allocatorIP9gLevelsetEC2Ev @5860
    _ZN9__gnu_cxx13new_allocatorIP9gLevelsetED2Ev @5861
    _ZN9__gnu_cxx13new_allocatorIPP8BDS_FaceE10deallocateEPS3_y @5862
    _ZN9__gnu_cxx13new_allocatorIPP8BDS_FaceE8allocateEyPKv @5863
    _ZN9__gnu_cxx13new_allocatorIPP8BDS_FaceEC2Ev @5864
    _ZN9__gnu_cxx13new_allocatorIPP8BDS_FaceED2Ev @5865
    _ZN9__gnu_cxx13new_allocatorISt10_List_nodeIP5GEdgeEE10deallocateEPS4_y @5866
    _ZN9__gnu_cxx13new_allocatorISt10_List_nodeIP5GEdgeEE8allocateEyPKv @5867
    _ZN9__gnu_cxx13new_allocatorISt10_List_nodeIP5GEdgeEE9constructIS3_JRKS3_EEEvPT_DpOT0_ @5868
    _ZN9__gnu_cxx13new_allocatorISt10_List_nodeIP5GFaceEE10deallocateEPS4_y @5869
    _ZN9__gnu_cxx13new_allocatorISt10_List_nodeIP5GFaceEE8allocateEyPKv @5870
    _ZN9__gnu_cxx13new_allocatorISt10_List_nodeIP5GFaceEE9constructIS3_JRKS3_EEEvPT_DpOT0_ @5871
    _ZN9__gnu_cxx13new_allocatorISt10_List_nodeIP7GVertexEE10deallocateEPS4_y @5872
    _ZN9__gnu_cxx13new_allocatorISt10_List_nodeIP7GVertexEE8allocateEyPKv @5873
    _ZN9__gnu_cxx13new_allocatorISt10_List_nodeIP7GVertexEE9constructIS3_JRKS3_EEEvPT_DpOT0_ @5874
    _ZN9__gnu_cxx13new_allocatorISt10_List_nodeIP8BDS_EdgeEE10deallocateEPS4_y @5875
    _ZN9__gnu_cxx13new_allocatorISt10_List_nodeIP8BDS_EdgeEE7destroyIS3_EEvPT_ @5876
    _ZN9__gnu_cxx13new_allocatorISt10_List_nodeIP8BDS_EdgeEE8allocateEyPKv @5877
    _ZN9__gnu_cxx13new_allocatorISt10_List_nodeIP8BDS_EdgeEE9constructIS3_JRKS3_EEEvPT_DpOT0_ @5878
    _ZN9__gnu_cxx13new_allocatorISt10_List_nodeIP8BDS_EdgeEE9constructIS3_JS3_EEEvPT_DpOT0_ @5879
    _ZN9__gnu_cxx13new_allocatorISt10_List_nodeIP8BDS_EdgeEEC2ERKS5_ @5880
    _ZN9__gnu_cxx13new_allocatorISt10_List_nodeIP8BDS_EdgeEEC2Ev @5881
    _ZN9__gnu_cxx13new_allocatorISt10_List_nodeIP8BDS_EdgeEED2Ev @5882
    _ZN9__gnu_cxx13new_allocatorISt10_List_nodeIP8BDS_FaceEE10deallocateEPS4_y @5883
    _ZN9__gnu_cxx13new_allocatorISt10_List_nodeIP8BDS_FaceEE7destroyIS3_EEvPT_ @5884
    _ZN9__gnu_cxx13new_allocatorISt10_List_nodeIP8BDS_FaceEE8allocateEyPKv @5885
    _ZN9__gnu_cxx13new_allocatorISt10_List_nodeIP8BDS_FaceEE9constructIS3_JRKS3_EEEvPT_DpOT0_ @5886
    _ZN9__gnu_cxx13new_allocatorISt10_List_nodeIP8BDS_FaceEEC2ERKS5_ @5887
    _ZN9__gnu_cxx13new_allocatorISt10_List_nodeIP8BDS_FaceEEC2Ev @5888
    _ZN9__gnu_cxx13new_allocatorISt10_List_nodeIP8BDS_FaceEED2Ev @5889
    _ZN9__gnu_cxx13new_allocatorISt10_List_nodeIdEE10deallocateEPS2_y @5890
    _ZN9__gnu_cxx13new_allocatorISt10_List_nodeIdEE7destroyIdEEvPT_ @5891
    _ZN9__gnu_cxx13new_allocatorISt10_List_nodeIdEE8allocateEyPKv @5892
    _ZN9__gnu_cxx13new_allocatorISt10_List_nodeIdEE9constructIdJRKdEEEvPT_DpOT0_ @5893
    _ZN9__gnu_cxx13new_allocatorISt10_List_nodeIdEEC2ERKS3_ @5894
    _ZN9__gnu_cxx13new_allocatorISt10_List_nodeIdEED2Ev @5895
    _ZN9__gnu_cxx13new_allocatorISt10_List_nodeIiEE10deallocateEPS2_y @5896
    _ZN9__gnu_cxx13new_allocatorISt10_List_nodeIiEE7destroyIiEEvPT_ @5897
    _ZN9__gnu_cxx13new_allocatorISt10_List_nodeIiEE8allocateEyPKv @5898
    _ZN9__gnu_cxx13new_allocatorISt10_List_nodeIiEE9constructIiJRKiEEEvPT_DpOT0_ @5899
    _ZN9__gnu_cxx13new_allocatorISt10_List_nodeIiEE9constructIiJiEEEvPT_DpOT0_ @5900
    _ZN9__gnu_cxx13new_allocatorISt10_List_nodeIiEEC2ERKS3_ @5901
    _ZN9__gnu_cxx13new_allocatorISt10_List_nodeIiEED2Ev @5902
    _ZN9__gnu_cxx13new_allocatorISt13_Rb_tree_nodeI13EdgeToRecoverEE8allocateEyPKv @5903
    _ZN9__gnu_cxx13new_allocatorISt13_Rb_tree_nodeI13EdgeToRecoverEE9constructIS2_JS2_EEEvPT_DpOT0_ @5904
    _ZN9__gnu_cxx13new_allocatorISt13_Rb_tree_nodeI5MEdgeEE10deallocateEPS3_y @5905
    _ZN9__gnu_cxx13new_allocatorISt13_Rb_tree_nodeI5MEdgeEE7destroyIS2_EEvPT_ @5906
    _ZN9__gnu_cxx13new_allocatorISt13_Rb_tree_nodeI5MEdgeEEC2Ev @5907
    _ZN9__gnu_cxx13new_allocatorISt13_Rb_tree_nodeI5MEdgeEED2Ev @5908
    _ZN9__gnu_cxx13new_allocatorISt13_Rb_tree_nodeIP14BDS_GeomEntityEE10deallocateEPS4_y @5909
    _ZN9__gnu_cxx13new_allocatorISt13_Rb_tree_nodeIP14BDS_GeomEntityEE7destroyIS3_EEvPT_ @5910
    _ZN9__gnu_cxx13new_allocatorISt13_Rb_tree_nodeIP14BDS_GeomEntityEE8allocateEyPKv @5911
    _ZN9__gnu_cxx13new_allocatorISt13_Rb_tree_nodeIP14BDS_GeomEntityEE9constructIS3_JS3_EEEvPT_DpOT0_ @5912
    _ZN9__gnu_cxx13new_allocatorISt13_Rb_tree_nodeIP14BDS_GeomEntityEED2Ev @5913
    _ZN9__gnu_cxx13new_allocatorISt13_Rb_tree_nodeIP9BDS_PointEE10deallocateEPS4_y @5914
    _ZN9__gnu_cxx13new_allocatorISt13_Rb_tree_nodeIP9BDS_PointEE7destroyIS3_EEvPT_ @5915
    _ZN9__gnu_cxx13new_allocatorISt13_Rb_tree_nodeIP9BDS_PointEE8allocateEyPKv @5916
    _ZN9__gnu_cxx13new_allocatorISt13_Rb_tree_nodeIP9BDS_PointEE9constructIS3_JRKS3_EEEvPT_DpOT0_ @5917
    _ZN9__gnu_cxx13new_allocatorISt13_Rb_tree_nodeIP9BDS_PointEED2Ev @5918
    _ZN9__gnu_cxx13new_allocatorISt13_Rb_tree_nodeISt4pairIKNSt7__cxx1112basic_stringIcSt11char_traitsIcESaIcEEE13gmsh_yysymbolEEE10deallocateEPSC_y @5919
    _ZN9__gnu_cxx13new_allocatorISt13_Rb_tree_nodeISt4pairIKNSt7__cxx1112basic_stringIcSt11char_traitsIcESaIcEEE13gmsh_yysymbolEEE7destroyISB_EEvPT_ @5920
    _ZN9__gnu_cxx13new_allocatorISt13_Rb_tree_nodeISt4pairIKNSt7__cxx1112basic_stringIcSt11char_traitsIcESaIcEEE13gmsh_yysymbolEEE8allocateEyPKv @5921
    _ZN9__gnu_cxx13new_allocatorISt13_Rb_tree_nodeISt4pairIKNSt7__cxx1112basic_stringIcSt11char_traitsIcESaIcEEE13gmsh_yysymbolEEE9constructISB_JRKSt21piecewise_construct_tSt5tupleIJOS8_EESI_IJEEEEEvPT_DpOT0_ @5922
    _ZN9__gnu_cxx13new_allocatorISt13_Rb_tree_nodeISt4pairIKNSt7__cxx1112basic_stringIcSt11char_traitsIcESaIcEEE13gmsh_yysymbolEEE9constructISB_JRKSt21piecewise_construct_tSt5tupleIJRS9_EESI_IJEEEEEvPT_DpOT0_ @5923
    _ZN9__gnu_cxx13new_allocatorISt13_Rb_tree_nodeISt4pairIKNSt7__cxx1112basic_stringIcSt11char_traitsIcESaIcEEE13gmsh_yysymbolEEEC2Ev @5924
    _ZN9__gnu_cxx13new_allocatorISt13_Rb_tree_nodeISt4pairIKNSt7__cxx1112basic_stringIcSt11char_traitsIcESaIcEEE13gmsh_yysymbolEEED2Ev @5925
    _ZN9__gnu_cxx13new_allocatorISt13_Rb_tree_nodeISt4pairIKNSt7__cxx1112basic_stringIcSt11char_traitsIcESaIcEEE6StructEEE10deallocateEPSC_y @5926
    _ZN9__gnu_cxx13new_allocatorISt13_Rb_tree_nodeISt4pairIKNSt7__cxx1112basic_stringIcSt11char_traitsIcESaIcEEE6StructEEE7destroyISB_EEvPT_ @5927
    _ZN9__gnu_cxx13new_allocatorISt13_Rb_tree_nodeISt4pairIKNSt7__cxx1112basic_stringIcSt11char_traitsIcESaIcEEE6StructEEE8allocateEyPKv @5928
    _ZN9__gnu_cxx13new_allocatorISt13_Rb_tree_nodeISt4pairIKNSt7__cxx1112basic_stringIcSt11char_traitsIcESaIcEEE6StructEEE9constructISB_JRKSt21piecewise_construct_tSt5tupleIJRS9_EESI_IJEEEEEvPT_DpOT0_ @5929
    _ZN9__gnu_cxx13new_allocatorISt13_Rb_tree_nodeISt4pairIKNSt7__cxx1112basic_stringIcSt11char_traitsIcESaIcEEE6StructEEEC2Ev @5930
    _ZN9__gnu_cxx13new_allocatorISt13_Rb_tree_nodeISt4pairIKNSt7__cxx1112basic_stringIcSt11char_traitsIcESaIcEEE6StructEEED2Ev @5931
    _ZN9__gnu_cxx13new_allocatorISt13_Rb_tree_nodeISt4pairIKNSt7__cxx1112basic_stringIcSt11char_traitsIcESaIcEEE7StructsEEE10deallocateEPSC_y @5932
    _ZN9__gnu_cxx13new_allocatorISt13_Rb_tree_nodeISt4pairIKNSt7__cxx1112basic_stringIcSt11char_traitsIcESaIcEEE7StructsEEE7destroyISB_EEvPT_ @5933
    _ZN9__gnu_cxx13new_allocatorISt13_Rb_tree_nodeISt4pairIKNSt7__cxx1112basic_stringIcSt11char_traitsIcESaIcEEE7StructsEEE8allocateEyPKv @5934
    _ZN9__gnu_cxx13new_allocatorISt13_Rb_tree_nodeISt4pairIKNSt7__cxx1112basic_stringIcSt11char_traitsIcESaIcEEE7StructsEEE9constructISB_JRKSt21piecewise_construct_tSt5tupleIJRS9_EESI_IJEEEEEvPT_DpOT0_ @5935
    _ZN9__gnu_cxx13new_allocatorISt13_Rb_tree_nodeISt4pairIKNSt7__cxx1112basic_stringIcSt11char_traitsIcESaIcEEE7StructsEEEC2Ev @5936
    _ZN9__gnu_cxx13new_allocatorISt13_Rb_tree_nodeISt4pairIKNSt7__cxx1112basic_stringIcSt11char_traitsIcESaIcEEE7StructsEEED2Ev @5937
    _ZN9__gnu_cxx13new_allocatorISt13_Rb_tree_nodeISt4pairIKNSt7__cxx1112basic_stringIcSt11char_traitsIcESaIcEEEP11FieldOptionEEE10deallocateEPSD_y @5938
    _ZN9__gnu_cxx13new_allocatorISt13_Rb_tree_nodeISt4pairIKNSt7__cxx1112basic_stringIcSt11char_traitsIcESaIcEEEP11FieldOptionEEE7destroyISC_EEvPT_ @5939
    _ZN9__gnu_cxx13new_allocatorISt13_Rb_tree_nodeISt4pairIKNSt7__cxx1112basic_stringIcSt11char_traitsIcESaIcEEEP11FieldOptionEEE8allocateEyPKv @5940
    _ZN9__gnu_cxx13new_allocatorISt13_Rb_tree_nodeISt4pairIKNSt7__cxx1112basic_stringIcSt11char_traitsIcESaIcEEEP11FieldOptionEEE9constructISC_JRKSt21piecewise_construct_tSt5tupleIJOS8_EESJ_IJEEEEEvPT_DpOT0_ @5941
    _ZN9__gnu_cxx13new_allocatorISt13_Rb_tree_nodeISt4pairIKNSt7__cxx1112basic_stringIcSt11char_traitsIcESaIcEEEP13FieldCallbackEEE10deallocateEPSD_y @5942
    _ZN9__gnu_cxx13new_allocatorISt13_Rb_tree_nodeISt4pairIKNSt7__cxx1112basic_stringIcSt11char_traitsIcESaIcEEEP13FieldCallbackEEE7destroyISC_EEvPT_ @5943
    _ZN9__gnu_cxx13new_allocatorISt13_Rb_tree_nodeISt4pairIKNSt7__cxx1112basic_stringIcSt11char_traitsIcESaIcEEEP13FieldCallbackEEE8allocateEyPKv @5944
    _ZN9__gnu_cxx13new_allocatorISt13_Rb_tree_nodeISt4pairIKNSt7__cxx1112basic_stringIcSt11char_traitsIcESaIcEEEP13FieldCallbackEEE9constructISC_JRKSt21piecewise_construct_tSt5tupleIJOS8_EESJ_IJEEEEEvPT_DpOT0_ @5945
    _ZN9__gnu_cxx13new_allocatorISt13_Rb_tree_nodeISt4pairIKNSt7__cxx1112basic_stringIcSt11char_traitsIcESaIcEEESt6vectorIS8_SaIS8_EEEEE10deallocateEPSE_y @5946
    _ZN9__gnu_cxx13new_allocatorISt13_Rb_tree_nodeISt4pairIKNSt7__cxx1112basic_stringIcSt11char_traitsIcESaIcEEESt6vectorIS8_SaIS8_EEEEE7destroyISD_EEvPT_ @5947
    _ZN9__gnu_cxx13new_allocatorISt13_Rb_tree_nodeISt4pairIKNSt7__cxx1112basic_stringIcSt11char_traitsIcESaIcEEESt6vectorIS8_SaIS8_EEEEE8allocateEyPKv @5948
    _ZN9__gnu_cxx13new_allocatorISt13_Rb_tree_nodeISt4pairIKNSt7__cxx1112basic_stringIcSt11char_traitsIcESaIcEEESt6vectorIS8_SaIS8_EEEEE9constructISD_JRKSD_EEEvPT_DpOT0_ @5949
    _ZN9__gnu_cxx13new_allocatorISt13_Rb_tree_nodeISt4pairIKNSt7__cxx1112basic_stringIcSt11char_traitsIcESaIcEEESt6vectorIS8_SaIS8_EEEEE9constructISD_JRKSt21piecewise_construct_tSt5tupleIJOS8_EESK_IJEEEEEvPT_DpOT0_ @5950
    _ZN9__gnu_cxx13new_allocatorISt13_Rb_tree_nodeISt4pairIKNSt7__cxx1112basic_stringIcSt11char_traitsIcESaIcEEESt6vectorIS8_SaIS8_EEEEE9constructISD_JRKSt21piecewise_construct_tSt5tupleIJRS9_EESK_IJEEEEEvPT_DpOT0_ @5951
    _ZN9__gnu_cxx13new_allocatorISt13_Rb_tree_nodeISt4pairIKNSt7__cxx1112basic_stringIcSt11char_traitsIcESaIcEEESt6vectorIS8_SaIS8_EEEEE9constructISD_JRSD_EEEvPT_DpOT0_ @5952
    _ZN9__gnu_cxx13new_allocatorISt13_Rb_tree_nodeISt4pairIKNSt7__cxx1112basic_stringIcSt11char_traitsIcESaIcEEESt6vectorIS8_SaIS8_EEEEEC2ERKSF_ @5953
    _ZN9__gnu_cxx13new_allocatorISt13_Rb_tree_nodeISt4pairIKNSt7__cxx1112basic_stringIcSt11char_traitsIcESaIcEEESt6vectorIS8_SaIS8_EEEEEC2Ev @5954
    _ZN9__gnu_cxx13new_allocatorISt13_Rb_tree_nodeISt4pairIKNSt7__cxx1112basic_stringIcSt11char_traitsIcESaIcEEESt6vectorIS8_SaIS8_EEEEED2Ev @5955
    _ZN9__gnu_cxx13new_allocatorISt13_Rb_tree_nodeISt4pairIKNSt7__cxx1112basic_stringIcSt11char_traitsIcESaIcEEESt6vectorIdSaIdEEEEE10deallocateEPSE_y @5956
    _ZN9__gnu_cxx13new_allocatorISt13_Rb_tree_nodeISt4pairIKNSt7__cxx1112basic_stringIcSt11char_traitsIcESaIcEEESt6vectorIdSaIdEEEEE7destroyISD_EEvPT_ @5957
    _ZN9__gnu_cxx13new_allocatorISt13_Rb_tree_nodeISt4pairIKNSt7__cxx1112basic_stringIcSt11char_traitsIcESaIcEEESt6vectorIdSaIdEEEEE8allocateEyPKv @5958
    _ZN9__gnu_cxx13new_allocatorISt13_Rb_tree_nodeISt4pairIKNSt7__cxx1112basic_stringIcSt11char_traitsIcESaIcEEESt6vectorIdSaIdEEEEE9constructISD_JRKSD_EEEvPT_DpOT0_ @5959
    _ZN9__gnu_cxx13new_allocatorISt13_Rb_tree_nodeISt4pairIKNSt7__cxx1112basic_stringIcSt11char_traitsIcESaIcEEESt6vectorIdSaIdEEEEE9constructISD_JRKSt21piecewise_construct_tSt5tupleIJOS8_EESK_IJEEEEEvPT_DpOT0_ @5960
    _ZN9__gnu_cxx13new_allocatorISt13_Rb_tree_nodeISt4pairIKNSt7__cxx1112basic_stringIcSt11char_traitsIcESaIcEEESt6vectorIdSaIdEEEEE9constructISD_JRKSt21piecewise_construct_tSt5tupleIJRS9_EESK_IJEEEEEvPT_DpOT0_ @5961
    _ZN9__gnu_cxx13new_allocatorISt13_Rb_tree_nodeISt4pairIKNSt7__cxx1112basic_stringIcSt11char_traitsIcESaIcEEESt6vectorIdSaIdEEEEE9constructISD_JRSD_EEEvPT_DpOT0_ @5962
    _ZN9__gnu_cxx13new_allocatorISt13_Rb_tree_nodeISt4pairIKNSt7__cxx1112basic_stringIcSt11char_traitsIcESaIcEEESt6vectorIdSaIdEEEEEC2ERKSF_ @5963
    _ZN9__gnu_cxx13new_allocatorISt13_Rb_tree_nodeISt4pairIKNSt7__cxx1112basic_stringIcSt11char_traitsIcESaIcEEESt6vectorIdSaIdEEEEEC2Ev @5964
    _ZN9__gnu_cxx13new_allocatorISt13_Rb_tree_nodeISt4pairIKNSt7__cxx1112basic_stringIcSt11char_traitsIcESaIcEEESt6vectorIdSaIdEEEEED2Ev @5965
    _ZN9__gnu_cxx13new_allocatorISt13_Rb_tree_nodeISt4pairIKiS2_IdSt6vectorIiSaIiEEEEEE10deallocateEPS9_y @5966
    _ZN9__gnu_cxx13new_allocatorISt13_Rb_tree_nodeISt4pairIKiS2_IdSt6vectorIiSaIiEEEEEE7destroyIS8_EEvPT_ @5967
    _ZN9__gnu_cxx13new_allocatorISt13_Rb_tree_nodeISt4pairIKiS2_IdSt6vectorIiSaIiEEEEEE8allocateEyPKv @5968
    _ZN9__gnu_cxx13new_allocatorISt13_Rb_tree_nodeISt4pairIKiS2_IdSt6vectorIiSaIiEEEEEE9constructIS8_JRKSt21piecewise_construct_tSt5tupleIJRS3_EESF_IJEEEEEvPT_DpOT0_ @5969
    _ZN9__gnu_cxx13new_allocatorISt13_Rb_tree_nodeISt4pairIKiS2_IdSt6vectorIiSaIiEEEEEED2Ev @5970
    _ZN9__gnu_cxx13new_allocatorISt13_Rb_tree_nodeISt4pairIKiSt6vectorIP7GEntitySaIS6_EEEEE10deallocateEPSA_y @5971
    _ZN9__gnu_cxx13new_allocatorISt13_Rb_tree_nodeISt4pairIKiSt6vectorIP7GEntitySaIS6_EEEEE7destroyIS9_EEvPT_ @5972
    _ZN9__gnu_cxx13new_allocatorISt13_Rb_tree_nodeISt4pairIKiSt6vectorIP7GEntitySaIS6_EEEEEC2Ev @5973
    _ZN9__gnu_cxx13new_allocatorISt13_Rb_tree_nodeISt4pairIKiSt6vectorIP7GEntitySaIS6_EEEEED2Ev @5974
    _ZN9__gnu_cxx13new_allocatorISt13_Rb_tree_nodeISt4pairIKiiEEE10deallocateEPS5_y @5975
    _ZN9__gnu_cxx13new_allocatorISt13_Rb_tree_nodeISt4pairIKiiEEE7destroyIS4_EEvPT_ @5976
    _ZN9__gnu_cxx13new_allocatorISt13_Rb_tree_nodeISt4pairIKiiEEE8allocateEyPKv @5977
    _ZN9__gnu_cxx13new_allocatorISt13_Rb_tree_nodeISt4pairIKiiEEE9constructIS4_JRKSt21piecewise_construct_tSt5tupleIJOiEESB_IJEEEEEvPT_DpOT0_ @5978
    _ZN9__gnu_cxx13new_allocatorISt13_Rb_tree_nodeISt4pairIKiiEEEC2Ev @5979
    _ZN9__gnu_cxx13new_allocatorISt13_Rb_tree_nodeISt4pairIKiiEEED2Ev @5980
    _ZN9__gnu_cxx13new_allocatorISt4pairIiiEE10deallocateEPS2_y @5981
    _ZN9__gnu_cxx13new_allocatorISt4pairIiiEE7destroyIS2_EEvPT_ @5982
    _ZN9__gnu_cxx13new_allocatorISt4pairIiiEE8allocateEyPKv @5983
    _ZN9__gnu_cxx13new_allocatorISt4pairIiiEE9constructIS2_JS2_EEEvPT_DpOT0_ @5984
    _ZN9__gnu_cxx13new_allocatorISt4pairIiiEEC2Ev @5985
    _ZN9__gnu_cxx13new_allocatorISt4pairIiiEED2Ev @5986
    _ZN9__gnu_cxx13new_allocatorISt6vectorISt4pairIiiESaIS3_EEE10deallocateEPS5_y @5987
    _ZN9__gnu_cxx13new_allocatorISt6vectorISt4pairIiiESaIS3_EEEC2Ev @5988
    _ZN9__gnu_cxx13new_allocatorISt6vectorISt4pairIiiESaIS3_EEED2Ev @5989
    _ZN9__gnu_cxx13new_allocatorISt6vectorIdSaIdEEE10deallocateEPS3_y @5990
    _ZN9__gnu_cxx13new_allocatorISt6vectorIdSaIdEEE7destroyIS3_EEvPT_ @5991
    _ZN9__gnu_cxx13new_allocatorISt6vectorIdSaIdEEE8allocateEyPKv @5992
    _ZN9__gnu_cxx13new_allocatorISt6vectorIdSaIdEEE9constructIS3_JS3_EEEvPT_DpOT0_ @5993
    _ZN9__gnu_cxx13new_allocatorISt6vectorIdSaIdEEEC2ERKS4_ @5994
    _ZN9__gnu_cxx13new_allocatorISt6vectorIdSaIdEEEC2Ev @5995
    _ZN9__gnu_cxx13new_allocatorISt6vectorIdSaIdEEED2Ev @5996
    _ZN9__gnu_cxx13new_allocatorIcE10deallocateEPcy @5997
    _ZN9__gnu_cxx13new_allocatorIcE7destroyIcEEvPT_ @5998
    _ZN9__gnu_cxx13new_allocatorIcE8allocateEyPKv @5999
    _ZN9__gnu_cxx13new_allocatorIcE9constructIcJRKcEEEvPT_DpOT0_ @6000
    _ZN9__gnu_cxx13new_allocatorIdE10deallocateEPdy @6001
    _ZN9__gnu_cxx13new_allocatorIdE7destroyIdEEvPT_ @6002
    _ZN9__gnu_cxx13new_allocatorIdE8allocateEyPKv @6003
    _ZN9__gnu_cxx13new_allocatorIdE9constructIdJRKdEEEvPT_DpOT0_ @6004
    _ZN9__gnu_cxx13new_allocatorIdE9constructIdJdEEEvPT_DpOT0_ @6005
    _ZN9__gnu_cxx13new_allocatorIdEC2ERKS1_ @6006
    _ZN9__gnu_cxx13new_allocatorIdEC2Ev @6007
    _ZN9__gnu_cxx13new_allocatorIdED2Ev @6008
    _ZN9__gnu_cxx13new_allocatorIiE10deallocateEPiy @6009
    _ZN9__gnu_cxx13new_allocatorIiE7destroyIiEEvPT_ @6010
    _ZN9__gnu_cxx13new_allocatorIiE8allocateEyPKv @6011
    _ZN9__gnu_cxx13new_allocatorIiE9constructIiJRKiEEEvPT_DpOT0_ @6012
    _ZN9__gnu_cxx13new_allocatorIiE9constructIiJiEEEvPT_DpOT0_ @6013
    _ZN9__gnu_cxx13new_allocatorIiEC2ERKS1_ @6014
    _ZN9__gnu_cxx13new_allocatorIiEC2Ev @6015
    _ZN9__gnu_cxx13new_allocatorIiED2Ev @6016
    _ZN9__gnu_cxx14__alloc_traitsISaINSt7__cxx1112basic_stringIcSt11char_traitsIcESaIcEEEES6_E15_S_always_equalEv @6017
    _ZN9__gnu_cxx14__alloc_traitsISaINSt7__cxx1112basic_stringIcSt11char_traitsIcESaIcEEEES6_E17_S_select_on_copyERKS7_ @6018
    _ZN9__gnu_cxx14__alloc_traitsISaINSt7__cxx1112basic_stringIcSt11char_traitsIcESaIcEEEES6_E27_S_propagate_on_copy_assignEv @6019
    _ZN9__gnu_cxx14__alloc_traitsISaIP14simpleFunctionIdEES3_E17_S_select_on_copyERKS4_ @6020
    _ZN9__gnu_cxx14__alloc_traitsISaIP9gLevelsetES2_E15_S_always_equalEv @6021
    _ZN9__gnu_cxx14__alloc_traitsISaIP9gLevelsetES2_E17_S_select_on_copyERKS3_ @6022
    _ZN9__gnu_cxx14__alloc_traitsISaIP9gLevelsetES2_E27_S_propagate_on_copy_assignEv @6023
    _ZN9__gnu_cxx14__alloc_traitsISaISt10_List_nodeIP8BDS_EdgeEES4_E17_S_select_on_copyERKS5_ @6024
    _ZN9__gnu_cxx14__alloc_traitsISaISt10_List_nodeIP8BDS_FaceEES4_E17_S_select_on_copyERKS5_ @6025
    _ZN9__gnu_cxx14__alloc_traitsISaISt10_List_nodeIdEES2_E17_S_select_on_copyERKS3_ @6026
    _ZN9__gnu_cxx14__alloc_traitsISaISt10_List_nodeIiEES2_E17_S_select_on_copyERKS3_ @6027
    _ZN9__gnu_cxx14__alloc_traitsISaISt13_Rb_tree_nodeISt4pairIKNSt7__cxx1112basic_stringIcSt11char_traitsIcESaIcEEESt6vectorIS8_SaIS8_EEEEESE_E15_S_always_equalEv @6028
    _ZN9__gnu_cxx14__alloc_traitsISaISt13_Rb_tree_nodeISt4pairIKNSt7__cxx1112basic_stringIcSt11char_traitsIcESaIcEEESt6vectorIS8_SaIS8_EEEEESE_E17_S_select_on_copyERKSF_ @6029
    _ZN9__gnu_cxx14__alloc_traitsISaISt13_Rb_tree_nodeISt4pairIKNSt7__cxx1112basic_stringIcSt11char_traitsIcESaIcEEESt6vectorIS8_SaIS8_EEEEESE_E27_S_propagate_on_copy_assignEv @6030
    _ZN9__gnu_cxx14__alloc_traitsISaISt13_Rb_tree_nodeISt4pairIKNSt7__cxx1112basic_stringIcSt11char_traitsIcESaIcEEESt6vectorIdSaIdEEEEESE_E15_S_always_equalEv @6031
    _ZN9__gnu_cxx14__alloc_traitsISaISt13_Rb_tree_nodeISt4pairIKNSt7__cxx1112basic_stringIcSt11char_traitsIcESaIcEEESt6vectorIdSaIdEEEEESE_E17_S_select_on_copyERKSF_ @6032
    _ZN9__gnu_cxx14__alloc_traitsISaISt13_Rb_tree_nodeISt4pairIKNSt7__cxx1112basic_stringIcSt11char_traitsIcESaIcEEESt6vectorIdSaIdEEEEESE_E27_S_propagate_on_copy_assignEv @6033
    _ZN9__gnu_cxx14__alloc_traitsISaISt6vectorIdSaIdEEES3_E17_S_select_on_copyERKS4_ @6034
    _ZN9__gnu_cxx14__alloc_traitsISaIcEcE17_S_select_on_copyERKS1_ @6035
    _ZN9__gnu_cxx14__alloc_traitsISaIdEdE15_S_always_equalEv @6036
    _ZN9__gnu_cxx14__alloc_traitsISaIdEdE17_S_select_on_copyERKS1_ @6037
    _ZN9__gnu_cxx14__alloc_traitsISaIdEdE27_S_propagate_on_copy_assignEv @6038
    _ZN9__gnu_cxx14__alloc_traitsISaIiEiE15_S_always_equalEv @6039
    _ZN9__gnu_cxx14__alloc_traitsISaIiEiE17_S_select_on_copyERKS1_ @6040
    _ZN9__gnu_cxx14__alloc_traitsISaIiEiE27_S_propagate_on_copy_assignEv @6041
    _ZN9__gnu_cxx16__aligned_membufI13EdgeToRecoverE6_M_ptrEv @6042
    _ZN9__gnu_cxx16__aligned_membufI13EdgeToRecoverE7_M_addrEv @6043
    _ZN9__gnu_cxx16__aligned_membufI5MEdgeE6_M_ptrEv @6044
    _ZN9__gnu_cxx16__aligned_membufI5MEdgeE7_M_addrEv @6045
    _ZN9__gnu_cxx16__aligned_membufIP14BDS_GeomEntityE6_M_ptrEv @6046
    _ZN9__gnu_cxx16__aligned_membufIP14BDS_GeomEntityE7_M_addrEv @6047
    _ZN9__gnu_cxx16__aligned_membufIP5GEdgeE6_M_ptrEv @6048
    _ZN9__gnu_cxx16__aligned_membufIP5GEdgeE7_M_addrEv @6049
    _ZN9__gnu_cxx16__aligned_membufIP5GFaceE6_M_ptrEv @6050
    _ZN9__gnu_cxx16__aligned_membufIP5GFaceE7_M_addrEv @6051
    _ZN9__gnu_cxx16__aligned_membufIP7GVertexE6_M_ptrEv @6052
    _ZN9__gnu_cxx16__aligned_membufIP7GVertexE7_M_addrEv @6053
    _ZN9__gnu_cxx16__aligned_membufIP8BDS_EdgeE6_M_ptrEv @6054
    _ZN9__gnu_cxx16__aligned_membufIP8BDS_EdgeE7_M_addrEv @6055
    _ZN9__gnu_cxx16__aligned_membufIP8BDS_FaceE6_M_ptrEv @6056
    _ZN9__gnu_cxx16__aligned_membufIP8BDS_FaceE7_M_addrEv @6057
    _ZN9__gnu_cxx16__aligned_membufIP9BDS_PointE6_M_ptrEv @6058
    _ZN9__gnu_cxx16__aligned_membufIP9BDS_PointE7_M_addrEv @6059
    _ZN9__gnu_cxx16__aligned_membufISt4pairIKNSt7__cxx1112basic_stringIcSt11char_traitsIcESaIcEEE13gmsh_yysymbolEE6_M_ptrEv @6060
    _ZN9__gnu_cxx16__aligned_membufISt4pairIKNSt7__cxx1112basic_stringIcSt11char_traitsIcESaIcEEE13gmsh_yysymbolEE7_M_addrEv @6061
    _ZN9__gnu_cxx16__aligned_membufISt4pairIKNSt7__cxx1112basic_stringIcSt11char_traitsIcESaIcEEE6StructEE6_M_ptrEv @6062
    _ZN9__gnu_cxx16__aligned_membufISt4pairIKNSt7__cxx1112basic_stringIcSt11char_traitsIcESaIcEEE6StructEE7_M_addrEv @6063
    _ZN9__gnu_cxx16__aligned_membufISt4pairIKNSt7__cxx1112basic_stringIcSt11char_traitsIcESaIcEEE7StructsEE6_M_ptrEv @6064
    _ZN9__gnu_cxx16__aligned_membufISt4pairIKNSt7__cxx1112basic_stringIcSt11char_traitsIcESaIcEEE7StructsEE7_M_addrEv @6065
    _ZN9__gnu_cxx16__aligned_membufISt4pairIKNSt7__cxx1112basic_stringIcSt11char_traitsIcESaIcEEEP11FieldOptionEE6_M_ptrEv @6066
    _ZN9__gnu_cxx16__aligned_membufISt4pairIKNSt7__cxx1112basic_stringIcSt11char_traitsIcESaIcEEEP11FieldOptionEE7_M_addrEv @6067
    _ZN9__gnu_cxx16__aligned_membufISt4pairIKNSt7__cxx1112basic_stringIcSt11char_traitsIcESaIcEEEP13FieldCallbackEE6_M_ptrEv @6068
    _ZN9__gnu_cxx16__aligned_membufISt4pairIKNSt7__cxx1112basic_stringIcSt11char_traitsIcESaIcEEEP13FieldCallbackEE7_M_addrEv @6069
    _ZN9__gnu_cxx16__aligned_membufISt4pairIKNSt7__cxx1112basic_stringIcSt11char_traitsIcESaIcEEESt6vectorIS7_SaIS7_EEEE6_M_ptrEv @6070
    _ZN9__gnu_cxx16__aligned_membufISt4pairIKNSt7__cxx1112basic_stringIcSt11char_traitsIcESaIcEEESt6vectorIS7_SaIS7_EEEE7_M_addrEv @6071
    _ZN9__gnu_cxx16__aligned_membufISt4pairIKNSt7__cxx1112basic_stringIcSt11char_traitsIcESaIcEEESt6vectorIdSaIdEEEE6_M_ptrEv @6072
    _ZN9__gnu_cxx16__aligned_membufISt4pairIKNSt7__cxx1112basic_stringIcSt11char_traitsIcESaIcEEESt6vectorIdSaIdEEEE7_M_addrEv @6073
    _ZN9__gnu_cxx16__aligned_membufISt4pairIKiS1_IdSt6vectorIiSaIiEEEEE6_M_ptrEv @6074
    _ZN9__gnu_cxx16__aligned_membufISt4pairIKiS1_IdSt6vectorIiSaIiEEEEE7_M_addrEv @6075
    _ZN9__gnu_cxx16__aligned_membufISt4pairIKiSt6vectorIP7GEntitySaIS5_EEEE6_M_ptrEv @6076
    _ZN9__gnu_cxx16__aligned_membufISt4pairIKiSt6vectorIP7GEntitySaIS5_EEEE7_M_addrEv @6077
    _ZN9__gnu_cxx16__aligned_membufISt4pairIKiiEE6_M_ptrEv @6078
    _ZN9__gnu_cxx16__aligned_membufISt4pairIKiiEE7_M_addrEv @6079
    _ZN9__gnu_cxx16__aligned_membufIdE6_M_ptrEv @6080
    _ZN9__gnu_cxx16__aligned_membufIdE7_M_addrEv @6081
    _ZN9__gnu_cxx16__aligned_membufIiE6_M_ptrEv @6082
    _ZN9__gnu_cxx16__aligned_membufIiE7_M_addrEv @6083
    _ZN9__gnu_cxx17__normal_iteratorIPKNSt7__cxx1112basic_stringIcSt11char_traitsIcESaIcEEESt6vectorIS6_SaIS6_EEEC1ERKS8_ @6084
    _ZN9__gnu_cxx17__normal_iteratorIPKNSt7__cxx1112basic_stringIcSt11char_traitsIcESaIcEEESt6vectorIS6_SaIS6_EEEC1IPS6_EERKNS0_IT_NS_11__enable_ifIXsrSt10__are_sameISF_SE_E7__valueESB_E6__typeEEE @6085
    _ZN9__gnu_cxx17__normal_iteratorIPKNSt7__cxx1112basic_stringIcSt11char_traitsIcESaIcEEESt6vectorIS6_SaIS6_EEEppEv @6086
    _ZN9__gnu_cxx17__normal_iteratorIPKP14simpleFunctionIdESt6vectorIS3_SaIS3_EEEC1ERKS5_ @6087
    _ZN9__gnu_cxx17__normal_iteratorIPKP8BDS_FaceSt6vectorIS2_SaIS2_EEEC1ERKS4_ @6088
    _ZN9__gnu_cxx17__normal_iteratorIPKP8BDS_FaceSt6vectorIS2_SaIS2_EEEC1IPS2_EERKNS0_IT_NS_11__enable_ifIXsrSt10__are_sameISB_SA_E7__valueES7_E6__typeEEE @6089
    _ZN9__gnu_cxx17__normal_iteratorIPKP9gLevelsetSt6vectorIS2_SaIS2_EEEC1ERKS4_ @6090
    _ZN9__gnu_cxx17__normal_iteratorIPKSt6vectorIdSaIdEES1_IS3_SaIS3_EEEC1ERKS5_ @6091
    _ZN9__gnu_cxx17__normal_iteratorIPKSt6vectorIdSaIdEES1_IS3_SaIS3_EEEppEv @6092
    _ZN9__gnu_cxx17__normal_iteratorIPKdSt6vectorIdSaIdEEEC1ERKS2_ @6093
    _ZN9__gnu_cxx17__normal_iteratorIPKdSt6vectorIdSaIdEEEC1IPdEERKNS0_IT_NS_11__enable_ifIXsrSt10__are_sameIS9_S8_E7__valueES5_E6__typeEEE @6094
    _ZN9__gnu_cxx17__normal_iteratorIPKiSt6vectorIiSaIiEEEC1ERKS2_ @6095
    _ZN9__gnu_cxx17__normal_iteratorIPNSt7__cxx1112basic_stringIcSt11char_traitsIcESaIcEEESt6vectorIS6_SaIS6_EEEC1ERKS7_ @6096
    _ZN9__gnu_cxx17__normal_iteratorIPNSt7__cxx1112basic_stringIcSt11char_traitsIcESaIcEEESt6vectorIS6_SaIS6_EEEpLEx @6097
    _ZN9__gnu_cxx17__normal_iteratorIPNSt7__cxx1112basic_stringIcSt11char_traitsIcESaIcEEESt6vectorIS6_SaIS6_EEEppEv @6098
    _ZN9__gnu_cxx17__normal_iteratorIPP14simpleFunctionIdESt6vectorIS3_SaIS3_EEEC1ERKS4_ @6099
    _ZN9__gnu_cxx17__normal_iteratorIPP7GVertexSt6vectorIS2_SaIS2_EEEC1ERKS3_ @6100
    _ZN9__gnu_cxx17__normal_iteratorIPP8BDS_EdgeSt6vectorIS2_SaIS2_EEEC1ERKS3_ @6101
    _ZN9__gnu_cxx17__normal_iteratorIPP8BDS_FaceSt6vectorIS2_SaIS2_EEEC1ERKS3_ @6102
    _ZN9__gnu_cxx17__normal_iteratorIPP8BDS_FaceSt6vectorIS2_SaIS2_EEEppEv @6103
    _ZN9__gnu_cxx17__normal_iteratorIPP9gLevelsetSt6vectorIS2_SaIS2_EEEC1ERKS3_ @6104
    _ZN9__gnu_cxx17__normal_iteratorIPSt4pairIiiESt6vectorIS2_SaIS2_EEEC1ERKS3_ @6105
    _ZN9__gnu_cxx17__normal_iteratorIPcSt6vectorIcSaIcEEEC1ERKS1_ @6106
    _ZN9__gnu_cxx17__normal_iteratorIPdSt6vectorIdSaIdEEEC1ERKS1_ @6107
    _ZN9__gnu_cxx17__normal_iteratorIPdSt6vectorIdSaIdEEEmmEv @6108
    _ZN9__gnu_cxx17__normal_iteratorIPdSt6vectorIdSaIdEEEppEv @6109
    _ZN9__gnu_cxx17__normal_iteratorIPiSt6vectorIiSaIiEEEC1ERKS1_ @6110
    _ZN9__gnu_cxx5__ops10_Iter_predISt9binder2ndISt8equal_toIP8BDS_FaceEEEC1ES7_ @6111
    _ZN9__gnu_cxx5__ops10_Iter_predISt9binder2ndISt8equal_toIP8BDS_FaceEEEclINS_17__normal_iteratorIPS5_St6vectorIS5_SaIS5_EEEEEEbT_ @6112
    _ZN9__gnu_cxx5__ops11__pred_iterISt9binder2ndISt8equal_toIP8BDS_FaceEEEENS0_10_Iter_predIT_EES9_ @6113
    _ZN9__gnu_cxx5__ops14_Iter_less_valC1ENS0_15_Iter_less_iterE @6114
    _ZN9__gnu_cxx5__ops15__val_comp_iterENS0_15_Iter_less_iterE @6115
    _ZN9__gnu_cxx5__ops16_Iter_equals_valIKdEC1ERS2_ @6116
    _ZN9__gnu_cxx5__ops16_Iter_equals_valIKdEclINS_17__normal_iteratorIPdSt6vectorIdSaIdEEEEEEbT_ @6117
    _ZN9__gnu_cxx5__ops16__iter_less_iterEv @6118
    _ZN9__gnu_cxx5__ops17__iter_equals_valIKdEENS0_16_Iter_equals_valIT_EERS4_ @6119
    _ZN9__gnu_cxx5__ops20__iter_equal_to_iterEv @6120
    _ZN9__gnu_cxxeqIPKNSt7__cxx1112basic_stringIcSt11char_traitsIcESaIcEEEPS6_St6vectorIS6_SaIS6_EEEEbRKNS_17__normal_iteratorIT_T1_EERKNSD_IT0_SF_EE @6121
    _ZN9__gnu_cxxeqIPKdSt6vectorIdSaIdEEEEbRKNS_17__normal_iteratorIT_T0_EESB_ @6122
    _ZN9__gnu_cxxeqIPKiSt6vectorIiSaIiEEEEbRKNS_17__normal_iteratorIT_T0_EESB_ @6123
    _ZN9__gnu_cxxeqIPP8BDS_FaceSt6vectorIS2_SaIS2_EEEEbRKNS_17__normal_iteratorIT_T0_EESC_ @6124
    _ZN9__gnu_cxxeqIPdSt6vectorIdSaIdEEEEbRKNS_17__normal_iteratorIT_T0_EESA_ @6125
    _ZN9__gnu_cxxltIPdSt6vectorIdSaIdEEEEbRKNS_17__normal_iteratorIT_T0_EESA_ @6126
    _ZN9__gnu_cxxmiIPKNSt7__cxx1112basic_stringIcSt11char_traitsIcESaIcEEEPS6_St6vectorIS6_SaIS6_EEEEDTmicldtfp_4baseEcldtfp0_4baseEERKNS_17__normal_iteratorIT_T1_EERKNSE_IT0_SG_EE @6127
    _ZN9__gnu_cxxmiIPKNSt7__cxx1112basic_stringIcSt11char_traitsIcESaIcEEESt6vectorIS6_SaIS6_EEEENS_17__normal_iteratorIT_T0_E15difference_typeERKSF_SI_ @6128
    _ZN9__gnu_cxxmiIPKP8BDS_FaceSt6vectorIS2_SaIS2_EEEENS_17__normal_iteratorIT_T0_E15difference_typeERKSB_SE_ @6129
    _ZN9__gnu_cxxmiIPKdSt6vectorIdSaIdEEEENS_17__normal_iteratorIT_T0_E15difference_typeERKS9_SC_ @6130
    _ZN9__gnu_cxxmiIPNSt7__cxx1112basic_stringIcSt11char_traitsIcESaIcEEESt6vectorIS6_SaIS6_EEEENS_17__normal_iteratorIT_T0_E15difference_typeERKSE_SH_ @6131
    _ZN9__gnu_cxxmiIPP14simpleFunctionIdESt6vectorIS3_SaIS3_EEEENS_17__normal_iteratorIT_T0_E15difference_typeERKSB_SE_ @6132
    _ZN9__gnu_cxxmiIPP7GVertexSt6vectorIS2_SaIS2_EEEENS_17__normal_iteratorIT_T0_E15difference_typeERKSA_SD_ @6133
    _ZN9__gnu_cxxmiIPP8BDS_EdgeSt6vectorIS2_SaIS2_EEEENS_17__normal_iteratorIT_T0_E15difference_typeERKSA_SD_ @6134
    _ZN9__gnu_cxxmiIPP8BDS_FaceSt6vectorIS2_SaIS2_EEEENS_17__normal_iteratorIT_T0_E15difference_typeERKSA_SD_ @6135
    _ZN9__gnu_cxxmiIPP9gLevelsetSt6vectorIS2_SaIS2_EEEENS_17__normal_iteratorIT_T0_E15difference_typeERKSA_SD_ @6136
    _ZN9__gnu_cxxmiIPSt4pairIiiESt6vectorIS2_SaIS2_EEEENS_17__normal_iteratorIT_T0_E15difference_typeERKSA_SD_ @6137
    _ZN9__gnu_cxxmiIPcSt6vectorIcSaIcEEEENS_17__normal_iteratorIT_T0_E15difference_typeERKS8_SB_ @6138
    _ZN9__gnu_cxxmiIPdSt6vectorIdSaIdEEEENS_17__normal_iteratorIT_T0_E15difference_typeERKS8_SB_ @6139
    _ZN9__gnu_cxxmiIPiSt6vectorIiSaIiEEEENS_17__normal_iteratorIT_T0_E15difference_typeERKS8_SB_ @6140
    _ZN9__gnu_cxxneIPKNSt7__cxx1112basic_stringIcSt11char_traitsIcESaIcEEESt6vectorIS6_SaIS6_EEEEbRKNS_17__normal_iteratorIT_T0_EESH_ @6141
    _ZN9__gnu_cxxneIPKSt6vectorIdSaIdEES1_IS3_SaIS3_EEEEbRKNS_17__normal_iteratorIT_T0_EESD_ @6142
    _ZN9__gnu_cxxneIPNSt7__cxx1112basic_stringIcSt11char_traitsIcESaIcEEESt6vectorIS6_SaIS6_EEEEbRKNS_17__normal_iteratorIT_T0_EESG_ @6143
    _ZN9__gnu_cxxneIPP8BDS_FaceSt6vectorIS2_SaIS2_EEEEbRKNS_17__normal_iteratorIT_T0_EESC_ @6144
    _ZN9__gnu_cxxneIPdSt6vectorIdSaIdEEEEbRKNS_17__normal_iteratorIT_T0_EESA_ @6145
    _ZN9gLevelset13getPrimitivesERSt6vectorIPS_SaIS1_EE @6146
    _ZN9gLevelset15getPrimitivesPOERSt6vectorIPS_SaIS1_EE @6147
    _ZN9gLevelset3addEPS_ @6148
    _ZN9gLevelset4all_E @6149 DATA
    _ZN9gLevelset4findEi @6150
    _ZN9gLevelset6getRPNERSt6vectorIPS_SaIS1_EE @6151
    _ZN9gLevelset7maxTag_E @6152 DATA
    _ZN9gLevelsetC1ERKS_ @6153
    _ZN9gLevelsetC2ERKS_ @6154
    _ZN9gLevelsetC2Ei @6155
    _ZN9gLevelsetD0Ev @6156
    _ZN9gLevelsetD1Ev @6157
    _ZN9gLevelsetD2Ev @6158
    _ZN9meshGEdgeclEP5GEdge @6159
    _ZN9meshGFaceclEP5GFaceb @6160
    _ZN9nanoflann24KDTreeSingleIndexAdaptorINS_17L2_Simple_AdaptorId17PointCloudAdaptorI10PointCloudEdEES4_Li3EyE10divideTreeEyyRNS_6CArrayINS6_8IntervalELy3EEE @6161
    _ZNK10MLineChild10ownsParentEv @6162
    _ZNK10MLineChild13getTypeForMSHEv @6163
    _ZNK10MLineChild16getFunctionSpaceEib @6164
    _ZNK10MLineChild17getShapeFunctionsEdddPdi @6165
    _ZNK10MLineChild20getJacobianFuncSpaceEi @6166
    _ZNK10MLineChild21getGradShapeFunctionsEdddPA3_di @6167
    _ZNK10MLineChild21getHessShapeFunctionsEdddPA3_A3_di @6168
    _ZNK10MLineChild8isInsideEddd @6169
    _ZNK10MLineChild9getParentEv @6170
    _ZNK10MTriangle613getTypeForMSHEv @6171
    _ZNK10MTriangle613getTypeForUNVEv @6172
    _ZNK10MTriangle613getTypeForVTKEv @6173
    _ZNK10MTriangle614getNumVerticesEv @6174
    _ZNK10MTriangle615getEdgeVerticesEiRSt6vectorIP7MVertexSaIS2_EE @6175
    _ZNK10MTriangle615getFaceVerticesEiRSt6vectorIP7MVertexSaIS2_EE @6176
    _ZNK10MTriangle615getStringForBDFEv @6177
    _ZNK10MTriangle615getStringForINPEv @6178
    _ZNK10MTriangle615getStringForPOSEv @6179
    _ZNK10MTriangle616getStringForDIFFEv @6180
    _ZNK10MTriangle618getNumEdgeVerticesEv @6181
    _ZNK10MTriangle618getPolynomialOrderEv @6182
    _ZNK10MTriangle619getStringForTOCHNOGEv @6183
    _ZNK10MTriangle67getNodeEiRdS0_S0_ @6184
    _ZNK10MTriangle67xyz2uvwEPdS0_ @6185
    _ZNK10MTriangle69getVertexEi @6186
    _ZNK10MTriangleN13getTypeForMSHEv @6187
    _ZNK10MTriangleN13getTypeForVTKEv @6188
    _ZNK10MTriangleN14getNumVerticesEv @6189
    _ZNK10MTriangleN15getEdgeVerticesEiRSt6vectorIP7MVertexSaIS2_EE @6190
    _ZNK10MTriangleN15getFaceVerticesEiRSt6vectorIP7MVertexSaIS2_EE @6191
    _ZNK10MTriangleN18getNumEdgeVerticesEv @6192
    _ZNK10MTriangleN18getNumFaceVerticesEv @6193
    _ZNK10MTriangleN18getPolynomialOrderEv @6194
    _ZNK10MTriangleN7getNodeEiRdS0_S0_ @6195
    _ZNK10MTriangleN7xyz2uvwEPdS0_ @6196
    _ZNK10MTriangleN9getVertexEi @6197
    _ZNK10MTrihedron11getNumEdgesEv @6198
    _ZNK10MTrihedron13barycenterUVWEv @6199
    _ZNK10MTrihedron13getTypeForMSHEv @6200
    _ZNK10MTrihedron14getNumVerticesEv @6201
    _ZNK10MTrihedron15getEdgeVerticesEiRSt6vectorIP7MVertexSaIS2_EE @6202
    _ZNK10MTrihedron15getFaceVerticesEiRSt6vectorIP7MVertexSaIS2_EE @6203
    _ZNK10MTrihedron6getDimEv @6204
    _ZNK10MTrihedron7getEdgeEi @6205
    _ZNK10MTrihedron7getNodeEiRdS0_S0_ @6206
    _ZNK10MTrihedron7getTypeEv @6207
    _ZNK10MTrihedron8isInsideEddd @6208
    _ZNK10MTrihedron9getVertexEi @6209
    _ZNK10NameSpaces13getMember_DimERNSt7__cxx1112basic_stringIcSt11char_traitsIcESaIcEEES6_S6_Ri @6210
    _ZNK10NameSpaces16getMember_VectorERNSt7__cxx1112basic_stringIcSt11char_traitsIcESaIcEEES6_S6_RPKSt6vectorIS5_SaIS5_EE @6211
    _ZNK10NameSpaces16getMember_VectorERNSt7__cxx1112basic_stringIcSt11char_traitsIcESaIcEEES6_S6_RPKSt6vectorIdSaIdEE @6212
    _ZNK10NameSpaces23get_key_struct_from_tagERNSt7__cxx1112basic_stringIcSt11char_traitsIcESaIcEEEiRPKS5_ @6213
    _ZNK10NameSpaces6getTagERNSt7__cxx1112basic_stringIcSt11char_traitsIcESaIcEEES6_Rd @6214
    _ZNK10NameSpaces6sprintERSt6vectorINSt7__cxx1112basic_stringIcSt11char_traitsIcESaIcEEESaIS6_EE @6215
    _ZNK10NameSpaces9getMemberERNSt7__cxx1112basic_stringIcSt11char_traitsIcESaIcEEES6_S6_RPKS5_i @6216
    _ZNK10NameSpaces9getMemberERNSt7__cxx1112basic_stringIcSt11char_traitsIcESaIcEEES6_S6_Rdi @6217
    _ZNK10PETriangle19get_max_nb_verticesEv @6218
    _ZNK10fullMatrixISt7complexIdEE4multERK10fullVectorIS1_ERS4_ @6219
    _ZNK10fullMatrixISt7complexIdEE4multERKS2_RS2_ @6220
    _ZNK10fullMatrixISt7complexIdEE8multAddyERK10fullVectorIS1_ERS4_ @6221
    _ZNK10fullMatrixIdE11determinantEv @6222
    _ZNK10fullMatrixIdE11multOnBlockERKS0_iiiiR10fullVectorIdE @6223
    _ZNK10fullMatrixIdE18multWithATransposeERK10fullVectorIdEddRS2_ @6224
    _ZNK10fullMatrixIdE4multERK10fullVectorIdERS2_ @6225
    _ZNK10fullMatrixIdE4multERKS0_RS0_ @6226
    _ZNK10fullMatrixIdE5printENSt7__cxx1112basic_stringIcSt11char_traitsIcESaIcEEES6_ @6227
    _ZNK10fullMatrixIdE6invertERS0_ @6228
    _ZNK10fullMatrixIdE8multAddyERK10fullVectorIdERS2_ @6229
    _ZNK10fullMatrixIiE5printENSt7__cxx1112basic_stringIcSt11char_traitsIcESaIcEEES6_ @6230
    _ZNK10gmshRegion12getNativePtrEv @6231
    _ZNK10gmshRegion13getNativeTypeEv @6232
    _ZNK10gmshRegion8geomTypeEv @6233
    _ZNK10gmshSphere5pointEdd @6234
    _ZNK10gmshSphere6normalERK7SPoint2 @6235
    _ZNK10gmshSphere8geomTypeEv @6236
    _ZNK10gmshSphere9parBoundsEi @6237
    _ZNK10gmshVertex12getNativePtrEv @6238
    _ZNK10gmshVertex13getNativeTypeEv @6239
    _ZNK10gmshVertex13reparamOnFaceEPK5GFacei @6240
    _ZNK10gmshVertex1xEv @6241
    _ZNK10gmshVertex1yEv @6242
    _ZNK10gmshVertex1zEv @6243
    _ZNK10gmshVertex5pointEv @6244
    _ZNK10gmshVertex8geomTypeEv @6245
    _ZNK10meshMetric9isotropicEv @6246
    _ZNK10nodalBasis10getClosureEi @6247
    _ZNK10nodalBasis14getClosureTypeEi @6248
    _ZNK10nodalBasis14getFullClosureEi @6249
    _ZNK10nodalBasis26getReferenceNodesForBezierER10fullMatrixIdE @6250
    _ZNK10nodalBasis3ddfEdddPA3_A3_d @6251
    _ZNK10nodalBasis4dddfEdddPA3_A3_A3_d @6252
    _ZNK11BergotBasis1fEdddPd @6253
    _ZNK11BergotBasis2dfEdddPA3_d @6254
    _ZNK11BergotBasis7validIJEii @6255
    _ZNK11FieldOption10listdoubleB5cxx11Ev @6256
    _ZNK11FieldOption14numericalValueEv @6257
    _ZNK11FieldOption4listB5cxx11Ev @6258
    _ZNK11FieldOption6stringB5cxx11Ev @6259
    _ZNK11GEdgeSigned5printEv @6260
    _ZNK11GenericEdge10degenerateEi @6261
    _ZNK11GenericEdge12closestPointERK7SPoint3Rd @6262
    _ZNK11GenericEdge12getNativeIntEv @6263
    _ZNK11GenericEdge13getNativeTypeEv @6264
    _ZNK11GenericEdge13reparamOnFaceEPK5GFacedi @6265
    _ZNK11GenericEdge19minimumDrawSegmentsEv @6266
    _ZNK11GenericEdge4is3DEv @6267
    _ZNK11GenericEdge5pointEd @6268
    _ZNK11GenericEdge6isSeamEPK5GFace @6269
    _ZNK11GenericEdge8firstDerEd @6270
    _ZNK11GenericEdge8geomTypeEv @6271
    _ZNK11GenericEdge9curvatureEd @6272
    _ZNK11GenericEdge9parBoundsEi @6273
    _ZNK11GenericFace10curvaturesERK7SPoint2P8SVector3S4_PdS5_ @6274
    _ZNK11GenericFace12closestPointERK7SPoint3PKd @6275
    _ZNK11GenericFace12curvatureMaxERK7SPoint2 @6276
    _ZNK11GenericFace12getNativeIntEv @6277
    _ZNK11GenericFace12parFromPointERK7SPoint3b @6278
    _ZNK11GenericFace13containsPointERK7SPoint3 @6279
    _ZNK11GenericFace13getNativeTypeEv @6280
    _ZNK11GenericFace5pointEdd @6281
    _ZNK11GenericFace6normalERK7SPoint2 @6282
    _ZNK11GenericFace6periodEi @6283
    _ZNK11GenericFace8firstDerERK7SPoint2 @6284
    _ZNK11GenericFace8geomTypeEv @6285
    _ZNK11GenericFace8periodicEi @6286
    _ZNK11GenericFace9parBoundsEi @6287
    _ZNK11GenericFace9secondDerERK7SPoint2P8SVector3S4_S4_ @6288
    _ZNK11MEdgeVertex12getParameterEiRd @6289
    _ZNK11MFaceVertex12getParameterEiRd @6290
    _ZNK11MHexahedron11getFaceInfoERK5MFaceRiS3_S3_ @6291
    _ZNK11MHexahedron11getNumEdgesEv @6292
    _ZNK11MHexahedron13barycenterUVWEv @6293
    _ZNK11MHexahedron13getTypeForMSHEv @6294
    _ZNK11MHexahedron13getTypeForUNVEv @6295
    _ZNK11MHexahedron13getTypeForVTKEv @6296
    _ZNK11MHexahedron14getNumVerticesEv @6297
    _ZNK11MHexahedron15getEdgeVerticesEiRSt6vectorIP7MVertexSaIS2_EE @6298
    _ZNK11MHexahedron15getFaceVerticesEiRSt6vectorIP7MVertexSaIS2_EE @6299
    _ZNK11MHexahedron15getStringForBDFEv @6300
    _ZNK11MHexahedron15getStringForINPEv @6301
    _ZNK11MHexahedron15getStringForPOSEv @6302
    _ZNK11MHexahedron16getStringForDIFFEv @6303
    _ZNK11MHexahedron19getStringForTOCHNOGEv @6304
    _ZNK11MHexahedron6getDimEv @6305
    _ZNK11MHexahedron7getEdgeEi @6306
    _ZNK11MHexahedron7getNodeEiRdS0_S0_ @6307
    _ZNK11MHexahedron7getTypeEv @6308
    _ZNK11MHexahedron8isInsideEddd @6309
    _ZNK11MHexahedron9getVertexEi @6310
    _ZNK11MLineBorder13getTypeForMSHEv @6311
    _ZNK11MLineBorder8isInsideEddd @6312
    _ZNK11MLineBorder9getDomainEi @6313
    _ZNK11MLineBorder9getParentEv @6314
    _ZNK11MPolyhedron10ownsParentEv @6315
    _ZNK11MPolyhedron11getNumEdgesEv @6316
    _ZNK11MPolyhedron13getTypeForMSHEv @6317
    _ZNK11MPolyhedron14getNumChildrenEv @6318
    _ZNK11MPolyhedron14getNumVerticesEv @6319
    _ZNK11MPolyhedron15getEdgeVerticesEiRSt6vectorIP7MVertexSaIS2_EE @6320
    _ZNK11MPolyhedron15getFaceVerticesEiRSt6vectorIP7MVertexSaIS2_EE @6321
    _ZNK11MPolyhedron16getFunctionSpaceEib @6322
    _ZNK11MPolyhedron17getShapeFunctionsEdddPdi @6323
    _ZNK11MPolyhedron20getJacobianFuncSpaceEi @6324
    _ZNK11MPolyhedron20getNumShapeFunctionsEv @6325
    _ZNK11MPolyhedron20getNumVolumeVerticesEv @6326
    _ZNK11MPolyhedron20getShapeFunctionNodeEi @6327
    _ZNK11MPolyhedron21getGradShapeFunctionsEdddPA3_di @6328
    _ZNK11MPolyhedron21getHessShapeFunctionsEdddPA3_A3_di @6329
    _ZNK11MPolyhedron27getNumPrimaryShapeFunctionsEv @6330
    _ZNK11MPolyhedron6getDimEv @6331
    _ZNK11MPolyhedron7getEdgeEi @6332
    _ZNK11MPolyhedron7getTypeEv @6333
    _ZNK11MPolyhedron8getChildEi @6334
    _ZNK11MPolyhedron8isInsideEddd @6335
    _ZNK11MPolyhedron9getParentEv @6336
    _ZNK11MPolyhedron9getVertexEi @6337
    _ZNK11MQuadrangle11getEdgeInfoERK5MEdgeRiS3_ @6338
    _ZNK11MQuadrangle11getNumEdgesEv @6339
    _ZNK11MQuadrangle13barycenterUVWEv @6340
    _ZNK11MQuadrangle13getTypeForMSHEv @6341
    _ZNK11MQuadrangle13getTypeForUNVEv @6342
    _ZNK11MQuadrangle13getTypeForVTKEv @6343
    _ZNK11MQuadrangle14getNumVerticesEv @6344
    _ZNK11MQuadrangle15getEdgeVerticesEiRSt6vectorIP7MVertexSaIS2_EE @6345
    _ZNK11MQuadrangle15getFaceVerticesEiRSt6vectorIP7MVertexSaIS2_EE @6346
    _ZNK11MQuadrangle15getStringForBDFEv @6347
    _ZNK11MQuadrangle15getStringForINPEv @6348
    _ZNK11MQuadrangle15getStringForPOSEv @6349
    _ZNK11MQuadrangle16getStringForDIFFEv @6350
    _ZNK11MQuadrangle19getStringForTOCHNOGEv @6351
    _ZNK11MQuadrangle6getDimEv @6352
    _ZNK11MQuadrangle7getEdgeEi @6353
    _ZNK11MQuadrangle7getNodeEiRdS0_S0_ @6354
    _ZNK11MQuadrangle7getTypeEv @6355
    _ZNK11MQuadrangle8isInsideEddd @6356
    _ZNK11MQuadrangle9getVertexEi @6357
    _ZNK11bezierBasis11interpolateERK10fullMatrixIdES3_RS1_b @6358
    _ZNK11bezierBasis17subdivideBezCoeffERK10fullMatrixIdERS1_ @6359
    _ZNK11bezierBasis17subdivideBezCoeffERK10fullVectorIdERS1_ @6360
    _ZNK11bezierBasis19_FEpoints2BezPointsER10fullMatrixIdE @6361
    _ZNK11bezierBasis20generateBezierPointsER10fullMatrixIdE @6362
    _ZNK11bezierBasis7lag2BezERK10fullMatrixIdERS1_ @6363
    _ZNK11bezierBasis9getRaiserEv @6364
    _ZNK11gmshSurface5pointERK7SPoint2 @6365
    _ZNK11gmshSurface6normalERK7SPoint2 @6366
    _ZNK12CombinedCell11getNumCellsEv @6367
    _ZNK12CombinedCell6getDimEv @6368
    _ZNK12CombinedCell9hasVertexEi @6369
    _ZNK12CondNumBasis20getInvCondNumGeneralEiRK10fullMatrixIdES3_S3_S3_R10fullVectorIdE @6370
    _ZNK12CondNumBasis26getSignedInvCondNumGeneralEiRK10fullMatrixIdES3_S3_S3_S3_R10fullVectorIdE @6371
    _ZNK12CondNumBasis32getInvCondNumAndGradientsGeneralEiRK10fullMatrixIdES3_S3_S3_RS1_ @6372
    _ZNK12CondNumBasis32getInvCondNumAndGradientsGeneralILb0EEEviRK10fullMatrixIdES4_S4_S4_S4_RS2_ @6373
    _ZNK12CondNumBasis32getInvCondNumAndGradientsGeneralILb1EEEviRK10fullMatrixIdES4_S4_S4_S4_RS2_ @6374
    _ZNK12CondNumBasis38getSignedInvCondNumAndGradientsGeneralEiRK10fullMatrixIdES3_S3_S3_S3_RS1_ @6375
    _ZNK12GeomLessThanclEPK14BDS_GeomEntityS2_ @6376
    _ZNK12MHexahedronN13getTypeForMSHEv @6377
    _ZNK12MHexahedronN14getNumVerticesEv @6378
    _ZNK12MHexahedronN15getEdgeVerticesEiRSt6vectorIP7MVertexSaIS2_EE @6379
    _ZNK12MHexahedronN15getFaceVerticesEiRSt6vectorIP7MVertexSaIS2_EE @6380
    _ZNK12MHexahedronN18getNumEdgeVerticesEv @6381
    _ZNK12MHexahedronN18getNumFaceVerticesEv @6382
    _ZNK12MHexahedronN18getPolynomialOrderEv @6383
    _ZNK12MHexahedronN20getNumVolumeVerticesEv @6384
    _ZNK12MHexahedronN7getNodeEiRdS0_S0_ @6385
    _ZNK12MHexahedronN9getVertexEi @6386
    _ZNK12MQuadrangle813barycenterUVWEv @6387
    _ZNK12MQuadrangle813getTypeForMSHEv @6388
    _ZNK12MQuadrangle813getTypeForUNVEv @6389
    _ZNK12MQuadrangle813getTypeForVTKEv @6390
    _ZNK12MQuadrangle814getNumVerticesEv @6391
    _ZNK12MQuadrangle815getEdgeVerticesEiRSt6vectorIP7MVertexSaIS2_EE @6392
    _ZNK12MQuadrangle815getFaceVerticesEiRSt6vectorIP7MVertexSaIS2_EE @6393
    _ZNK12MQuadrangle815getStringForBDFEv @6394
    _ZNK12MQuadrangle815getStringForINPEv @6395
    _ZNK12MQuadrangle816getStringForDIFFEv @6396
    _ZNK12MQuadrangle818getNumEdgeVerticesEv @6397
    _ZNK12MQuadrangle818getPolynomialOrderEv @6398
    _ZNK12MQuadrangle87getNodeEiRdS0_S0_ @6399
    _ZNK12MQuadrangle89getVertexEi @6400
    _ZNK12MQuadrangle913barycenterUVWEv @6401
    _ZNK12MQuadrangle913getTypeForMSHEv @6402
    _ZNK12MQuadrangle913getTypeForVTKEv @6403
    _ZNK12MQuadrangle914getNumVerticesEv @6404
    _ZNK12MQuadrangle915getEdgeVerticesEiRSt6vectorIP7MVertexSaIS2_EE @6405
    _ZNK12MQuadrangle915getFaceVerticesEiRSt6vectorIP7MVertexSaIS2_EE @6406
    _ZNK12MQuadrangle915getStringForBDFEv @6407
    _ZNK12MQuadrangle915getStringForPOSEv @6408
    _ZNK12MQuadrangle916getStringForDIFFEv @6409
    _ZNK12MQuadrangle918getNumEdgeVerticesEv @6410
    _ZNK12MQuadrangle918getNumFaceVerticesEv @6411
    _ZNK12MQuadrangle918getPolynomialOrderEv @6412
    _ZNK12MQuadrangle919getStringForTOCHNOGEv @6413
    _ZNK12MQuadrangle97getNodeEiRdS0_S0_ @6414
    _ZNK12MQuadrangle99getVertexEi @6415
    _ZNK12MQuadrangleN13barycenterUVWEv @6416
    _ZNK12MQuadrangleN13getTypeForMSHEv @6417
    _ZNK12MQuadrangleN13getTypeForVTKEv @6418
    _ZNK12MQuadrangleN14getNumVerticesEv @6419
    _ZNK12MQuadrangleN15getEdgeVerticesEiRSt6vectorIP7MVertexSaIS2_EE @6420
    _ZNK12MQuadrangleN15getFaceVerticesEiRSt6vectorIP7MVertexSaIS2_EE @6421
    _ZNK12MQuadrangleN15getStringForPOSEv @6422
    _ZNK12MQuadrangleN18getNumEdgeVerticesEv @6423
    _ZNK12MQuadrangleN18getNumFaceVerticesEv @6424
    _ZNK12MQuadrangleN18getPolynomialOrderEv @6425
    _ZNK12MQuadrangleN7getNodeEiRdS0_S0_ @6426
    _ZNK12MQuadrangleN9getVertexEi @6427
    _ZNK12MSubTriangle10ownsParentEv @6428
    _ZNK12MSubTriangle11getJacobianERK10fullMatrixIdEPA3_d @6429
    _ZNK12MSubTriangle11getJacobianERKSt6vectorI8SVector3SaIS1_EEPA3_d @6430
    _ZNK12MSubTriangle11getJacobianEdddPA3_d @6431
    _ZNK12MSubTriangle13getTypeForMSHEv @6432
    _ZNK12MSubTriangle14getBaseElementEv @6433
    _ZNK12MSubTriangle15getMultiParentsEv @6434
    _ZNK12MSubTriangle16getFunctionSpaceEib @6435
    _ZNK12MSubTriangle17getShapeFunctionsEdddPdi @6436
    _ZNK12MSubTriangle18getPrimaryJacobianEdddPA3_d @6437
    _ZNK12MSubTriangle20getJacobianFuncSpaceEi @6438
    _ZNK12MSubTriangle20getNumShapeFunctionsEv @6439
    _ZNK12MSubTriangle20getShapeFunctionNodeEi @6440
    _ZNK12MSubTriangle21getGradShapeFunctionsEdddPA3_di @6441
    _ZNK12MSubTriangle21getHessShapeFunctionsEdddPA3_A3_di @6442
    _ZNK12MSubTriangle27getNumPrimaryShapeFunctionsEv @6443
    _ZNK12MSubTriangle32getThirdDerivativeShapeFunctionsEdddPA3_A3_A3_di @6444
    _ZNK12MSubTriangle38movePointFromElementSpaceToParentSpaceERdS0_S0_ @6445
    _ZNK12MSubTriangle38movePointFromParentSpaceToElementSpaceERdS0_S0_ @6446
    _ZNK12MSubTriangle7xyz2uvwEPdS0_ @6447
    _ZNK12MSubTriangle8isInsideEddd @6448
    _ZNK12MSubTriangle9getParentEv @6449
    _ZNK12MTetrahedron11getFaceInfoERK5MFaceRiS3_S3_ @6450
    _ZNK12MTetrahedron11getNumEdgesEv @6451
    _ZNK12MTetrahedron13barycenterUVWEv @6452
    _ZNK12MTetrahedron13getTypeForMSHEv @6453
    _ZNK12MTetrahedron13getTypeForUNVEv @6454
    _ZNK12MTetrahedron13getTypeForVTKEv @6455
    _ZNK12MTetrahedron14getNumVerticesEv @6456
    _ZNK12MTetrahedron15getEdgeVerticesEiRSt6vectorIP7MVertexSaIS2_EE @6457
    _ZNK12MTetrahedron15getFaceVerticesEiRSt6vectorIP7MVertexSaIS2_EE @6458
    _ZNK12MTetrahedron15getStringForBDFEv @6459
    _ZNK12MTetrahedron15getStringForINPEv @6460
    _ZNK12MTetrahedron15getStringForPOSEv @6461
    _ZNK12MTetrahedron16getStringForDIFFEv @6462
    _ZNK12MTetrahedron19getStringForTOCHNOGEv @6463
    _ZNK12MTetrahedron6getDimEv @6464
    _ZNK12MTetrahedron7getEdgeEi @6465
    _ZNK12MTetrahedron7getNodeEiRdS0_S0_ @6466
    _ZNK12MTetrahedron7getTypeEv @6467
    _ZNK12MTetrahedron7xyz2uvwEPdS0_ @6468
    _ZNK12MTetrahedron8isInsideEddd @6469
    _ZNK12MTetrahedron9getVertexEi @6470
    _ZNK12PEQuadrangle19get_max_nb_verticesEv @6471
    _ZNK12Recombinator17are_all_tets_freeERKSt3setIP8MElementSt4lessIS2_ESaIS2_EE @6472
    _ZNK12Recombinator23print_all_potential_hexEv @6473
    _ZNK12Recombinator28delete_marked_tets_in_regionEv @6474
    _ZNK12Recombinator33delete_quad_triangles_in_boundaryEv @6475
    _ZNK12discreteEdge10curvaturesEdP8SVector3S1_PdS2_ @6476
    _ZNK12discreteEdge14computeNormalsEv @6477
    _ZNK12discreteEdge17getLocalParameterERKdRiRd @6478
    _ZNK12discreteEdge19minimumDrawSegmentsEv @6479
    _ZNK12discreteEdge21interpolateInGeometryEP7MVertexPS1_S2_Rd @6480
    _ZNK12discreteEdge5pointEd @6481
    _ZNK12discreteEdge8firstDerEd @6482
    _ZNK12discreteEdge8geomTypeEv @6483
    _ZNK12discreteEdge9curvatureEd @6484
    _ZNK12discreteEdge9parBoundsEi @6485
    _ZNK12discreteFace10curvaturesERK7SPoint2P8SVector3S4_PdS5_ @6486
    _ZNK12discreteFace12curvatureMaxERK7SPoint2 @6487
    _ZNK12discreteFace12parFromPointERK7SPoint3b @6488
    _ZNK12discreteFace5pointEdd @6489
    _ZNK12discreteFace6normalERK7SPoint2 @6490
    _ZNK12discreteFace8firstDerERK7SPoint2 @6491
    _ZNK12discreteFace8geomTypeEv @6492
    _ZNK12discreteFace9secondDerERK7SPoint2P8SVector3S4_S4_ @6493
    _ZNK12gLevelsetBox4typeEv @6494
    _ZNK12gLevelsetBox5cloneEv @6495
    _ZNK12gLevelsetCut5cloneEv @6496
    _ZNK12gLevelsetCut5type2Ev @6497
    _ZNK12gLevelsetCut6chooseEdd @6498
    _ZNK13EdgeToRecoverltERKS_ @6499
    _ZNK13FuncSpaceData17getOrderForBezierEPii @6500
    _ZNK13FuncSpaceData20getForPrimaryElementEv @6501
    _ZNK13FuncSpaceData25getForNonSerendipitySpaceEv @6502
    _ZNK13GEO_Internals10getChangedEv @6503
    _ZNK13GEO_Internals17getMaxPhysicalTagEv @6504
    _ZNK13GEO_Internals9getMaxTagEi @6505
    _ZNK13GEdgeCompound10curvaturesEdP8SVector3S1_PdS2_ @6506
    _ZNK13GEdgeCompound12getNativePtrEv @6507
    _ZNK13GEdgeCompound13getNativeTypeEv @6508
    _ZNK13GEdgeCompound17getLocalParameterERKdRiRd @6509
    _ZNK13GEdgeCompound19minimumDrawSegmentsEv @6510
    _ZNK13GEdgeCompound19minimumMeshSegmentsEv @6511
    _ZNK13GEdgeCompound5pointEd @6512
    _ZNK13GEdgeCompound8firstDerEd @6513
    _ZNK13GEdgeCompound8geomTypeEv @6514
    _ZNK13GEdgeCompound9curvatureEd @6515
    _ZNK13GEdgeCompound9parBoundsEi @6516
    _ZNK13GFaceCompound12getCompoundsB5cxx11Ev @6517
    _ZNK13GFaceCompound14getCoordinatesEP7MVertex @6518
    _ZNK13GFaceCompound5pointEdd @6519
    _ZNK13GFaceCompound8firstDerERK7SPoint2 @6520
    _ZNK13GFaceCompound9secondDerERK7SPoint2P8SVector3S4_S4_ @6521
    _ZNK13GenericRegion12getNativeIntEv @6522
    _ZNK13GenericRegion13getNativeTypeEv @6523
    _ZNK13GenericRegion8geomTypeEv @6524
    _ZNK13GenericVertex12getNativeIntEv @6525
    _ZNK13GenericVertex13getNativeTypeEv @6526
    _ZNK13GenericVertex13reparamOnFaceEPK5GFacei @6527
    _ZNK13GenericVertex1xEv @6528
    _ZNK13GenericVertex1yEv @6529
    _ZNK13GenericVertex1zEv @6530
    _ZNK13GenericVertex26prescribedMeshSizeAtVertexEv @6531
    _ZNK13GenericVertex5pointEv @6532
    _ZNK13GradientBasis21getGradientsFromNodesERK10fullMatrixIdEPS1_S4_S4_ @6533
    _ZNK13GradientBasis24getAllGradientsFromNodesERK10fullMatrixIdERS1_ @6534
    _ZNK13GradientBasis26getIdealGradientsFromNodesERK10fullMatrixIdEPS1_S4_S4_ @6535
    _ZNK13GradientBasis29getAllIdealGradientsFromNodesERK10fullMatrixIdERS1_ @6536
    _ZNK13GradientBasis7lag2BezERK10fullMatrixIdERS1_ @6537
    _ZNK13GradientBasis9getBezierEv @6538
    _ZNK13JacobianBasis11interpolateERK10fullVectorIdERK10fullMatrixIdERS5_b @6539
    _ZNK13JacobianBasis12getPrimJac3DERK10fullMatrixIdEb @6540
    _ZNK13JacobianBasis15getPrimNormal2DERK10fullMatrixIdERS1_b @6541
    _ZNK13JacobianBasis16getPrimNormals1DERK10fullMatrixIdERS1_ @6542
    _ZNK13JacobianBasis18getJacobianGeneralEiRK10fullMatrixIdES3_S3_S3_S3_S3_bbRS1_PS2_ @6543
    _ZNK13JacobianBasis18getJacobianGeneralEiRK10fullMatrixIdES3_S3_S3_bbR10fullVectorIdEPS2_ @6544
    _ZNK13JacobianBasis24getMetricMinAndGradientsERK10fullMatrixIdES3_R10fullVectorIdERS1_ @6545
    _ZNK13JacobianBasis31getSignedJacAndGradientsGeneralEiRK10fullMatrixIdES3_S3_S3_S3_RS1_ @6546
    _ZNK13JacobianBasis36getSignedIdealJacAndGradientsGeneralEiRK10fullMatrixIdES3_S3_S3_S3_RS1_ @6547
    _ZNK13JacobianBasis7lag2BezERK10fullMatrixIdERS1_ @6548
    _ZNK13JacobianBasis7lag2BezERK10fullVectorIdERS1_ @6549
    _ZNK13JacobianBasis9getBezierEv @6550
    _ZNK13MHexahedron2013getTypeForMSHEv @6551
    _ZNK13MHexahedron2013getTypeForUNVEv @6552
    _ZNK13MHexahedron2013getTypeForVTKEv @6553
    _ZNK13MHexahedron2014getNumVerticesEv @6554
    _ZNK13MHexahedron2015getEdgeVerticesEiRSt6vectorIP7MVertexSaIS2_EE @6555
    _ZNK13MHexahedron2015getFaceVerticesEiRSt6vectorIP7MVertexSaIS2_EE @6556
    _ZNK13MHexahedron2015getStringForBDFEv @6557
    _ZNK13MHexahedron2015getStringForINPEv @6558
    _ZNK13MHexahedron2016getStringForDIFFEv @6559
    _ZNK13MHexahedron2018getNumEdgeVerticesEv @6560
    _ZNK13MHexahedron2018getPolynomialOrderEv @6561
    _ZNK13MHexahedron207getNodeEiRdS0_S0_ @6562
    _ZNK13MHexahedron209getVertexEi @6563
    _ZNK13MHexahedron2713getTypeForMSHEv @6564
    _ZNK13MHexahedron2713getTypeForVTKEv @6565
    _ZNK13MHexahedron2714getNumVerticesEv @6566
    _ZNK13MHexahedron2715getEdgeVerticesEiRSt6vectorIP7MVertexSaIS2_EE @6567
    _ZNK13MHexahedron2715getFaceVerticesEiRSt6vectorIP7MVertexSaIS2_EE @6568
    _ZNK13MHexahedron2715getStringForINPEv @6569
    _ZNK13MHexahedron2715getStringForPOSEv @6570
    _ZNK13MHexahedron2716getStringForDIFFEv @6571
    _ZNK13MHexahedron2718getNumEdgeVerticesEv @6572
    _ZNK13MHexahedron2718getNumFaceVerticesEv @6573
    _ZNK13MHexahedron2718getPolynomialOrderEv @6574
    _ZNK13MHexahedron2719getStringForTOCHNOGEv @6575
    _ZNK13MHexahedron2720getNumVolumeVerticesEv @6576
    _ZNK13MHexahedron277getNodeEiRdS0_S0_ @6577
    _ZNK13MHexahedron279getVertexEi @6578
    _ZNK13MTetrahedronN13getTypeForMSHEv @6579
    _ZNK13MTetrahedronN14getNumVerticesEv @6580
    _ZNK13MTetrahedronN15getEdgeVerticesEiRSt6vectorIP7MVertexSaIS2_EE @6581
    _ZNK13MTetrahedronN15getFaceVerticesEiRSt6vectorIP7MVertexSaIS2_EE @6582
    _ZNK13MTetrahedronN18getNumEdgeVerticesEv @6583
    _ZNK13MTetrahedronN18getNumFaceVerticesEv @6584
    _ZNK13MTetrahedronN18getPolynomialOrderEv @6585
    _ZNK13MTetrahedronN20getNumVolumeVerticesEv @6586
    _ZNK13MTetrahedronN7getNodeEiRdS0_S0_ @6587
    _ZNK13MTetrahedronN7xyz2uvwEPdS0_ @6588
    _ZNK13MTetrahedronN9getVertexEi @6589
    _ZNK13MinAnisoField9isotropicEv @6590
    _ZNK13OCC_Internals10getChangedEv @6591
    _ZNK13OCC_Internals9getMaxTagEi @6592
    _ZNK13PointLessThanclEPK9BDS_PointS2_ @6593
    _ZNK13PostViewField9isotropicEv @6594
    _ZNK13gLevelsetCone4typeEv @6595
    _ZNK13gLevelsetCone5cloneEv @6596
    _ZNK13gLevelsetYarn4typeEv @6597
    _ZNK13gLevelsetYarnclEddd @6598
    _ZNK14BDS_GeomEntityltERKS_ @6599
    _ZNK14FieldOptionInt14numericalValueEv @6600
    _ZNK14LinearSeamEdge10degenerateEi @6601
    _ZNK14LinearSeamEdge12closestPointERK7SPoint3Rd @6602
    _ZNK14LinearSeamEdge13getNativeTypeEv @6603
    _ZNK14LinearSeamEdge4is3DEv @6604
    _ZNK14LinearSeamEdge5pointEd @6605
    _ZNK14LinearSeamEdge6isSeamEPK5GFace @6606
    _ZNK14LinearSeamEdge8firstDerEd @6607
    _ZNK14LinearSeamEdge8geomTypeEv @6608
    _ZNK14LinearSeamEdge9curvatureEd @6609
    _ZNK14LinearSeamEdge9parBoundsEi @6610
    _ZNK14MElementOctree4findEdddib @6611
    _ZNK14MPolygonBorder13getTypeForMSHEv @6612
    _ZNK14MPolygonBorder9getDomainEi @6613
    _ZNK14MPolygonBorder9getParentEv @6614
    _ZNK14MTetrahedron1013getTypeForMSHEv @6615
    _ZNK14MTetrahedron1013getTypeForUNVEv @6616
    _ZNK14MTetrahedron1013getTypeForVTKEv @6617
    _ZNK14MTetrahedron1014getNumVerticesEv @6618
    _ZNK14MTetrahedron1015getEdgeVerticesEiRSt6vectorIP7MVertexSaIS2_EE @6619
    _ZNK14MTetrahedron1015getFaceVerticesEiRSt6vectorIP7MVertexSaIS2_EE @6620
    _ZNK14MTetrahedron1015getStringForBDFEv @6621
    _ZNK14MTetrahedron1015getStringForINPEv @6622
    _ZNK14MTetrahedron1015getStringForPOSEv @6623
    _ZNK14MTetrahedron1016getStringForDIFFEv @6624
    _ZNK14MTetrahedron1018getNumEdgeVerticesEv @6625
    _ZNK14MTetrahedron1018getPolynomialOrderEv @6626
    _ZNK14MTetrahedron1019getStringForTOCHNOGEv @6627
    _ZNK14MTetrahedron107getNodeEiRdS0_S0_ @6628
    _ZNK14MTetrahedron107xyz2uvwEPdS0_ @6629
    _ZNK14MTetrahedron109getVertexEi @6630
    _ZNK14PViewEvaluatorclEddd @6631
    _ZNK14SBoundingBox3d3maxEv @6632
    _ZNK14SBoundingBox3d3minEv @6633
    _ZNK14backgroundMesh8getAngleEddd @6634
    _ZNK14backgroundMesh8inDomainEddd @6635
    _ZNK14backgroundMeshclEddd @6636
    _ZNK14discreteRegion8geomTypeEv @6637
    _ZNK14discreteVertex1xEv @6638
    _ZNK14discreteVertex1yEv @6639
    _ZNK14discreteVertex1zEv @6640
    _ZNK14discreteVertex5pointEv @6641
    _ZNK14gLevelsetCrack5type2Ev @6642
    _ZNK14gLevelsetCrack6chooseEdd @6643
    _ZNK14gLevelsetPlane4typeEv @6644
    _ZNK14gLevelsetPlane5cloneEv @6645
    _ZNK14gLevelsetPlaneclEddd @6646
    _ZNK14gLevelsetTools11getChildrenEv @6647
    _ZNK14gLevelsetTools11isPrimitiveEv @6648
    _ZNK14gLevelsetTools4typeEv @6649
    _ZNK14gLevelsetTools6getTagEv @6650
    _ZNK14gLevelsetToolsclEddd @6651
    _ZNK14gLevelsetUnion5cloneEv @6652
    _ZNK14gLevelsetUnion5type2Ev @6653
    _ZNK14gLevelsetUnion6chooseEdd @6654
    _ZNK14pyramidalBasis1fERK10fullMatrixIdERS1_ @6655
    _ZNK14pyramidalBasis1fEdddPd @6656
    _ZNK14pyramidalBasis20getNumShapeFunctionsEv @6657
    _ZNK14pyramidalBasis2dfERK10fullMatrixIdERS1_ @6658
    _ZNK14pyramidalBasis2dfEdddPA3_d @6659
    _ZNK14simpleFunctionIdE10setElementEP8MElement @6660
    _ZNK14simpleFunctionIdE7hessianEdddRdS1_S1_S1_S1_S1_S1_S1_S1_ @6661
    _ZNK14simpleFunctionIdE8gradientEdddRdS1_S1_ @6662
    _ZNK14simpleFunctionIdEclEddd @6663
    _ZNK15FieldOptionBool14numericalValueEv @6664
    _ZNK15FieldOptionList4listB5cxx11Ev @6665
    _ZNK15FunctionManager13enterFunctionERKNSt7__cxx1112basic_stringIcSt11char_traitsIcESaIcEEEPP6_iobufRS5_Ri @6666
    _ZNK15GMSH_PostPlugin24assignSpecificVisibilityEv @6667
    _ZNK15GRegionCompound12getNativePtrEv @6668
    _ZNK15GRegionCompound13getNativeTypeEv @6669
    _ZNK15GRegionCompound5pointEd @6670
    _ZNK15GRegionCompound6boundsEv @6671
    _ZNK15GRegionCompound8firstDerEd @6672
    _ZNK15GRegionCompound8geomTypeEv @6673
    _ZNK15GRegionCompound9curvatureEd @6674
    _ZNK15MSubTetrahedron10ownsParentEv @6675
    _ZNK15MSubTetrahedron11getJacobianERK10fullMatrixIdEPA3_d @6676
    _ZNK15MSubTetrahedron11getJacobianERKSt6vectorI8SVector3SaIS1_EEPA3_d @6677
    _ZNK15MSubTetrahedron11getJacobianEdddPA3_d @6678
    _ZNK15MSubTetrahedron13getTypeForMSHEv @6679
    _ZNK15MSubTetrahedron14getBaseElementEv @6680
    _ZNK15MSubTetrahedron15getMultiParentsEv @6681
    _ZNK15MSubTetrahedron16getFunctionSpaceEib @6682
    _ZNK15MSubTetrahedron17getShapeFunctionsEdddPdi @6683
    _ZNK15MSubTetrahedron18getPrimaryJacobianEdddPA3_d @6684
    _ZNK15MSubTetrahedron20getJacobianFuncSpaceEi @6685
    _ZNK15MSubTetrahedron20getNumShapeFunctionsEv @6686
    _ZNK15MSubTetrahedron20getShapeFunctionNodeEi @6687
    _ZNK15MSubTetrahedron21getGradShapeFunctionsEdddPA3_di @6688
    _ZNK15MSubTetrahedron21getHessShapeFunctionsEdddPA3_A3_di @6689
    _ZNK15MSubTetrahedron27getNumPrimaryShapeFunctionsEv @6690
    _ZNK15MSubTetrahedron32getThirdDerivativeShapeFunctionsEdddPA3_A3_A3_di @6691
    _ZNK15MSubTetrahedron38movePointFromElementSpaceToParentSpaceERdS0_S0_ @6692
    _ZNK15MSubTetrahedron38movePointFromParentSpaceToElementSpaceERdS0_S0_ @6693
    _ZNK15MSubTetrahedron7xyz2uvwEPdS0_ @6694
    _ZNK15MSubTetrahedron8isInsideEddd @6695
    _ZNK15MSubTetrahedron9getParentEv @6696
    _ZNK15MTriangleBorder13getTypeForMSHEv @6697
    _ZNK15MTriangleBorder8isInsideEddd @6698
    _ZNK15MTriangleBorder9getDomainEi @6699
    _ZNK15MTriangleBorder9getParentEv @6700
    _ZNK15gLevelsetConrod4typeEv @6701
    _ZNK15gLevelsetConrod5cloneEv @6702
    _ZNK15gLevelsetNACA0018getClosestBndPointEdddRdS0_S0_Rb @6703
    _ZNK15gLevelsetNACA004typeEv @6704
    _ZNK15gLevelsetNACA007hessianEdddRdS0_S0_S0_S0_S0_S0_S0_S0_ @6705
    _ZNK15gLevelsetNACA008gradientEdddRdS0_S0_ @6706
    _ZNK15gLevelsetNACA00clEddd @6707
    _ZNK15gLevelsetPoints10evalRbfDerEiiRK10fullMatrixIdES3_S3_RS1_b @6708
    _ZNK15gLevelsetPoints14generateRbfMatEiiRK10fullMatrixIdES3_ @6709
    _ZNK15gLevelsetPoints4typeEv @6710
    _ZNK15gLevelsetPoints5RbfOpEiiRK10fullMatrixIdES3_RS1_b @6711
    _ZNK15gLevelsetPoints5cloneEv @6712
    _ZNK15gLevelsetPointsclEddd @6713
    _ZNK15gLevelsetSphere4typeEv @6714
    _ZNK15gLevelsetSphere7hessianEdddRdS0_S0_S0_S0_S0_S0_S0_S0_ @6715
    _ZNK15gLevelsetSphere8gradientEdddRdS0_S0_ @6716
    _ZNK15gLevelsetSphereclEddd @6717
    _ZNK15gmshPolarSphere5pointEdd @6718
    _ZNK15gmshPolarSphere6normalERK7SPoint2 @6719
    _ZNK15gmshPolarSphere8geomTypeEv @6720
    _ZNK15gmshPolarSphere9parBoundsEi @6721
    _ZNK15polynomialBasis17evaluateMonomialsEdddPd @6722
    _ZNK15polynomialBasis1fERK10fullMatrixIdERS1_ @6723
    _ZNK15polynomialBasis1fEdddPd @6724
    _ZNK15polynomialBasis20getNumShapeFunctionsEv @6725
    _ZNK15polynomialBasis2dfERK10fullMatrixIdERS1_ @6726
    _ZNK15polynomialBasis2dfEdddPA3_d @6727
    _ZNK15polynomialBasis3ddfEdddPA3_A3_d @6728
    _ZNK15polynomialBasis4dddfEdddPA3_A3_A3_d @6729
    _ZNK16backgroundMesh2D10getElementEj @6730
    _ZNK16backgroundMesh2D11endelementsEv @6731
    _ZNK16backgroundMesh2D11endverticesEv @6732
    _ZNK16backgroundMesh2D13beginelementsEv @6733
    _ZNK16backgroundMesh2D13beginverticesEv @6734
    _ZNK16backgroundMesh2D18getNumMeshElementsEv @6735
    _ZNK16backgroundMesh2D23get_GPoint_from_MVertexEPK7MVertex @6736
    _ZNK16backgroundMesh3D10getElementEj @6737
    _ZNK16backgroundMesh3D18getNumMeshElementsEv @6738
    _ZNK16backgroundMesh3D23get_GPoint_from_MVertexEPK7MVertex @6739
    _ZNK16gLevelsetPopcorn4typeEv @6740
    _ZNK16gLevelsetPopcornclEddd @6741
    _ZNK16gLevelsetQuadricclEddd @6742
    _ZNK16gLevelsetReverse11getChildrenEv @6743
    _ZNK16gLevelsetReverse11isPrimitiveEv @6744
    _ZNK16gLevelsetReverse4typeEv @6745
    _ZNK16gLevelsetReverse6chooseEdd @6746
    _ZNK16gLevelsetReverse6getTagEv @6747
    _ZNK16gLevelsetReverseclEddd @6748
    _ZNK17FieldOptionDouble14numericalValueEv @6749
    _ZNK17FieldOptionString6stringB5cxx11Ev @6750
    _ZNK17JacobiPolynomials1fEdPd @6751
    _ZNK17JacobiPolynomials2dfEdPd @6752
    _ZNK17gLevelsetCylinder4typeEv @6753
    _ZNK17gLevelsetCylinder5cloneEv @6754
    _ZNK17gLevelsetDistMesh4typeEv @6755
    _ZNK17gLevelsetDistMeshclEddd @6756
    _ZNK17gLevelsetImproved11getChildrenEv @6757
    _ZNK17gLevelsetImproved11isPrimitiveEv @6758
    _ZNK17gLevelsetImproved6chooseEdd @6759
    _ZNK17gLevelsetImprovedclEddd @6760
    _ZNK17gLevelsetLessThanclEPK9gLevelsetS2_ @6761
    _ZNK17gLevelsetMathEval4typeEv @6762
    _ZNK17gLevelsetMathEvalclEddd @6763
    _ZNK17gLevelsetPostView4typeEv @6764
    _ZNK17gLevelsetPostViewclEddd @6765
    _ZNK17gLevelsetShamrock4typeEv @6766
    _ZNK17gLevelsetShamrockclEddd @6767
    _ZNK18BoundaryLayerField9isotropicEv @6768
    _ZNK18MVertexLessThanNumclEPK7MVertexS2_ @6769
    _ZNK18MathEvalFieldAniso9isotropicEv @6770
    _ZNK18constantPerElementIdE10setElementEP8MElement @6771
    _ZNK18constantPerElementIdEclEddd @6772
    _ZNK18curveFunctorCircleclEd @6773
    _ZNK18gLevelsetEllipsoid4typeEv @6774
    _ZNK18gLevelsetEllipsoid5cloneEv @6775
    _ZNK18gLevelsetPrimitive11getChildrenEv @6776
    _ZNK18gLevelsetPrimitive11isPrimitiveEv @6777
    _ZNK18gLevelsetPrimitive6chooseEdd @6778
    _ZNK19IntersectAnisoField9isotropicEv @6779
    _ZNK19LegendrePolynomials1fEdPd @6780
    _ZNK19LegendrePolynomials2dfEdPd @6781
    _ZNK19surfaceFunctorGFaceclEdd @6782
    _ZNK20clique_stop_criteriaIP3HexE25export_corresponding_meshERKSt3setIS1_St4lessIS1_ESaIS1_EE @6783
    _ZNK20clique_stop_criteriaIP3HexE4stopERKSt3setIS1_St4lessIS1_ESaIS1_EE @6784
    _ZNK20gLevelsetGenCylinder4typeEv @6785
    _ZNK20gLevelsetGenCylinder5cloneEv @6786
    _ZNK20gLevelsetMathEvalAll4typeEv @6787
    _ZNK20gLevelsetMathEvalAll7hessianEdddRdS0_S0_S0_S0_S0_S0_S0_S0_ @6788
    _ZNK20gLevelsetMathEvalAll8gradientEdddRdS0_S0_ @6789
    _ZNK20gLevelsetMathEvalAllclEddd @6790
    _ZNK20jacobianBasedQuality13_CoeffDataICN11getSubCoeffERSt6vectorIPNS_10_CoeffDataESaIS3_EE @6791
    _ZNK20jacobianBasedQuality13_CoeffDataICN13getNumMeasureEv @6792
    _ZNK20jacobianBasedQuality13_CoeffDataICN16_computeAtCornerERdS1_ @6793
    _ZNK20jacobianBasedQuality13_CoeffDataICN18_computeLowerBoundEv @6794
    _ZNK20jacobianBasedQuality13_CoeffDataICN8boundsOkEdd @6795
    _ZNK20jacobianBasedQuality13_CoeffDataIGE11getSubCoeffERSt6vectorIPNS_10_CoeffDataESaIS3_EE @6796
    _ZNK20jacobianBasedQuality13_CoeffDataIGE13getNumMeasureEv @6797
    _ZNK20jacobianBasedQuality13_CoeffDataIGE16_computeAtCornerERdS1_ @6798
    _ZNK20jacobianBasedQuality13_CoeffDataIGE18_computeLowerBoundEv @6799
    _ZNK20jacobianBasedQuality13_CoeffDataIGE22_getCoeffLengthVectorsER10fullMatrixIdEb @6800
    _ZNK20jacobianBasedQuality13_CoeffDataIGE8boundsOkEdd @6801
    _ZNK20jacobianBasedQuality13_CoeffDataJac11getSubCoeffERSt6vectorIPNS_10_CoeffDataESaIS3_EE @6802
    _ZNK20jacobianBasedQuality13_CoeffDataJac13getNumMeasureEv @6803
    _ZNK20jacobianBasedQuality13_CoeffDataJac8boundsOkEdd @6804
    _ZNK20jacobianBasedQuality9_lessMaxBclEPNS_10_CoeffDataES2_ @6805
    _ZNK20jacobianBasedQuality9_lessMinBclEPNS_10_CoeffDataES2_ @6806
    _ZNK21FieldOptionListDouble10listdoubleB5cxx11Ev @6807
    _ZNK21gLevelsetIntersection5cloneEv @6808
    _ZNK21gLevelsetIntersection5type2Ev @6809
    _ZNK21gLevelsetIntersection6chooseEdd @6810
    _ZNK21gmshParametricSurface5pointEdd @6811
    _ZNK21gmshParametricSurface8geomTypeEv @6812
    _ZNK21gmshParametricSurface9parBoundsEi @6813
    _ZNK23BDS_SwapEdgeTestQualityclEP9BDS_PointS1_S1_S1_ @6814
    _ZNK23BDS_SwapEdgeTestQualityclEP9BDS_PointS1_S1_S1_S1_S1_S1_S1_S1_S1_S1_S1_ @6815
    _ZNK23gLevelsetGeneralQuadric4typeEv @6816
    _ZNK23gLevelsetGeneralQuadric5cloneEv @6817
    _ZNK24AttractorAnisoCurveField9isotropicEv @6818
    _ZNK28MVertexLessThanLexicographicclEPK7MVertexS2_ @6819
    _ZNK31surfacePointWithExclusionRegion6minmaxEPdS0_ @6820
    _ZNK3Hex15vertex_in_facetEjj @6821
    _ZNK3MapINSt7__cxx1112basic_stringIcSt11char_traitsIcESaIcEEE6StructE3getEv @6822
    _ZNK3MapINSt7__cxx1112basic_stringIcSt11char_traitsIcESaIcEEE6StructE4FindES5_ @6823
    _ZNK3MapINSt7__cxx1112basic_stringIcSt11char_traitsIcESaIcEEE6StructE4sizeEv @6824
    _ZNK3MapINSt7__cxx1112basic_stringIcSt11char_traitsIcESaIcEEE6StructE5countES5_ @6825
    _ZNK3MapINSt7__cxx1112basic_stringIcSt11char_traitsIcESaIcEEE7StructsE3getEv @6826
    _ZNK3MapINSt7__cxx1112basic_stringIcSt11char_traitsIcESaIcEEE7StructsE4FindES5_ @6827
    _ZNK3MapINSt7__cxx1112basic_stringIcSt11char_traitsIcESaIcEEE7StructsE4sizeEv @6828
    _ZNK3QtnmlERKS_ @6829
    _ZNK4Cell10getTypeMSHEv @6830
    _ZNK4Cell11getNumCellsEv @6831
    _ZNK4Cell13findBdElementEiRSt6vectorIP7MVertexSaIS2_EE @6832
    _ZNK4Cell16getNumBdElementsEv @6833
    _ZNK4Cell21findBdCellOrientationEPS_i @6834
    _ZNK4Cell6getDimEv @6835
    _ZNK4Cell9hasVertexEi @6836
    _ZNK5Field9isotropicEv @6837
    _ZNK5GEdge12closestPointERK7SPoint3Rd @6838
    _ZNK5GEdge12getEndVertexEv @6839
    _ZNK5GEdge12parFromPointERK7SPoint3 @6840
    _ZNK5GEdge13containsParamEd @6841
    _ZNK5GEdge13reparamOnFaceEPK5GFacedi @6842
    _ZNK5GEdge14getBeginVertexEv @6843
    _ZNK5GEdge18getNumElementTypesEv @6844
    _ZNK5GEdge18getNumMeshElementsEPj @6845
    _ZNK5GEdge19getStartElementTypeEi @6846
    _ZNK5GEdge19minimumDrawSegmentsEv @6847
    _ZNK5GEdge19minimumMeshSegmentsEv @6848
    _ZNK5GEdge26prescribedMeshSizeAtVertexEv @6849
    _ZNK5GEdge3dimEv @6850
    _ZNK5GEdge4is3DEv @6851
    _ZNK5GEdge5facesB5cxx11Ev @6852
    _ZNK5GEdge6XYZToUEdddRdd @6853
    _ZNK5GEdge6boundsEv @6854
    _ZNK5GEdge6isSeamEPK5GFace @6855
    _ZNK5GEdge7regionsB5cxx11Ev @6856
    _ZNK5GEdge8periodicEi @6857
    _ZNK5GEdge8positionEd @6858
    _ZNK5GEdge9curvatureEd @6859
    _ZNK5GEdge9secondDerEd @6860
    _ZNK5GFace10curvaturesERK7SPoint2P8SVector3S4_PdS5_ @6861
    _ZNK5GFace11getMeshSizeEv @6862
    _ZNK5GFace12closestPointERK7SPoint3PKd @6863
    _ZNK5GFace12curvatureDivERK7SPoint2 @6864
    _ZNK5GFace12curvatureMaxERK7SPoint2 @6865
    _ZNK5GFace12orientationsB5cxx11Ev @6866
    _ZNK5GFace12parFromPointERK7SPoint3b @6867
    _ZNK5GFace13checkTopologyEv @6868
    _ZNK5GFace13embeddedEdgesB5cxx11Ev @6869
    _ZNK5GFace14getMeshingAlgoEv @6870
    _ZNK5GFace16edgeOrientationsB5cxx11Ev @6871
    _ZNK5GFace16embeddedVerticesB5cxx11Ev @6872
    _ZNK5GFace16getMeanPlaneDataEPA3_d @6873
    _ZNK5GFace16getMeanPlaneDataEPdS0_RdS1_S1_ @6874
    _ZNK5GFace16moveToValidRangeER7SPoint2 @6875
    _ZNK5GFace18getNumElementTypesEv @6876
    _ZNK5GFace18getNumMeshElementsEPj @6877
    _ZNK5GFace19getStartElementTypeEi @6878
    _ZNK5GFace21getMetricEigenVectorsERK7SPoint2PdS3_ @6879
    _ZNK5GFace23getEmbeddedMeshVerticesEv @6880
    _ZNK5GFace28getCurvatureControlParameterEv @6881
    _ZNK5GFace3dimEv @6882
    _ZNK5GFace5edgesB5cxx11Ev @6883
    _ZNK5GFace5pointERK7SPoint2 @6884
    _ZNK5GFace6boundsEv @6885
    _ZNK5GFace6normalERK7SPoint2 @6886
    _ZNK5GFace7XYZtoUVEdddRdS0_db @6887
    _ZNK5GFace7regionsB5cxx11Ev @6888
    _ZNK5GFace8isSphereERdR7SPoint3 @6889
    _ZNK5GFace8verticesB5cxx11Ev @6890
    _ZNK5GFace9genusGeomEv @6891
    _ZNK5MEdge8isInsideEP7MVertex @6892
    _ZNK5MFace15approximateAreaEv @6893
    _ZNK5MFace21computeCorrespondenceERKS_RiRb @6894
    _ZNK5MFace6normalEv @6895
    _ZNK5MLine11getNumEdgesEv @6896
    _ZNK5MLine13barycenterUVWEv @6897
    _ZNK5MLine13getTypeForMSHEv @6898
    _ZNK5MLine13getTypeForUNVEv @6899
    _ZNK5MLine13getTypeForVTKEv @6900
    _ZNK5MLine13getVertexInfoEPK7MVertexRi @6901
    _ZNK5MLine14getNumVerticesEv @6902
    _ZNK5MLine15getEdgeVerticesEiRSt6vectorIP7MVertexSaIS2_EE @6903
    _ZNK5MLine15getStringForBDFEv @6904
    _ZNK5MLine15getStringForINPEv @6905
    _ZNK5MLine15getStringForPOSEv @6906
    _ZNK5MLine19getStringForTOCHNOGEv @6907
    _ZNK5MLine6getDimEv @6908
    _ZNK5MLine7getEdgeEi @6909
    _ZNK5MLine7getNodeEiRdS0_S0_ @6910
    _ZNK5MLine7getTypeEv @6911
    _ZNK5MLine8isInsideEddd @6912
    _ZNK5MLine9getVertexEi @6913
    _ZNK5MTet414inCircumSphereEPKd @6914
    _ZNK5MTri314inCircumCircleEPKd @6915
    _ZNK5Prism11get_qualityEv @6916
    _ZNK5PrismltERKS_ @6917
    _ZNK6GModel11getEntitiesERSt6vectorIP7GEntitySaIS2_EEi @6918
    _ZNK6GModel12getEdgeByTagEi @6919
    _ZNK6GModel12getFaceByTagEi @6920
    _ZNK6GModel14getEntityByTagEii @6921
    _ZNK6GModel14getRegionByTagEi @6922
    _ZNK6GModel14getVertexByTagEi @6923
    _ZNK6GModel15getPhysicalNameB5cxx11Eii @6924
    _ZNK6GModel16getEntitiesInBoxERSt6vectorIP7GEntitySaIS2_EE14SBoundingBox3di @6925
    _ZNK6GModel17getPhysicalGroupsEPSt3mapIiSt6vectorIP7GEntitySaIS3_EESt4lessIiESaISt4pairIKiS5_EEE @6926
    _ZNK6GModel17getPhysicalGroupsEiRSt3mapIiSt6vectorIP7GEntitySaIS3_EESt4lessIiESaISt4pairIKiS5_EEE @6927
    _ZNK6GModel18getNumMeshVerticesEv @6928
    _ZNK6GModel5emptyEv @6929
    _ZNK6GModel6getDimEv @6930
    _ZNK6GPoint1uEv @6931
    _ZNK6GPoint1vEv @6932
    _ZNK6GPoint9succeededEv @6933
    _ZNK6MLine313getTypeForMSHEv @6934
    _ZNK6MLine313getTypeForUNVEv @6935
    _ZNK6MLine313getTypeForVTKEv @6936
    _ZNK6MLine314getNumVerticesEv @6937
    _ZNK6MLine315getEdgeVerticesEiRSt6vectorIP7MVertexSaIS2_EE @6938
    _ZNK6MLine315getStringForINPEv @6939
    _ZNK6MLine315getStringForPOSEv @6940
    _ZNK6MLine318getNumEdgeVerticesEv @6941
    _ZNK6MLine318getPolynomialOrderEv @6942
    _ZNK6MLine319getStringForTOCHNOGEv @6943
    _ZNK6MLine37getNodeEiRdS0_S0_ @6944
    _ZNK6MLine39getVertexEi @6945
    _ZNK6MLineN13getTypeForMSHEv @6946
    _ZNK6MLineN14getNumVerticesEv @6947
    _ZNK6MLineN15getEdgeVerticesEiRSt6vectorIP7MVertexSaIS2_EE @6948
    _ZNK6MLineN18getNumEdgeVerticesEv @6949
    _ZNK6MLineN18getPolynomialOrderEv @6950
    _ZNK6MLineN7getNodeEiRdS0_S0_ @6951
    _ZNK6MLineN9getVertexEi @6952
    _ZNK6MPoint11getNumEdgesEv @6953
    _ZNK6MPoint13barycenterUVWEv @6954
    _ZNK6MPoint13getTypeForMSHEv @6955
    _ZNK6MPoint13getTypeForVTKEv @6956
    _ZNK6MPoint14getNumVerticesEv @6957
    _ZNK6MPoint15getStringForPOSEv @6958
    _ZNK6MPoint17getShapeFunctionsEdddPdi @6959
    _ZNK6MPoint20getJacobianFuncSpaceEi @6960
    _ZNK6MPoint21getGradShapeFunctionsEdddPA3_di @6961
    _ZNK6MPoint6getDimEv @6962
    _ZNK6MPoint7getEdgeEi @6963
    _ZNK6MPoint7getNodeEiRdS0_S0_ @6964
    _ZNK6MPoint7getTypeEv @6965
    _ZNK6MPoint8isInsideEddd @6966
    _ZNK6MPoint9getVertexEi @6967
    _ZNK6MPrism11getFaceInfoERK5MFaceRiS3_S3_ @6968
    _ZNK6MPrism11getNumEdgesEv @6969
    _ZNK6MPrism13barycenterUVWEv @6970
    _ZNK6MPrism13getTypeForMSHEv @6971
    _ZNK6MPrism13getTypeForUNVEv @6972
    _ZNK6MPrism13getTypeForVTKEv @6973
    _ZNK6MPrism14getNumVerticesEv @6974
    _ZNK6MPrism15getEdgeVerticesEiRSt6vectorIP7MVertexSaIS2_EE @6975
    _ZNK6MPrism15getFaceVerticesEiRSt6vectorIP7MVertexSaIS2_EE @6976
    _ZNK6MPrism15getStringForBDFEv @6977
    _ZNK6MPrism15getStringForINPEv @6978
    _ZNK6MPrism15getStringForPOSEv @6979
    _ZNK6MPrism6getDimEv @6980
    _ZNK6MPrism7getEdgeEi @6981
    _ZNK6MPrism7getNodeEiRdS0_S0_ @6982
    _ZNK6MPrism7getTypeEv @6983
    _ZNK6MPrism8isInsideEddd @6984
    _ZNK6MPrism9getVertexEi @6985
    _ZNK6PELine19get_max_nb_verticesEv @6986
    _ZNK6Struct13getMember_DimERNSt7__cxx1112basic_stringIcSt11char_traitsIcESaIcEEERi @6987
    _ZNK6Struct16getMember_ValMaxEv @6988
    _ZNK6Struct16getMember_VectorERNSt7__cxx1112basic_stringIcSt11char_traitsIcESaIcEEERPKSt6vectorIS5_SaIS5_EE @6989
    _ZNK6Struct16getMember_VectorERNSt7__cxx1112basic_stringIcSt11char_traitsIcESaIcEEERPKSt6vectorIdSaIdEE @6990
    _ZNK6Struct6getTagEv @6991
    _ZNK6Struct6sprintERNSt7__cxx1112basic_stringIcSt11char_traitsIcESaIcEEERKS5_S8_ @6992
    _ZNK6Struct9getMemberERNSt7__cxx1112basic_stringIcSt11char_traitsIcESaIcEEERPKS5_i @6993
    _ZNK6Struct9getMemberERNSt7__cxx1112basic_stringIcSt11char_traitsIcESaIcEEERdi @6994
    _ZNK7BGMBase13export_scalarERKNSt7__cxx1112basic_stringIcSt11char_traitsIcESaIcEEERKSt3mapIP7MVertexdSt4lessISA_ESaISt4pairIKSA_dEEE @6995
    _ZNK7BGMBase13export_vectorERKNSt7__cxx1112basic_stringIcSt11char_traitsIcESaIcEEERKSt3mapIP7MVertexSt6vectorIdSaIdEESt4lessISA_ESaISt4pairIKSA_SD_EEE @6996
    _ZNK7BGMBase15exportSizeFieldERKNSt7__cxx1112basic_stringIcSt11char_traitsIcESaIcEEE @6997
    _ZNK7BGMBase15get_nodal_valueEPK7MVertexRKSt3mapIPS0_St6vectorIdSaIdEESt4lessIS4_ESaISt4pairIKS4_S7_EEE @6998
    _ZNK7BGMBase15get_nodal_valueEPK7MVertexRKSt3mapIPS0_dSt4lessIS4_ESaISt4pairIKS4_dEEE @6999
    _ZNK7BGMBase16get_nodal_valuesEPK8MElementRKSt3mapIP7MVertexSt6vectorIdSaIdEESt4lessIS5_ESaISt4pairIKS5_S8_EEE @7000
    _ZNK7BGMBase16get_nodal_valuesEPK8MElementRKSt3mapIP7MVertexdSt4lessIS5_ESaISt4pairIKS5_dEEE @7001
    _ZNK7BGMBase24export_tensor_as_vectorsERKNSt7__cxx1112basic_stringIcSt11char_traitsIcESaIcEEERKSt3mapIP7MVertex8STensor3St4lessISA_ESaISt4pairIKSA_SB_EEE @7002
    _ZNK7BGMBase24get_element_uvw_from_xyzEPK8MElementddd @7003
    _ZNK7GEntity10continuousEi @7004
    _ZNK7GEntity10degenerateEi @7005
    _ZNK7GEntity10meshMasterEv @7006
    _ZNK7GEntity11getMeshSizeEv @7007
    _ZNK7GEntity12getNativeIntEv @7008
    _ZNK7GEntity12getNativePtrEv @7009
    _ZNK7GEntity13containsPointERK7SPoint3 @7010
    _ZNK7GEntity13getNativeTypeEv @7011
    _ZNK7GEntity18getNumElementTypesEv @7012
    _ZNK7GEntity18getNumMeshElementsEPj @7013
    _ZNK7GEntity19getStartElementTypeEi @7014
    _ZNK7GEntity3dimEv @7015
    _ZNK7GEntity3tagEv @7016
    _ZNK7GEntity5edgesB5cxx11Ev @7017
    _ZNK7GEntity5facesB5cxx11Ev @7018
    _ZNK7GEntity6boundsEv @7019
    _ZNK7GEntity6periodEi @7020
    _ZNK7GEntity7regionsB5cxx11Ev @7021
    _ZNK7GEntity8geomTypeEv @7022
    _ZNK7GEntity8periodicEi @7023
    _ZNK7GEntity8verticesB5cxx11Ev @7024
    _ZNK7GEntity9parBoundsEi @7025
    _ZNK7GEntity9toleranceEv @7026
    _ZNK7GRegion13edgeConnectedEPS_ @7027
    _ZNK7GRegion13embeddedEdgesB5cxx11Ev @7028
    _ZNK7GRegion13embeddedFacesB5cxx11Ev @7029
    _ZNK7GRegion16faceOrientationsB5cxx11Ev @7030
    _ZNK7GRegion18getNumElementTypesEv @7031
    _ZNK7GRegion18getNumMeshElementsEPj @7032
    _ZNK7GRegion19getStartElementTypeEi @7033
    _ZNK7GRegion3dimEv @7034
    _ZNK7GRegion5edgesB5cxx11Ev @7035
    _ZNK7GRegion5facesB5cxx11Ev @7036
    _ZNK7GRegion6boundsEv @7037
    _ZNK7GRegion8verticesB5cxx11Ev @7038
    _ZNK7GVertex13reparamOnFaceEPK5GFacei @7039
    _ZNK7GVertex18getNumMeshElementsEPj @7040
    _ZNK7GVertex26prescribedMeshSizeAtVertexEv @7041
    _ZNK7GVertex3dimEv @7042
    _ZNK7GVertex3xyzEv @7043
    _ZNK7GVertex5edgesB5cxx11Ev @7044
    _ZNK7GVertex5facesB5cxx11Ev @7045
    _ZNK7GVertex6boundsEv @7046
    _ZNK7GVertex7regionsB5cxx11Ev @7047
    _ZNK7GVertex8geomTypeEv @7048
    _ZNK7GVertex8isOnSeamEPK5GFace @7049
    _ZNK7MPrismN13getTypeForMSHEv @7050
    _ZNK7MPrismN14getNumVerticesEv @7051
    _ZNK7MPrismN15getEdgeVerticesEiRSt6vectorIP7MVertexSaIS2_EE @7052
    _ZNK7MPrismN15getFaceVerticesEiRSt6vectorIP7MVertexSaIS2_EE @7053
    _ZNK7MPrismN15getStringForPOSEv @7054
    _ZNK7MPrismN18getNumEdgeVerticesEv @7055
    _ZNK7MPrismN18getNumFaceVerticesEv @7056
    _ZNK7MPrismN18getPolynomialOrderEv @7057
    _ZNK7MPrismN20getNumVolumeVerticesEv @7058
    _ZNK7MPrismN7getNodeEiRdS0_S0_ @7059
    _ZNK7MPrismN9getVertexEi @7060
    _ZNK7MVertex12getParameterEiRd @7061
    _ZNK7SPoint21xEv @7062
    _ZNK7SPoint21yEv @7063
    _ZNK7SPoint2mlEd @7064
    _ZNK7SPoint31xEv @7065
    _ZNK7SPoint31yEv @7066
    _ZNK7SPoint31zEv @7067
    _ZNK7Structs23get_key_struct_from_tagEiRPKNSt7__cxx1112basic_stringIcSt11char_traitsIcESaIcEEE @7068
    _ZNK7Structs6sprintERSt6vectorINSt7__cxx1112basic_stringIcSt11char_traitsIcESaIcEEESaIS6_EERKS6_ @7069
    _ZNK7Surface10degenerateEv @7070
    _ZNK7cross3D10rotationToERKS_ @7071
    _ZNK7cross3D16rotationDirectToERKS_ @7072
    _ZNK7cross3D16rotationToOnSurfERKS_ @7073
    _ZNK7cross3D3getEi @7074
    _ZNK8BDS_Edge10oppositeofEPP9BDS_Point @7075
    _ZNK8BDS_Edge11othervertexEPK9BDS_Point @7076
    _ZNK8BDS_Edge12commonvertexEPKS_ @7077
    _ZNK8BDS_Edge12numTrianglesEv @7078
    _ZNK8BDS_Edge5facesEi @7079
    _ZNK8BDS_Edge8numfacesEv @7080
    _ZNK8BDS_Edge9otherFaceEPK8BDS_Face @7081
    _ZNK8BDS_Face8getNodesEPP9BDS_Point @7082
    _ZNK8BDS_Face8numEdgesEv @7083
    _ZNK8BDS_Mesh9find_edgeEP9BDS_PointS1_P8BDS_Face @7084
    _ZNK8MElement10barycenterEb @7085
    _ZNK8MElement10ownsParentEv @7086
    _ZNK8MElement11getEdgeInfoERK5MEdgeRiS3_ @7087
    _ZNK8MElement11getFaceInfoERK5MFaceRiS3_S3_ @7088
    _ZNK8MElement11getJacobianERK10fullMatrixIdEPA3_d @7089
    _ZNK8MElement11getJacobianERKSt6vectorI8SVector3SaIS1_EEPA3_d @7090
    _ZNK8MElement11getJacobianEdddPA3_d @7091
    _ZNK8MElement12getPartitionEv @7092
    _ZNK8MElement13barycenterUVWEv @7093
    _ZNK8MElement13getNodesCoordER10fullMatrixIdE @7094
    _ZNK8MElement13getTypeForMSHEv @7095
    _ZNK8MElement13getTypeForUNVEv @7096
    _ZNK8MElement13getTypeForVTKEv @7097
    _ZNK8MElement13getVertexInfoEPK7MVertexRi @7098
    _ZNK8MElement13getVisibilityEv @7099
    _ZNK8MElement14getBaseElementEv @7100
    _ZNK8MElement14getNumChildrenEv @7101
    _ZNK8MElement14scaledJacRangeERdS0_P7GEntity @7102
    _ZNK8MElement15getEdgeVerticesEiRSt6vectorIP7MVertexSaIS2_EE @7103
    _ZNK8MElement15getFaceVerticesEiRSt6vectorIP7MVertexSaIS2_EE @7104
    _ZNK8MElement15getStringForBDFEv @7105
    _ZNK8MElement15getStringForINPEv @7106
    _ZNK8MElement15getStringForPOSEv @7107
    _ZNK8MElement16barycenter_inftyEv @7108
    _ZNK8MElement16getFunctionSpaceEib @7109
    _ZNK8MElement16getStringForDIFFEv @7110
    _ZNK8MElement17getShapeFunctionsEdddPdi @7111
    _ZNK8MElement17getSignedJacobianER10fullVectorIdEi @7112
    _ZNK8MElement17maxDistToStraightEv @7113
    _ZNK8MElement18getNumEdgeVerticesEv @7114
    _ZNK8MElement18getNumFaceVerticesEv @7115
    _ZNK8MElement18getPolynomialOrderEv @7116
    _ZNK8MElement18getPrimaryJacobianEdddPA3_d @7117
    _ZNK8MElement19getStringForTOCHNOGEv @7118
    _ZNK8MElement20getEigenvaluesMetricEdddPd @7119
    _ZNK8MElement20getIsOnlySerendipityEv @7120
    _ZNK8MElement20getJacobianFuncSpaceEi @7121
    _ZNK8MElement20getNumShapeFunctionsEv @7122
    _ZNK8MElement20getNumVolumeVerticesEv @7123
    _ZNK8MElement20getShapeFunctionNodeEi @7124
    _ZNK8MElement21getGradShapeFunctionsEdddPA3_di @7125
    _ZNK8MElement21getHessShapeFunctionsEdddPA3_A3_di @7126
    _ZNK8MElement27getIsAssimilatedSerendipityEv @7127
    _ZNK8MElement27getNumPrimaryShapeFunctionsEv @7128
    _ZNK8MElement32getThirdDerivativeShapeFunctionsEdddPA3_A3_A3_di @7129
    _ZNK8MElement38movePointFromElementSpaceToParentSpaceERdS0_S0_ @7130
    _ZNK8MElement38movePointFromParentSpaceToElementSpaceERdS0_S0_ @7131
    _ZNK8MElement3pntERKSt6vectorIdSaIdEER7SPoint3 @7132
    _ZNK8MElement3pntEdddR7SPoint3 @7133
    _ZNK8MElement6getNumEv @7134
    _ZNK8MElement7getNodeEiRdS0_S0_ @7135
    _ZNK8MElement7xyz2uvwEPdS0_ @7136
    _ZNK8MElement8getChildEi @7137
    _ZNK8MElement9getDomainEi @7138
    _ZNK8MElement9getParentEv @7139
    _ZNK8MPolygon10ownsParentEv @7140
    _ZNK8MPolygon11getNumEdgesEv @7141
    _ZNK8MPolygon13getTypeForMSHEv @7142
    _ZNK8MPolygon14getNumChildrenEv @7143
    _ZNK8MPolygon14getNumVerticesEv @7144
    _ZNK8MPolygon15getEdgeVerticesEiRSt6vectorIP7MVertexSaIS2_EE @7145
    _ZNK8MPolygon15getFaceVerticesEiRSt6vectorIP7MVertexSaIS2_EE @7146
    _ZNK8MPolygon16getFunctionSpaceEib @7147
    _ZNK8MPolygon17getShapeFunctionsEdddPdi @7148
    _ZNK8MPolygon18getNumFaceVerticesEv @7149
    _ZNK8MPolygon20getJacobianFuncSpaceEi @7150
    _ZNK8MPolygon20getNumShapeFunctionsEv @7151
    _ZNK8MPolygon20getShapeFunctionNodeEi @7152
    _ZNK8MPolygon21getGradShapeFunctionsEdddPA3_di @7153
    _ZNK8MPolygon21getHessShapeFunctionsEdddPA3_A3_di @7154
    _ZNK8MPolygon27getNumPrimaryShapeFunctionsEv @7155
    _ZNK8MPolygon6getDimEv @7156
    _ZNK8MPolygon7getEdgeEi @7157
    _ZNK8MPolygon7getTypeEv @7158
    _ZNK8MPolygon8getChildEi @7159
    _ZNK8MPolygon8isInsideEddd @7160
    _ZNK8MPolygon9getParentEv @7161
    _ZNK8MPolygon9getVertexEi @7162
    _ZNK8MPrism1513getTypeForMSHEv @7163
    _ZNK8MPrism1513getTypeForUNVEv @7164
    _ZNK8MPrism1514getNumVerticesEv @7165
    _ZNK8MPrism1515getEdgeVerticesEiRSt6vectorIP7MVertexSaIS2_EE @7166
    _ZNK8MPrism1515getFaceVerticesEiRSt6vectorIP7MVertexSaIS2_EE @7167
    _ZNK8MPrism1515getStringForBDFEv @7168
    _ZNK8MPrism1515getStringForINPEv @7169
    _ZNK8MPrism1518getNumEdgeVerticesEv @7170
    _ZNK8MPrism1518getPolynomialOrderEv @7171
    _ZNK8MPrism157getNodeEiRdS0_S0_ @7172
    _ZNK8MPrism159getVertexEi @7173
    _ZNK8MPrism1813getTypeForMSHEv @7174
    _ZNK8MPrism1814getNumVerticesEv @7175
    _ZNK8MPrism1815getEdgeVerticesEiRSt6vectorIP7MVertexSaIS2_EE @7176
    _ZNK8MPrism1815getFaceVerticesEiRSt6vectorIP7MVertexSaIS2_EE @7177
    _ZNK8MPrism1815getStringForPOSEv @7178
    _ZNK8MPrism1818getNumEdgeVerticesEv @7179
    _ZNK8MPrism1818getNumFaceVerticesEv @7180
    _ZNK8MPrism1818getPolynomialOrderEv @7181
    _ZNK8MPrism187getNodeEiRdS0_S0_ @7182
    _ZNK8MPrism189getVertexEi @7183
    _ZNK8MPyramid11getNumEdgesEv @7184
    _ZNK8MPyramid13barycenterUVWEv @7185
    _ZNK8MPyramid13getTypeForMSHEv @7186
    _ZNK8MPyramid13getTypeForVTKEv @7187
    _ZNK8MPyramid14getNumVerticesEv @7188
    _ZNK8MPyramid15getEdgeVerticesEiRSt6vectorIP7MVertexSaIS2_EE @7189
    _ZNK8MPyramid15getFaceVerticesEiRSt6vectorIP7MVertexSaIS2_EE @7190
    _ZNK8MPyramid15getStringForBDFEv @7191
    _ZNK8MPyramid15getStringForPOSEv @7192
    _ZNK8MPyramid6getDimEv @7193
    _ZNK8MPyramid7getEdgeEi @7194
    _ZNK8MPyramid7getNodeEiRdS0_S0_ @7195
    _ZNK8MPyramid7getTypeEv @7196
    _ZNK8MPyramid8isInsideEddd @7197
    _ZNK8MPyramid9getVertexEi @7198
    _ZNK8MSubLine10ownsParentEv @7199
    _ZNK8MSubLine11getJacobianERK10fullMatrixIdEPA3_d @7200
    _ZNK8MSubLine11getJacobianERKSt6vectorI8SVector3SaIS1_EEPA3_d @7201
    _ZNK8MSubLine11getJacobianEdddPA3_d @7202
    _ZNK8MSubLine13getTypeForMSHEv @7203
    _ZNK8MSubLine14getBaseElementEv @7204
    _ZNK8MSubLine15getMultiParentsEv @7205
    _ZNK8MSubLine16getFunctionSpaceEib @7206
    _ZNK8MSubLine17getShapeFunctionsEdddPdi @7207
    _ZNK8MSubLine18getPrimaryJacobianEdddPA3_d @7208
    _ZNK8MSubLine20getJacobianFuncSpaceEi @7209
    _ZNK8MSubLine20getNumShapeFunctionsEv @7210
    _ZNK8MSubLine20getShapeFunctionNodeEi @7211
    _ZNK8MSubLine21getGradShapeFunctionsEdddPA3_di @7212
    _ZNK8MSubLine21getHessShapeFunctionsEdddPA3_A3_di @7213
    _ZNK8MSubLine27getNumPrimaryShapeFunctionsEv @7214
    _ZNK8MSubLine32getThirdDerivativeShapeFunctionsEdddPA3_A3_A3_di @7215
    _ZNK8MSubLine38movePointFromElementSpaceToParentSpaceERdS0_S0_ @7216
    _ZNK8MSubLine38movePointFromParentSpaceToElementSpaceERdS0_S0_ @7217
    _ZNK8MSubLine7xyz2uvwEPdS0_ @7218
    _ZNK8MSubLine8isInsideEddd @7219
    _ZNK8MSubLine9getParentEv @7220
    _ZNK8PEEntity13same_verticesEPKS_ @7221
    _ZNK8PEEntity8get_hashEv @7222
    _ZNK8PEEntity9getVertexEy @7223
    _ZNK8PEEntity9hasVertexEP7MVertex @7224
    _ZNK8PEEntityltERKS_ @7225
    _ZNK8SMetric33eigER10fullMatrixIdER10fullVectorIdEb @7226
    _ZNK8SMetric35printEPKc @7227
    _ZNK8STensor35printEPKc @7228
    _ZNK8gmshEdge10degenerateEi @7229
    _ZNK8gmshEdge12getNativePtrEv @7230
    _ZNK8gmshEdge13getNativeTypeEv @7231
    _ZNK8gmshEdge13reparamOnFaceEPK5GFacedi @7232
    _ZNK8gmshEdge19minimumDrawSegmentsEv @7233
    _ZNK8gmshEdge19minimumMeshSegmentsEv @7234
    _ZNK8gmshEdge5pointEd @7235
    _ZNK8gmshEdge8firstDerEd @7236
    _ZNK8gmshEdge8geomTypeEv @7237
    _ZNK8gmshEdge9parBoundsEi @7238
    _ZNK8gmshEdge9secondDerEd @7239
    _ZNK8gmshFace10degenerateEi @7240
    _ZNK8gmshFace12closestPointERK7SPoint3PKd @7241
    _ZNK8gmshFace12getNativePtrEv @7242
    _ZNK8gmshFace12parFromPointERK7SPoint3b @7243
    _ZNK8gmshFace13containsPointERK7SPoint3 @7244
    _ZNK8gmshFace13getNativeTypeEv @7245
    _ZNK8gmshFace5pointEdd @7246
    _ZNK8gmshFace6normalERK7SPoint2 @7247
    _ZNK8gmshFace8firstDerERK7SPoint2 @7248
    _ZNK8gmshFace8geomTypeEv @7249
    _ZNK8gmshFace9parBoundsEi @7250
    _ZNK8gmshFace9secondDerERK7SPoint2P8SVector3S4_S4_ @7251
    _ZNK9BDS_Point12getTrianglesERNSt7__cxx114listIP8BDS_FaceSaIS3_EEE @7252
    _ZNK9BDS_PointltERKS_ @7253
    _ZNK9Curvature11getAtVertexEPK7MVertex @7254
    _ZNK9DocRecord11voronoiCellEiRSt6vectorI7SPoint2SaIS1_EE @7255
    _ZNK9GEdgeLoop5countEP5GEdge @7256
    _ZNK9Less_CellclEPK4CellS2_ @7257
    _ZNK9MPyramidN13getTypeForMSHEv @7258
    _ZNK9MPyramidN14getNumVerticesEv @7259
    _ZNK9MPyramidN15getEdgeVerticesEiRSt6vectorIP7MVertexSaIS2_EE @7260
    _ZNK9MPyramidN15getFaceVerticesEiRSt6vectorIP7MVertexSaIS2_EE @7261
    _ZNK9MPyramidN18getNumEdgeVerticesEv @7262
    _ZNK9MPyramidN18getNumFaceVerticesEv @7263
    _ZNK9MPyramidN18getPolynomialOrderEv @7264
    _ZNK9MPyramidN20getNumVolumeVerticesEv @7265
    _ZNK9MPyramidN7getNodeEiRdS0_S0_ @7266
    _ZNK9MPyramidN9getVertexEi @7267
    _ZNK9MSubPoint10ownsParentEv @7268
    _ZNK9MSubPoint11getJacobianERK10fullMatrixIdEPA3_d @7269
    _ZNK9MSubPoint11getJacobianERKSt6vectorI8SVector3SaIS1_EEPA3_d @7270
    _ZNK9MSubPoint11getJacobianEdddPA3_d @7271
    _ZNK9MSubPoint13getTypeForMSHEv @7272
    _ZNK9MSubPoint14getBaseElementEv @7273
    _ZNK9MSubPoint15getMultiParentsEv @7274
    _ZNK9MSubPoint16getFunctionSpaceEib @7275
    _ZNK9MSubPoint17getShapeFunctionsEdddPdi @7276
    _ZNK9MSubPoint18getPrimaryJacobianEdddPA3_d @7277
    _ZNK9MSubPoint20getJacobianFuncSpaceEi @7278
    _ZNK9MSubPoint20getNumShapeFunctionsEv @7279
    _ZNK9MSubPoint20getShapeFunctionNodeEi @7280
    _ZNK9MSubPoint21getGradShapeFunctionsEdddPA3_di @7281
    _ZNK9MSubPoint21getHessShapeFunctionsEdddPA3_A3_di @7282
    _ZNK9MSubPoint27getNumPrimaryShapeFunctionsEv @7283
    _ZNK9MSubPoint32getThirdDerivativeShapeFunctionsEdddPA3_A3_A3_di @7284
    _ZNK9MSubPoint38movePointFromElementSpaceToParentSpaceERdS0_S0_ @7285
    _ZNK9MSubPoint38movePointFromParentSpaceToElementSpaceERdS0_S0_ @7286
    _ZNK9MSubPoint7xyz2uvwEPdS0_ @7287
    _ZNK9MSubPoint8isInsideEddd @7288
    _ZNK9MSubPoint9getParentEv @7289
    _ZNK9MTriangle11getEdgeInfoERK5MEdgeRiS3_ @7290
    _ZNK9MTriangle11getNumEdgesEv @7291
    _ZNK9MTriangle13barycenterUVWEv @7292
    _ZNK9MTriangle13getTypeForMSHEv @7293
    _ZNK9MTriangle13getTypeForUNVEv @7294
    _ZNK9MTriangle13getTypeForVTKEv @7295
    _ZNK9MTriangle14getNumVerticesEv @7296
    _ZNK9MTriangle15getEdgeVerticesEiRSt6vectorIP7MVertexSaIS2_EE @7297
    _ZNK9MTriangle15getFaceVerticesEiRSt6vectorIP7MVertexSaIS2_EE @7298
    _ZNK9MTriangle15getStringForBDFEv @7299
    _ZNK9MTriangle15getStringForINPEv @7300
    _ZNK9MTriangle15getStringForPOSEv @7301
    _ZNK9MTriangle16getStringForDIFFEv @7302
    _ZNK9MTriangle19getStringForTOCHNOGEv @7303
    _ZNK9MTriangle6getDimEv @7304
    _ZNK9MTriangle7getEdgeEi @7305
    _ZNK9MTriangle7getNodeEiRdS0_S0_ @7306
    _ZNK9MTriangle7getTypeEv @7307
    _ZNK9MTriangle7xyz2uvwEPdS0_ @7308
    _ZNK9MTriangle8isInsideEddd @7309
    _ZNK9MTriangle9getVertexEi @7310
    _ZNK9__gnu_cxx13new_allocatorINSt7__cxx1112basic_stringIcSt11char_traitsIcESaIcEEEE11_M_max_sizeEv @7311
    _ZNK9__gnu_cxx13new_allocatorINSt7__cxx1112basic_stringIcSt11char_traitsIcESaIcEEEE8max_sizeEv @7312
    _ZNK9__gnu_cxx13new_allocatorIP14simpleFunctionIdEE11_M_max_sizeEv @7313
    _ZNK9__gnu_cxx13new_allocatorIP14simpleFunctionIdEE8max_sizeEv @7314
    _ZNK9__gnu_cxx13new_allocatorIP7GVertexE11_M_max_sizeEv @7315
    _ZNK9__gnu_cxx13new_allocatorIP7GVertexE8max_sizeEv @7316
    _ZNK9__gnu_cxx13new_allocatorIP8BDS_EdgeE11_M_max_sizeEv @7317
    _ZNK9__gnu_cxx13new_allocatorIP8BDS_EdgeE8max_sizeEv @7318
    _ZNK9__gnu_cxx13new_allocatorIP8BDS_FaceE11_M_max_sizeEv @7319
    _ZNK9__gnu_cxx13new_allocatorIP8BDS_FaceE8max_sizeEv @7320
    _ZNK9__gnu_cxx13new_allocatorIP9gLevelsetE11_M_max_sizeEv @7321
    _ZNK9__gnu_cxx13new_allocatorIP9gLevelsetE8max_sizeEv @7322
    _ZNK9__gnu_cxx13new_allocatorIPP8BDS_FaceE11_M_max_sizeEv @7323
    _ZNK9__gnu_cxx13new_allocatorISt10_List_nodeIP5GEdgeEE11_M_max_sizeEv @7324
    _ZNK9__gnu_cxx13new_allocatorISt10_List_nodeIP5GFaceEE11_M_max_sizeEv @7325
    _ZNK9__gnu_cxx13new_allocatorISt10_List_nodeIP7GVertexEE11_M_max_sizeEv @7326
    _ZNK9__gnu_cxx13new_allocatorISt10_List_nodeIP8BDS_EdgeEE11_M_max_sizeEv @7327
    _ZNK9__gnu_cxx13new_allocatorISt10_List_nodeIP8BDS_FaceEE11_M_max_sizeEv @7328
    _ZNK9__gnu_cxx13new_allocatorISt10_List_nodeIdEE11_M_max_sizeEv @7329
    _ZNK9__gnu_cxx13new_allocatorISt10_List_nodeIiEE11_M_max_sizeEv @7330
    _ZNK9__gnu_cxx13new_allocatorISt13_Rb_tree_nodeI13EdgeToRecoverEE11_M_max_sizeEv @7331
    _ZNK9__gnu_cxx13new_allocatorISt13_Rb_tree_nodeIP14BDS_GeomEntityEE11_M_max_sizeEv @7332
    _ZNK9__gnu_cxx13new_allocatorISt13_Rb_tree_nodeIP9BDS_PointEE11_M_max_sizeEv @7333
    _ZNK9__gnu_cxx13new_allocatorISt13_Rb_tree_nodeISt4pairIKNSt7__cxx1112basic_stringIcSt11char_traitsIcESaIcEEE13gmsh_yysymbolEEE11_M_max_sizeEv @7334
    _ZNK9__gnu_cxx13new_allocatorISt13_Rb_tree_nodeISt4pairIKNSt7__cxx1112basic_stringIcSt11char_traitsIcESaIcEEE6StructEEE11_M_max_sizeEv @7335
    _ZNK9__gnu_cxx13new_allocatorISt13_Rb_tree_nodeISt4pairIKNSt7__cxx1112basic_stringIcSt11char_traitsIcESaIcEEE7StructsEEE11_M_max_sizeEv @7336
    _ZNK9__gnu_cxx13new_allocatorISt13_Rb_tree_nodeISt4pairIKNSt7__cxx1112basic_stringIcSt11char_traitsIcESaIcEEEP11FieldOptionEEE11_M_max_sizeEv @7337
    _ZNK9__gnu_cxx13new_allocatorISt13_Rb_tree_nodeISt4pairIKNSt7__cxx1112basic_stringIcSt11char_traitsIcESaIcEEEP13FieldCallbackEEE11_M_max_sizeEv @7338
    _ZNK9__gnu_cxx13new_allocatorISt13_Rb_tree_nodeISt4pairIKNSt7__cxx1112basic_stringIcSt11char_traitsIcESaIcEEESt6vectorIS8_SaIS8_EEEEE11_M_max_sizeEv @7339
    _ZNK9__gnu_cxx13new_allocatorISt13_Rb_tree_nodeISt4pairIKNSt7__cxx1112basic_stringIcSt11char_traitsIcESaIcEEESt6vectorIdSaIdEEEEE11_M_max_sizeEv @7340
    _ZNK9__gnu_cxx13new_allocatorISt13_Rb_tree_nodeISt4pairIKiS2_IdSt6vectorIiSaIiEEEEEE11_M_max_sizeEv @7341
    _ZNK9__gnu_cxx13new_allocatorISt13_Rb_tree_nodeISt4pairIKiiEEE11_M_max_sizeEv @7342
    _ZNK9__gnu_cxx13new_allocatorISt4pairIiiEE11_M_max_sizeEv @7343
    _ZNK9__gnu_cxx13new_allocatorISt4pairIiiEE8max_sizeEv @7344
    _ZNK9__gnu_cxx13new_allocatorISt6vectorIdSaIdEEE11_M_max_sizeEv @7345
    _ZNK9__gnu_cxx13new_allocatorISt6vectorIdSaIdEEE8max_sizeEv @7346
    _ZNK9__gnu_cxx13new_allocatorIcE11_M_max_sizeEv @7347
    _ZNK9__gnu_cxx13new_allocatorIcE8max_sizeEv @7348
    _ZNK9__gnu_cxx13new_allocatorIdE11_M_max_sizeEv @7349
    _ZNK9__gnu_cxx13new_allocatorIdE8max_sizeEv @7350
    _ZNK9__gnu_cxx13new_allocatorIiE11_M_max_sizeEv @7351
    _ZNK9__gnu_cxx13new_allocatorIiE8max_sizeEv @7352
    _ZNK9__gnu_cxx16__aligned_membufI13EdgeToRecoverE6_M_ptrEv @7353
    _ZNK9__gnu_cxx16__aligned_membufI13EdgeToRecoverE7_M_addrEv @7354
    _ZNK9__gnu_cxx16__aligned_membufIP14BDS_GeomEntityE6_M_ptrEv @7355
    _ZNK9__gnu_cxx16__aligned_membufIP14BDS_GeomEntityE7_M_addrEv @7356
    _ZNK9__gnu_cxx16__aligned_membufIP5GEdgeE6_M_ptrEv @7357
    _ZNK9__gnu_cxx16__aligned_membufIP5GEdgeE7_M_addrEv @7358
    _ZNK9__gnu_cxx16__aligned_membufIP5GFaceE6_M_ptrEv @7359
    _ZNK9__gnu_cxx16__aligned_membufIP5GFaceE7_M_addrEv @7360
    _ZNK9__gnu_cxx16__aligned_membufIP7GRegionE6_M_ptrEv @7361
    _ZNK9__gnu_cxx16__aligned_membufIP7GRegionE7_M_addrEv @7362
    _ZNK9__gnu_cxx16__aligned_membufIP7GVertexE6_M_ptrEv @7363
    _ZNK9__gnu_cxx16__aligned_membufIP7GVertexE7_M_addrEv @7364
    _ZNK9__gnu_cxx16__aligned_membufIP8BDS_EdgeE6_M_ptrEv @7365
    _ZNK9__gnu_cxx16__aligned_membufIP8BDS_EdgeE7_M_addrEv @7366
    _ZNK9__gnu_cxx16__aligned_membufIP8BDS_FaceE6_M_ptrEv @7367
    _ZNK9__gnu_cxx16__aligned_membufIP8BDS_FaceE7_M_addrEv @7368
    _ZNK9__gnu_cxx16__aligned_membufIP9BDS_PointE6_M_ptrEv @7369
    _ZNK9__gnu_cxx16__aligned_membufIP9BDS_PointE7_M_addrEv @7370
    _ZNK9__gnu_cxx16__aligned_membufISt4pairIKNSt7__cxx1112basic_stringIcSt11char_traitsIcESaIcEEE13gmsh_yysymbolEE6_M_ptrEv @7371
    _ZNK9__gnu_cxx16__aligned_membufISt4pairIKNSt7__cxx1112basic_stringIcSt11char_traitsIcESaIcEEE13gmsh_yysymbolEE7_M_addrEv @7372
    _ZNK9__gnu_cxx16__aligned_membufISt4pairIKNSt7__cxx1112basic_stringIcSt11char_traitsIcESaIcEEE6StructEE6_M_ptrEv @7373
    _ZNK9__gnu_cxx16__aligned_membufISt4pairIKNSt7__cxx1112basic_stringIcSt11char_traitsIcESaIcEEE6StructEE7_M_addrEv @7374
    _ZNK9__gnu_cxx16__aligned_membufISt4pairIKNSt7__cxx1112basic_stringIcSt11char_traitsIcESaIcEEE7StructsEE6_M_ptrEv @7375
    _ZNK9__gnu_cxx16__aligned_membufISt4pairIKNSt7__cxx1112basic_stringIcSt11char_traitsIcESaIcEEE7StructsEE7_M_addrEv @7376
    _ZNK9__gnu_cxx16__aligned_membufISt4pairIKNSt7__cxx1112basic_stringIcSt11char_traitsIcESaIcEEEP11FieldOptionEE6_M_ptrEv @7377
    _ZNK9__gnu_cxx16__aligned_membufISt4pairIKNSt7__cxx1112basic_stringIcSt11char_traitsIcESaIcEEEP11FieldOptionEE7_M_addrEv @7378
    _ZNK9__gnu_cxx16__aligned_membufISt4pairIKNSt7__cxx1112basic_stringIcSt11char_traitsIcESaIcEEEP13FieldCallbackEE6_M_ptrEv @7379
    _ZNK9__gnu_cxx16__aligned_membufISt4pairIKNSt7__cxx1112basic_stringIcSt11char_traitsIcESaIcEEEP13FieldCallbackEE7_M_addrEv @7380
    _ZNK9__gnu_cxx16__aligned_membufISt4pairIKNSt7__cxx1112basic_stringIcSt11char_traitsIcESaIcEEESt6vectorIS7_SaIS7_EEEE6_M_ptrEv @7381
    _ZNK9__gnu_cxx16__aligned_membufISt4pairIKNSt7__cxx1112basic_stringIcSt11char_traitsIcESaIcEEESt6vectorIS7_SaIS7_EEEE7_M_addrEv @7382
    _ZNK9__gnu_cxx16__aligned_membufISt4pairIKNSt7__cxx1112basic_stringIcSt11char_traitsIcESaIcEEESt6vectorIdSaIdEEEE6_M_ptrEv @7383
    _ZNK9__gnu_cxx16__aligned_membufISt4pairIKNSt7__cxx1112basic_stringIcSt11char_traitsIcESaIcEEESt6vectorIdSaIdEEEE7_M_addrEv @7384
    _ZNK9__gnu_cxx16__aligned_membufISt4pairIKiS1_IdSt6vectorIiSaIiEEEEE6_M_ptrEv @7385
    _ZNK9__gnu_cxx16__aligned_membufISt4pairIKiS1_IdSt6vectorIiSaIiEEEEE7_M_addrEv @7386
    _ZNK9__gnu_cxx16__aligned_membufISt4pairIKiSt6vectorIP7GEntitySaIS5_EEEE6_M_ptrEv @7387
    _ZNK9__gnu_cxx16__aligned_membufISt4pairIKiSt6vectorIP7GEntitySaIS5_EEEE7_M_addrEv @7388
    _ZNK9__gnu_cxx16__aligned_membufISt4pairIKiiEE6_M_ptrEv @7389
    _ZNK9__gnu_cxx16__aligned_membufISt4pairIKiiEE7_M_addrEv @7390
    _ZNK9__gnu_cxx16__aligned_membufIdE6_M_ptrEv @7391
    _ZNK9__gnu_cxx16__aligned_membufIdE7_M_addrEv @7392
    _ZNK9__gnu_cxx16__aligned_membufIiE6_M_ptrEv @7393
    _ZNK9__gnu_cxx16__aligned_membufIiE7_M_addrEv @7394
    _ZNK9__gnu_cxx17__normal_iteratorIPKNSt7__cxx1112basic_stringIcSt11char_traitsIcESaIcEEESt6vectorIS6_SaIS6_EEE4baseEv @7395
    _ZNK9__gnu_cxx17__normal_iteratorIPKNSt7__cxx1112basic_stringIcSt11char_traitsIcESaIcEEESt6vectorIS6_SaIS6_EEEdeEv @7396
    _ZNK9__gnu_cxx17__normal_iteratorIPKP14simpleFunctionIdESt6vectorIS3_SaIS3_EEE4baseEv @7397
    _ZNK9__gnu_cxx17__normal_iteratorIPKP8BDS_FaceSt6vectorIS2_SaIS2_EEE4baseEv @7398
    _ZNK9__gnu_cxx17__normal_iteratorIPKP9gLevelsetSt6vectorIS2_SaIS2_EEE4baseEv @7399
    _ZNK9__gnu_cxx17__normal_iteratorIPKSt6vectorIdSaIdEES1_IS3_SaIS3_EEE4baseEv @7400
    _ZNK9__gnu_cxx17__normal_iteratorIPKSt6vectorIdSaIdEES1_IS3_SaIS3_EEEdeEv @7401
    _ZNK9__gnu_cxx17__normal_iteratorIPKdSt6vectorIdSaIdEEE4baseEv @7402
    _ZNK9__gnu_cxx17__normal_iteratorIPKiSt6vectorIiSaIiEEE4baseEv @7403
    _ZNK9__gnu_cxx17__normal_iteratorIPNSt7__cxx1112basic_stringIcSt11char_traitsIcESaIcEEESt6vectorIS6_SaIS6_EEE4baseEv @7404
    _ZNK9__gnu_cxx17__normal_iteratorIPNSt7__cxx1112basic_stringIcSt11char_traitsIcESaIcEEESt6vectorIS6_SaIS6_EEEdeEv @7405
    _ZNK9__gnu_cxx17__normal_iteratorIPNSt7__cxx1112basic_stringIcSt11char_traitsIcESaIcEEESt6vectorIS6_SaIS6_EEEplEx @7406
    _ZNK9__gnu_cxx17__normal_iteratorIPP14simpleFunctionIdESt6vectorIS3_SaIS3_EEE4baseEv @7407
    _ZNK9__gnu_cxx17__normal_iteratorIPP7GVertexSt6vectorIS2_SaIS2_EEE4baseEv @7408
    _ZNK9__gnu_cxx17__normal_iteratorIPP8BDS_EdgeSt6vectorIS2_SaIS2_EEE4baseEv @7409
    _ZNK9__gnu_cxx17__normal_iteratorIPP8BDS_FaceSt6vectorIS2_SaIS2_EEE4baseEv @7410
    _ZNK9__gnu_cxx17__normal_iteratorIPP8BDS_FaceSt6vectorIS2_SaIS2_EEEdeEv @7411
    _ZNK9__gnu_cxx17__normal_iteratorIPP8BDS_FaceSt6vectorIS2_SaIS2_EEEplEx @7412
    _ZNK9__gnu_cxx17__normal_iteratorIPP9gLevelsetSt6vectorIS2_SaIS2_EEE4baseEv @7413
    _ZNK9__gnu_cxx17__normal_iteratorIPP9gLevelsetSt6vectorIS2_SaIS2_EEEplEx @7414
    _ZNK9__gnu_cxx17__normal_iteratorIPSt4pairIiiESt6vectorIS2_SaIS2_EEE4baseEv @7415
    _ZNK9__gnu_cxx17__normal_iteratorIPcSt6vectorIcSaIcEEE4baseEv @7416
    _ZNK9__gnu_cxx17__normal_iteratorIPdSt6vectorIdSaIdEEE4baseEv @7417
    _ZNK9__gnu_cxx17__normal_iteratorIPdSt6vectorIdSaIdEEEdeEv @7418
    _ZNK9__gnu_cxx17__normal_iteratorIPdSt6vectorIdSaIdEEEmiEx @7419
    _ZNK9__gnu_cxx17__normal_iteratorIPdSt6vectorIdSaIdEEEplEx @7420
    _ZNK9__gnu_cxx17__normal_iteratorIPiSt6vectorIiSaIiEEE4baseEv @7421
    _ZNK9__gnu_cxx17__normal_iteratorIPiSt6vectorIiSaIiEEEplEx @7422
    _ZNK9__gnu_cxx5__ops14_Iter_less_valclINS_17__normal_iteratorIPdSt6vectorIdSaIdEEEEdEEbT_RT0_ @7423
    _ZNK9__gnu_cxx5__ops14_Val_less_iterclIdNS_17__normal_iteratorIPdSt6vectorIdSaIdEEEEEEbRT_T0_ @7424
    _ZNK9__gnu_cxx5__ops15_Iter_less_iterclINS_17__normal_iteratorIPdSt6vectorIdSaIdEEEES8_EEbT_T0_ @7425
    _ZNK9__gnu_cxx5__ops19_Iter_equal_to_iterclINS_17__normal_iteratorIPdSt6vectorIdSaIdEEEES8_EEbT_T0_ @7426
    _ZNK9gLevelset11getChildrenEv @7427
    _ZNK9gLevelset11isPrimitiveEv @7428
    _ZNK9gLevelset4typeEv @7429
    _ZNK9gLevelset5cloneEv @7430
    _ZNK9gLevelset6chooseEdd @7431
    _ZNK9gLevelset6getTagEv @7432
    _ZNK9gLevelsetclEddd @7433
    _ZNK9nanoflann24KDTreeSingleIndexAdaptorINS_17L2_Simple_AdaptorId17PointCloudAdaptorI10PointCloudEdEES4_Li3EyE11searchLevelINS_12KNNResultSetIdyyEEEEbRT_PKdPNS6_4NodeEdRNS_6CArrayIdLy3EEEf @7434
    _ZNKSt10_List_nodeIP8BDS_EdgeE9_M_valptrEv @7435
    _ZNKSt10_List_nodeIP8BDS_FaceE9_M_valptrEv @7436
    _ZNKSt10_List_nodeIdE9_M_valptrEv @7437
    _ZNKSt10_List_nodeIiE9_M_valptrEv @7438
    _ZNKSt10_Select1stISt4pairIKNSt7__cxx1112basic_stringIcSt11char_traitsIcESaIcEEE13gmsh_yysymbolEEclERKS9_ @7439
    _ZNKSt10_Select1stISt4pairIKNSt7__cxx1112basic_stringIcSt11char_traitsIcESaIcEEE6StructEEclERKS9_ @7440
    _ZNKSt10_Select1stISt4pairIKNSt7__cxx1112basic_stringIcSt11char_traitsIcESaIcEEE7StructsEEclERKS9_ @7441
    _ZNKSt10_Select1stISt4pairIKNSt7__cxx1112basic_stringIcSt11char_traitsIcESaIcEEEP11FieldOptionEEclERKSA_ @7442
    _ZNKSt10_Select1stISt4pairIKNSt7__cxx1112basic_stringIcSt11char_traitsIcESaIcEEEP13FieldCallbackEEclERKSA_ @7443
    _ZNKSt10_Select1stISt4pairIKNSt7__cxx1112basic_stringIcSt11char_traitsIcESaIcEEESt6vectorIS6_SaIS6_EEEEclERKSB_ @7444
    _ZNKSt10_Select1stISt4pairIKNSt7__cxx1112basic_stringIcSt11char_traitsIcESaIcEEESt6vectorIS6_SaIS6_EEEEclERSB_ @7445
    _ZNKSt10_Select1stISt4pairIKNSt7__cxx1112basic_stringIcSt11char_traitsIcESaIcEEESt6vectorIdSaIdEEEEclERKSB_ @7446
    _ZNKSt10_Select1stISt4pairIKNSt7__cxx1112basic_stringIcSt11char_traitsIcESaIcEEESt6vectorIdSaIdEEEEclERSB_ @7447
    _ZNKSt10_Select1stISt4pairIKiS0_IdSt6vectorIiSaIiEEEEEclERKS6_ @7448
    _ZNKSt10_Select1stISt4pairIKiSt6vectorIP7GEntitySaIS4_EEEEclERKS7_ @7449
    _ZNKSt10_Select1stISt4pairIKiiEEclERKS2_ @7450
    _ZNKSt11_Deque_baseIP8BDS_FaceSaIS1_EE19_M_get_Tp_allocatorEv @7451
    _ZNKSt11_Deque_baseIP8BDS_FaceSaIS1_EE20_M_get_map_allocatorEv @7452
    _ZNKSt12_Vector_baseINSt7__cxx1112basic_stringIcSt11char_traitsIcESaIcEEESaIS5_EE13get_allocatorEv @7453
    _ZNKSt12_Vector_baseINSt7__cxx1112basic_stringIcSt11char_traitsIcESaIcEEESaIS5_EE19_M_get_Tp_allocatorEv @7454
    _ZNKSt12_Vector_baseIP14simpleFunctionIdESaIS2_EE19_M_get_Tp_allocatorEv @7455
    _ZNKSt12_Vector_baseIP7GVertexSaIS1_EE19_M_get_Tp_allocatorEv @7456
    _ZNKSt12_Vector_baseIP8BDS_EdgeSaIS1_EE19_M_get_Tp_allocatorEv @7457
    _ZNKSt12_Vector_baseIP8BDS_FaceSaIS1_EE19_M_get_Tp_allocatorEv @7458
    _ZNKSt12_Vector_baseIP9gLevelsetSaIS1_EE19_M_get_Tp_allocatorEv @7459
    _ZNKSt12_Vector_baseISt4pairIiiESaIS1_EE19_M_get_Tp_allocatorEv @7460
    _ZNKSt12_Vector_baseISt6vectorIdSaIdEESaIS2_EE19_M_get_Tp_allocatorEv @7461
    _ZNKSt12_Vector_baseIcSaIcEE19_M_get_Tp_allocatorEv @7462
    _ZNKSt12_Vector_baseIdSaIdEE19_M_get_Tp_allocatorEv @7463
    _ZNKSt12_Vector_baseIiSaIiEE19_M_get_Tp_allocatorEv @7464
    _ZNKSt13_Rb_tree_nodeI13EdgeToRecoverE9_M_valptrEv @7465
    _ZNKSt13_Rb_tree_nodeIP14BDS_GeomEntityE9_M_valptrEv @7466
    _ZNKSt13_Rb_tree_nodeIP5GEdgeE9_M_valptrEv @7467
    _ZNKSt13_Rb_tree_nodeIP5GFaceE9_M_valptrEv @7468
    _ZNKSt13_Rb_tree_nodeIP7GRegionE9_M_valptrEv @7469
    _ZNKSt13_Rb_tree_nodeIP7GVertexE9_M_valptrEv @7470
    _ZNKSt13_Rb_tree_nodeIP9BDS_PointE9_M_valptrEv @7471
    _ZNKSt13_Rb_tree_nodeISt4pairIKNSt7__cxx1112basic_stringIcSt11char_traitsIcESaIcEEE13gmsh_yysymbolEE9_M_valptrEv @7472
    _ZNKSt13_Rb_tree_nodeISt4pairIKNSt7__cxx1112basic_stringIcSt11char_traitsIcESaIcEEE6StructEE9_M_valptrEv @7473
    _ZNKSt13_Rb_tree_nodeISt4pairIKNSt7__cxx1112basic_stringIcSt11char_traitsIcESaIcEEE7StructsEE9_M_valptrEv @7474
    _ZNKSt13_Rb_tree_nodeISt4pairIKNSt7__cxx1112basic_stringIcSt11char_traitsIcESaIcEEEP11FieldOptionEE9_M_valptrEv @7475
    _ZNKSt13_Rb_tree_nodeISt4pairIKNSt7__cxx1112basic_stringIcSt11char_traitsIcESaIcEEEP13FieldCallbackEE9_M_valptrEv @7476
    _ZNKSt13_Rb_tree_nodeISt4pairIKNSt7__cxx1112basic_stringIcSt11char_traitsIcESaIcEEESt6vectorIS6_SaIS6_EEEE9_M_valptrEv @7477
    _ZNKSt13_Rb_tree_nodeISt4pairIKNSt7__cxx1112basic_stringIcSt11char_traitsIcESaIcEEESt6vectorIdSaIdEEEE9_M_valptrEv @7478
    _ZNKSt13_Rb_tree_nodeISt4pairIKiS0_IdSt6vectorIiSaIiEEEEE9_M_valptrEv @7479
    _ZNKSt13_Rb_tree_nodeISt4pairIKiSt6vectorIP7GEntitySaIS4_EEEE9_M_valptrEv @7480
    _ZNKSt13_Rb_tree_nodeISt4pairIKiiEE9_M_valptrEv @7481
    _ZNKSt13move_iteratorIPNSt7__cxx1112basic_stringIcSt11char_traitsIcESaIcEEEE4baseEv @7482
    _ZNKSt13move_iteratorIPNSt7__cxx1112basic_stringIcSt11char_traitsIcESaIcEEEEdeEv @7483
    _ZNKSt13move_iteratorIPP14simpleFunctionIdEE4baseEv @7484
    _ZNKSt13move_iteratorIPP7GVertexE4baseEv @7485
    _ZNKSt13move_iteratorIPP8BDS_EdgeE4baseEv @7486
    _ZNKSt13move_iteratorIPP8BDS_FaceE4baseEv @7487
    _ZNKSt13move_iteratorIPP9gLevelsetE4baseEv @7488
    _ZNKSt13move_iteratorIPSt4pairIiiEE4baseEv @7489
    _ZNKSt13move_iteratorIPSt4pairIiiEEdeEv @7490
    _ZNKSt13move_iteratorIPSt6vectorIdSaIdEEE4baseEv @7491
    _ZNKSt13move_iteratorIPSt6vectorIdSaIdEEEdeEv @7492
    _ZNKSt13move_iteratorIPcE4baseEv @7493
    _ZNKSt13move_iteratorIPdE4baseEv @7494
    _ZNKSt13move_iteratorIPiE4baseEv @7495
    _ZNKSt14_List_iteratorIP8BDS_EdgeEdeEv @7496
    _ZNKSt14_List_iteratorIP8BDS_FaceEdeEv @7497
    _ZNKSt15_Deque_iteratorIP8BDS_FaceRS1_PS1_EdeEv @7498
    _ZNKSt17_Rb_tree_iteratorISt4pairIKNSt7__cxx1112basic_stringIcSt11char_traitsIcESaIcEEE13gmsh_yysymbolEEdeEv @7499
    _ZNKSt17_Rb_tree_iteratorISt4pairIKNSt7__cxx1112basic_stringIcSt11char_traitsIcESaIcEEE13gmsh_yysymbolEEptEv @7500
    _ZNKSt17_Rb_tree_iteratorISt4pairIKNSt7__cxx1112basic_stringIcSt11char_traitsIcESaIcEEE6StructEEdeEv @7501
    _ZNKSt17_Rb_tree_iteratorISt4pairIKNSt7__cxx1112basic_stringIcSt11char_traitsIcESaIcEEE7StructsEEdeEv @7502
    _ZNKSt17_Rb_tree_iteratorISt4pairIKNSt7__cxx1112basic_stringIcSt11char_traitsIcESaIcEEE7StructsEEptEv @7503
    _ZNKSt17_Rb_tree_iteratorISt4pairIKNSt7__cxx1112basic_stringIcSt11char_traitsIcESaIcEEEP11FieldOptionEEdeEv @7504
    _ZNKSt17_Rb_tree_iteratorISt4pairIKNSt7__cxx1112basic_stringIcSt11char_traitsIcESaIcEEEP13FieldCallbackEEdeEv @7505
    _ZNKSt17_Rb_tree_iteratorISt4pairIKNSt7__cxx1112basic_stringIcSt11char_traitsIcESaIcEEESt6vectorIS6_SaIS6_EEEEdeEv @7506
    _ZNKSt17_Rb_tree_iteratorISt4pairIKNSt7__cxx1112basic_stringIcSt11char_traitsIcESaIcEEESt6vectorIS6_SaIS6_EEEEptEv @7507
    _ZNKSt17_Rb_tree_iteratorISt4pairIKNSt7__cxx1112basic_stringIcSt11char_traitsIcESaIcEEESt6vectorIdSaIdEEEEdeEv @7508
    _ZNKSt17_Rb_tree_iteratorISt4pairIKiS0_IdSt6vectorIiSaIiEEEEEdeEv @7509
    _ZNKSt17_Rb_tree_iteratorISt4pairIKiSt6vectorIP7GEntitySaIS4_EEEEptEv @7510
    _ZNKSt17_Rb_tree_iteratorISt4pairIKiiEEdeEv @7511
    _ZNKSt20_List_const_iteratorIP8BDS_EdgeE13_M_const_castEv @7512
    _ZNKSt20_List_const_iteratorIP8BDS_EdgeEdeEv @7513
    _ZNKSt20_List_const_iteratorIP8BDS_FaceE13_M_const_castEv @7514
    _ZNKSt20_List_const_iteratorIP8BDS_FaceEdeEv @7515
    _ZNKSt20_List_const_iteratorIdEdeEv @7516
    _ZNKSt20_List_const_iteratorIiEdeEv @7517
    _ZNKSt23_Rb_tree_const_iteratorI13EdgeToRecoverEptEv @7518
    _ZNKSt23_Rb_tree_const_iteratorIP14BDS_GeomEntityEdeEv @7519
    _ZNKSt23_Rb_tree_const_iteratorIP5GEdgeEdeEv @7520
    _ZNKSt23_Rb_tree_const_iteratorIP5GFaceEdeEv @7521
    _ZNKSt23_Rb_tree_const_iteratorIP7GRegionEdeEv @7522
    _ZNKSt23_Rb_tree_const_iteratorIP7GVertexEdeEv @7523
    _ZNKSt23_Rb_tree_const_iteratorIP9BDS_PointEdeEv @7524
    _ZNKSt23_Rb_tree_const_iteratorISt4pairIKNSt7__cxx1112basic_stringIcSt11char_traitsIcESaIcEEE13gmsh_yysymbolEE13_M_const_castEv @7525
    _ZNKSt23_Rb_tree_const_iteratorISt4pairIKNSt7__cxx1112basic_stringIcSt11char_traitsIcESaIcEEE6StructEE13_M_const_castEv @7526
    _ZNKSt23_Rb_tree_const_iteratorISt4pairIKNSt7__cxx1112basic_stringIcSt11char_traitsIcESaIcEEE6StructEEptEv @7527
    _ZNKSt23_Rb_tree_const_iteratorISt4pairIKNSt7__cxx1112basic_stringIcSt11char_traitsIcESaIcEEE7StructsEE13_M_const_castEv @7528
    _ZNKSt23_Rb_tree_const_iteratorISt4pairIKNSt7__cxx1112basic_stringIcSt11char_traitsIcESaIcEEE7StructsEEptEv @7529
    _ZNKSt23_Rb_tree_const_iteratorISt4pairIKNSt7__cxx1112basic_stringIcSt11char_traitsIcESaIcEEEP11FieldOptionEE13_M_const_castEv @7530
    _ZNKSt23_Rb_tree_const_iteratorISt4pairIKNSt7__cxx1112basic_stringIcSt11char_traitsIcESaIcEEEP13FieldCallbackEE13_M_const_castEv @7531
    _ZNKSt23_Rb_tree_const_iteratorISt4pairIKNSt7__cxx1112basic_stringIcSt11char_traitsIcESaIcEEESt6vectorIS6_SaIS6_EEEE13_M_const_castEv @7532
    _ZNKSt23_Rb_tree_const_iteratorISt4pairIKNSt7__cxx1112basic_stringIcSt11char_traitsIcESaIcEEESt6vectorIS6_SaIS6_EEEEptEv @7533
    _ZNKSt23_Rb_tree_const_iteratorISt4pairIKNSt7__cxx1112basic_stringIcSt11char_traitsIcESaIcEEESt6vectorIdSaIdEEEE13_M_const_castEv @7534
    _ZNKSt23_Rb_tree_const_iteratorISt4pairIKNSt7__cxx1112basic_stringIcSt11char_traitsIcESaIcEEESt6vectorIdSaIdEEEEptEv @7535
    _ZNKSt23_Rb_tree_const_iteratorISt4pairIKiS0_IdSt6vectorIiSaIiEEEEE13_M_const_castEv @7536
    _ZNKSt23_Rb_tree_const_iteratorISt4pairIKiiEE13_M_const_castEv @7537
    _ZNKSt23_Rb_tree_const_iteratorISt4pairIKiiEEptEv @7538
    _ZNKSt3mapINSt7__cxx1112basic_stringIcSt11char_traitsIcESaIcEEE13gmsh_yysymbolSt4lessIS5_ESaISt4pairIKS5_S6_EEE5countERSA_ @7539
    _ZNKSt3mapINSt7__cxx1112basic_stringIcSt11char_traitsIcESaIcEEE13gmsh_yysymbolSt4lessIS5_ESaISt4pairIKS5_S6_EEE8key_compEv @7540
    _ZNKSt3mapINSt7__cxx1112basic_stringIcSt11char_traitsIcESaIcEEE6StructSt4lessIS5_ESaISt4pairIKS5_S6_EEE3endEv @7541
    _ZNKSt3mapINSt7__cxx1112basic_stringIcSt11char_traitsIcESaIcEEE6StructSt4lessIS5_ESaISt4pairIKS5_S6_EEE4findERSA_ @7542
    _ZNKSt3mapINSt7__cxx1112basic_stringIcSt11char_traitsIcESaIcEEE6StructSt4lessIS5_ESaISt4pairIKS5_S6_EEE4sizeEv @7543
    _ZNKSt3mapINSt7__cxx1112basic_stringIcSt11char_traitsIcESaIcEEE6StructSt4lessIS5_ESaISt4pairIKS5_S6_EEE5beginEv @7544
    _ZNKSt3mapINSt7__cxx1112basic_stringIcSt11char_traitsIcESaIcEEE6StructSt4lessIS5_ESaISt4pairIKS5_S6_EEE5countERSA_ @7545
    _ZNKSt3mapINSt7__cxx1112basic_stringIcSt11char_traitsIcESaIcEEE6StructSt4lessIS5_ESaISt4pairIKS5_S6_EEE8key_compEv @7546
    _ZNKSt3mapINSt7__cxx1112basic_stringIcSt11char_traitsIcESaIcEEE7StructsSt4lessIS5_ESaISt4pairIKS5_S6_EEE3endEv @7547
    _ZNKSt3mapINSt7__cxx1112basic_stringIcSt11char_traitsIcESaIcEEE7StructsSt4lessIS5_ESaISt4pairIKS5_S6_EEE4findERSA_ @7548
    _ZNKSt3mapINSt7__cxx1112basic_stringIcSt11char_traitsIcESaIcEEE7StructsSt4lessIS5_ESaISt4pairIKS5_S6_EEE4sizeEv @7549
    _ZNKSt3mapINSt7__cxx1112basic_stringIcSt11char_traitsIcESaIcEEE7StructsSt4lessIS5_ESaISt4pairIKS5_S6_EEE5beginEv @7550
    _ZNKSt3mapINSt7__cxx1112basic_stringIcSt11char_traitsIcESaIcEEE7StructsSt4lessIS5_ESaISt4pairIKS5_S6_EEE8key_compEv @7551
    _ZNKSt3mapINSt7__cxx1112basic_stringIcSt11char_traitsIcESaIcEEEP11FieldOptionSt4lessIS5_ESaISt4pairIKS5_S7_EEE8key_compEv @7552
    _ZNKSt3mapINSt7__cxx1112basic_stringIcSt11char_traitsIcESaIcEEEP13FieldCallbackSt4lessIS5_ESaISt4pairIKS5_S7_EEE8key_compEv @7553
    _ZNKSt3mapINSt7__cxx1112basic_stringIcSt11char_traitsIcESaIcEEESt6vectorIS5_SaIS5_EESt4lessIS5_ESaISt4pairIKS5_S8_EEE3endEv @7554
    _ZNKSt3mapINSt7__cxx1112basic_stringIcSt11char_traitsIcESaIcEEESt6vectorIS5_SaIS5_EESt4lessIS5_ESaISt4pairIKS5_S8_EEE4findERSC_ @7555
    _ZNKSt3mapINSt7__cxx1112basic_stringIcSt11char_traitsIcESaIcEEESt6vectorIS5_SaIS5_EESt4lessIS5_ESaISt4pairIKS5_S8_EEE5beginEv @7556
    _ZNKSt3mapINSt7__cxx1112basic_stringIcSt11char_traitsIcESaIcEEESt6vectorIS5_SaIS5_EESt4lessIS5_ESaISt4pairIKS5_S8_EEE5countERSC_ @7557
    _ZNKSt3mapINSt7__cxx1112basic_stringIcSt11char_traitsIcESaIcEEESt6vectorIS5_SaIS5_EESt4lessIS5_ESaISt4pairIKS5_S8_EEE8key_compEv @7558
    _ZNKSt3mapINSt7__cxx1112basic_stringIcSt11char_traitsIcESaIcEEESt6vectorIdSaIdEESt4lessIS5_ESaISt4pairIKS5_S8_EEE3endEv @7559
    _ZNKSt3mapINSt7__cxx1112basic_stringIcSt11char_traitsIcESaIcEEESt6vectorIdSaIdEESt4lessIS5_ESaISt4pairIKS5_S8_EEE4findERSC_ @7560
    _ZNKSt3mapINSt7__cxx1112basic_stringIcSt11char_traitsIcESaIcEEESt6vectorIdSaIdEESt4lessIS5_ESaISt4pairIKS5_S8_EEE5beginEv @7561
    _ZNKSt3mapINSt7__cxx1112basic_stringIcSt11char_traitsIcESaIcEEESt6vectorIdSaIdEESt4lessIS5_ESaISt4pairIKS5_S8_EEE8key_compEv @7562
    _ZNKSt3mapIiSt4pairIdSt6vectorIiSaIiEEESt4lessIiESaIS0_IKiS4_EEE8key_compEv @7563
    _ZNKSt3mapIiiSt4lessIiESaISt4pairIKiiEEE3endEv @7564
    _ZNKSt3mapIiiSt4lessIiESaISt4pairIKiiEEE5beginEv @7565
    _ZNKSt3mapIiiSt4lessIiESaISt4pairIKiiEEE8key_compEv @7566
    _ZNKSt3setI13EdgeToRecoverSt4lessIS0_ESaIS0_EE3endEv @7567
    _ZNKSt3setIP14BDS_GeomEntity12GeomLessThanSaIS1_EE3endEv @7568
    _ZNKSt3setIP14BDS_GeomEntity12GeomLessThanSaIS1_EE5beginEv @7569
    _ZNKSt3setIP5GEdge15GEntityLessThanSaIS1_EE3endEv @7570
    _ZNKSt3setIP5GEdge15GEntityLessThanSaIS1_EE5beginEv @7571
    _ZNKSt3setIP5GFace15GEntityLessThanSaIS1_EE3endEv @7572
    _ZNKSt3setIP5GFace15GEntityLessThanSaIS1_EE5beginEv @7573
    _ZNKSt3setIP7GRegion15GEntityLessThanSaIS1_EE3endEv @7574
    _ZNKSt3setIP7GRegion15GEntityLessThanSaIS1_EE5beginEv @7575
    _ZNKSt3setIP7GVertex15GEntityLessThanSaIS1_EE3endEv @7576
    _ZNKSt3setIP7GVertex15GEntityLessThanSaIS1_EE5beginEv @7577
    _ZNKSt3setIP9BDS_Point13PointLessThanSaIS1_EE3endEv @7578
    _ZNKSt3setIP9BDS_Point13PointLessThanSaIS1_EE5beginEv @7579
    _ZNKSt4lessI13EdgeToRecoverEclERKS0_S3_ @7580
    _ZNKSt4lessINSt7__cxx1112basic_stringIcSt11char_traitsIcESaIcEEEEclERKS5_S8_ @7581
    _ZNKSt4lessIiEclERKiS2_ @7582
    _ZNKSt5ctypeIcE8do_widenEc @7583
    _ZNKSt5dequeIP8BDS_FaceSaIS1_EE4sizeEv @7584
    _ZNKSt5dequeIP8BDS_FaceSaIS1_EE5emptyEv @7585
    _ZNKSt5dequeIP8BDS_FaceSaIS1_EE8max_sizeEv @7586
    _ZNKSt5stackIP8BDS_FaceSt5dequeIS1_SaIS1_EEE5emptyEv @7587
    _ZNKSt6vectorINSt7__cxx1112basic_stringIcSt11char_traitsIcESaIcEEESaIS5_EE12_M_check_lenEyPKc @7588
    _ZNKSt6vectorINSt7__cxx1112basic_stringIcSt11char_traitsIcESaIcEEESaIS5_EE14_M_range_checkEy @7589
    _ZNKSt6vectorINSt7__cxx1112basic_stringIcSt11char_traitsIcESaIcEEESaIS5_EE2atEy @7590
    _ZNKSt6vectorINSt7__cxx1112basic_stringIcSt11char_traitsIcESaIcEEESaIS5_EE3endEv @7591
    _ZNKSt6vectorINSt7__cxx1112basic_stringIcSt11char_traitsIcESaIcEEESaIS5_EE4sizeEv @7592
    _ZNKSt6vectorINSt7__cxx1112basic_stringIcSt11char_traitsIcESaIcEEESaIS5_EE5beginEv @7593
    _ZNKSt6vectorINSt7__cxx1112basic_stringIcSt11char_traitsIcESaIcEEESaIS5_EE6cbeginEv @7594
    _ZNKSt6vectorINSt7__cxx1112basic_stringIcSt11char_traitsIcESaIcEEESaIS5_EE8capacityEv @7595
    _ZNKSt6vectorINSt7__cxx1112basic_stringIcSt11char_traitsIcESaIcEEESaIS5_EE8max_sizeEv @7596
    _ZNKSt6vectorINSt7__cxx1112basic_stringIcSt11char_traitsIcESaIcEEESaIS5_EEixEy @7597
    _ZNKSt6vectorIP14simpleFunctionIdESaIS2_EE12_M_check_lenEyPKc @7598
    _ZNKSt6vectorIP14simpleFunctionIdESaIS2_EE3endEv @7599
    _ZNKSt6vectorIP14simpleFunctionIdESaIS2_EE4sizeEv @7600
    _ZNKSt6vectorIP14simpleFunctionIdESaIS2_EE5beginEv @7601
    _ZNKSt6vectorIP14simpleFunctionIdESaIS2_EE8max_sizeEv @7602
    _ZNKSt6vectorIP5PViewSaIS1_EE4sizeEv @7603
    _ZNKSt6vectorIP6GModelSaIS1_EE4sizeEv @7604
    _ZNKSt6vectorIP7GEntitySaIS1_EE4sizeEv @7605
    _ZNKSt6vectorIP7GVertexSaIS1_EE12_M_check_lenEyPKc @7606
    _ZNKSt6vectorIP7GVertexSaIS1_EE4sizeEv @7607
    _ZNKSt6vectorIP7GVertexSaIS1_EE8max_sizeEv @7608
    _ZNKSt6vectorIP8BDS_EdgeSaIS1_EE12_M_check_lenEyPKc @7609
    _ZNKSt6vectorIP8BDS_EdgeSaIS1_EE4sizeEv @7610
    _ZNKSt6vectorIP8BDS_EdgeSaIS1_EE8max_sizeEv @7611
    _ZNKSt6vectorIP8BDS_FaceSaIS1_EE12_M_check_lenEyPKc @7612
    _ZNKSt6vectorIP8BDS_FaceSaIS1_EE4sizeEv @7613
    _ZNKSt6vectorIP8BDS_FaceSaIS1_EE6cbeginEv @7614
    _ZNKSt6vectorIP8BDS_FaceSaIS1_EE8max_sizeEv @7615
    _ZNKSt6vectorIP8BDS_FaceSaIS1_EEixEy @7616
    _ZNKSt6vectorIP9gLevelsetSaIS1_EE12_M_check_lenEyPKc @7617
    _ZNKSt6vectorIP9gLevelsetSaIS1_EE3endEv @7618
    _ZNKSt6vectorIP9gLevelsetSaIS1_EE4sizeEv @7619
    _ZNKSt6vectorIP9gLevelsetSaIS1_EE5beginEv @7620
    _ZNKSt6vectorIP9gLevelsetSaIS1_EE8capacityEv @7621
    _ZNKSt6vectorIP9gLevelsetSaIS1_EE8max_sizeEv @7622
    _ZNKSt6vectorIP9gLevelsetSaIS1_EEixEy @7623
    _ZNKSt6vectorIS_IdSaIdEESaIS1_EE12_M_check_lenEyPKc @7624
    _ZNKSt6vectorIS_IdSaIdEESaIS1_EE3endEv @7625
    _ZNKSt6vectorIS_IdSaIdEESaIS1_EE4sizeEv @7626
    _ZNKSt6vectorIS_IdSaIdEESaIS1_EE5beginEv @7627
    _ZNKSt6vectorIS_IdSaIdEESaIS1_EE8max_sizeEv @7628
    _ZNKSt6vectorISt4pairIiiESaIS1_EE12_M_check_lenEyPKc @7629
    _ZNKSt6vectorISt4pairIiiESaIS1_EE4sizeEv @7630
    _ZNKSt6vectorISt4pairIiiESaIS1_EE8max_sizeEv @7631
    _ZNKSt6vectorISt4pairIiiESaIS1_EEixEy @7632
    _ZNKSt6vectorIcSaIcEE12_M_check_lenEyPKc @7633
    _ZNKSt6vectorIcSaIcEE4sizeEv @7634
    _ZNKSt6vectorIcSaIcEE8max_sizeEv @7635
    _ZNKSt6vectorIdSaIdEE12_M_check_lenEyPKc @7636
    _ZNKSt6vectorIdSaIdEE14_M_range_checkEy @7637
    _ZNKSt6vectorIdSaIdEE2atEy @7638
    _ZNKSt6vectorIdSaIdEE3endEv @7639
    _ZNKSt6vectorIdSaIdEE4sizeEv @7640
    _ZNKSt6vectorIdSaIdEE5beginEv @7641
    _ZNKSt6vectorIdSaIdEE5emptyEv @7642
    _ZNKSt6vectorIdSaIdEE6cbeginEv @7643
    _ZNKSt6vectorIdSaIdEE8capacityEv @7644
    _ZNKSt6vectorIdSaIdEE8max_sizeEv @7645
    _ZNKSt6vectorIdSaIdEEixEy @7646
    _ZNKSt6vectorIiSaIiEE12_M_check_lenEyPKc @7647
    _ZNKSt6vectorIiSaIiEE3endEv @7648
    _ZNKSt6vectorIiSaIiEE4sizeEv @7649
    _ZNKSt6vectorIiSaIiEE5beginEv @7650
    _ZNKSt6vectorIiSaIiEE5emptyEv @7651
    _ZNKSt6vectorIiSaIiEE8capacityEv @7652
    _ZNKSt6vectorIiSaIiEE8max_sizeEv @7653
    _ZNKSt7__cxx1110_List_baseIP8BDS_EdgeSaIS2_EE11_M_get_sizeEv @7654
    _ZNKSt7__cxx1110_List_baseIP8BDS_EdgeSaIS2_EE21_M_get_Node_allocatorEv @7655
    _ZNKSt7__cxx1110_List_baseIP8BDS_FaceSaIS2_EE21_M_get_Node_allocatorEv @7656
    _ZNKSt7__cxx1110_List_baseIdSaIdEE21_M_get_Node_allocatorEv @7657
    _ZNKSt7__cxx1110_List_baseIiSaIiEE21_M_get_Node_allocatorEv @7658
    _ZNKSt7__cxx114listIP8BDS_EdgeSaIS2_EE13_M_node_countEv @7659
    _ZNKSt7__cxx114listIP8BDS_EdgeSaIS2_EE3endEv @7660
    _ZNKSt7__cxx114listIP8BDS_EdgeSaIS2_EE4sizeEv @7661
    _ZNKSt7__cxx114listIP8BDS_EdgeSaIS2_EE5beginEv @7662
    _ZNKSt7__cxx114listIP8BDS_FaceSaIS2_EE3endEv @7663
    _ZNKSt7__cxx114listIP8BDS_FaceSaIS2_EE5beginEv @7664
    _ZNKSt7__cxx114listIdSaIdEE3endEv @7665
    _ZNKSt7__cxx114listIdSaIdEE5beginEv @7666
    _ZNKSt7__cxx114listIiSaIiEE3endEv @7667
    _ZNKSt7__cxx114listIiSaIiEE5beginEv @7668
    _ZNKSt8_Rb_treeI13EdgeToRecoverS0_St9_IdentityIS0_ESt4lessIS0_ESaIS0_EE11_Alloc_nodeclIS0_EEPSt13_Rb_tree_nodeIS0_EOT_ @7669
    _ZNKSt8_Rb_treeI13EdgeToRecoverS0_St9_IdentityIS0_ESt4lessIS0_ESaIS0_EE3endEv @7670
    _ZNKSt8_Rb_treeI5MEdgeSt4pairIKS0_8SVector3ESt10_Select1stIS4_E9Less_EdgeSaIS4_EE11equal_rangeERS2_ @7671
    _ZNKSt8_Rb_treeI5MFaceSt4pairIKS0_P8MElementESt10_Select1stIS5_E9Less_FaceSaIS5_EE11equal_rangeERS2_ @7672
    _ZNKSt8_Rb_treeINSt7__cxx1112basic_stringIcSt11char_traitsIcESaIcEEESt4pairIKS5_13gmsh_yysymbolESt10_Select1stIS9_ESt4lessIS5_ESaIS9_EE14_M_lower_boundEPKSt13_Rb_tree_nodeIS9_EPKSt18_Rb_tree_node_baseRS7_ @7673
    _ZNKSt8_Rb_treeINSt7__cxx1112basic_stringIcSt11char_traitsIcESaIcEEESt4pairIKS5_13gmsh_yysymbolESt10_Select1stIS9_ESt4lessIS5_ESaIS9_EE3endEv @7674
    _ZNKSt8_Rb_treeINSt7__cxx1112basic_stringIcSt11char_traitsIcESaIcEEESt4pairIKS5_13gmsh_yysymbolESt10_Select1stIS9_ESt4lessIS5_ESaIS9_EE4findERS7_ @7675
    _ZNKSt8_Rb_treeINSt7__cxx1112basic_stringIcSt11char_traitsIcESaIcEEESt4pairIKS5_13gmsh_yysymbolESt10_Select1stIS9_ESt4lessIS5_ESaIS9_EE4sizeEv @7676
    _ZNKSt8_Rb_treeINSt7__cxx1112basic_stringIcSt11char_traitsIcESaIcEEESt4pairIKS5_13gmsh_yysymbolESt10_Select1stIS9_ESt4lessIS5_ESaIS9_EE6_M_endEv @7677
    _ZNKSt8_Rb_treeINSt7__cxx1112basic_stringIcSt11char_traitsIcESaIcEEESt4pairIKS5_13gmsh_yysymbolESt10_Select1stIS9_ESt4lessIS5_ESaIS9_EE8_M_beginEv @7678
    _ZNKSt8_Rb_treeINSt7__cxx1112basic_stringIcSt11char_traitsIcESaIcEEESt4pairIKS5_13gmsh_yysymbolESt10_Select1stIS9_ESt4lessIS5_ESaIS9_EE8key_compEv @7679
    _ZNKSt8_Rb_treeINSt7__cxx1112basic_stringIcSt11char_traitsIcESaIcEEESt4pairIKS5_6StructESt10_Select1stIS9_ESt4lessIS5_ESaIS9_EE14_M_lower_boundEPKSt13_Rb_tree_nodeIS9_EPKSt18_Rb_tree_node_baseRS7_ @7680
    _ZNKSt8_Rb_treeINSt7__cxx1112basic_stringIcSt11char_traitsIcESaIcEEESt4pairIKS5_6StructESt10_Select1stIS9_ESt4lessIS5_ESaIS9_EE3endEv @7681
    _ZNKSt8_Rb_treeINSt7__cxx1112basic_stringIcSt11char_traitsIcESaIcEEESt4pairIKS5_6StructESt10_Select1stIS9_ESt4lessIS5_ESaIS9_EE4findERS7_ @7682
    _ZNKSt8_Rb_treeINSt7__cxx1112basic_stringIcSt11char_traitsIcESaIcEEESt4pairIKS5_6StructESt10_Select1stIS9_ESt4lessIS5_ESaIS9_EE4sizeEv @7683
    _ZNKSt8_Rb_treeINSt7__cxx1112basic_stringIcSt11char_traitsIcESaIcEEESt4pairIKS5_6StructESt10_Select1stIS9_ESt4lessIS5_ESaIS9_EE5beginEv @7684
    _ZNKSt8_Rb_treeINSt7__cxx1112basic_stringIcSt11char_traitsIcESaIcEEESt4pairIKS5_6StructESt10_Select1stIS9_ESt4lessIS5_ESaIS9_EE6_M_endEv @7685
    _ZNKSt8_Rb_treeINSt7__cxx1112basic_stringIcSt11char_traitsIcESaIcEEESt4pairIKS5_6StructESt10_Select1stIS9_ESt4lessIS5_ESaIS9_EE8_M_beginEv @7686
    _ZNKSt8_Rb_treeINSt7__cxx1112basic_stringIcSt11char_traitsIcESaIcEEESt4pairIKS5_6StructESt10_Select1stIS9_ESt4lessIS5_ESaIS9_EE8key_compEv @7687
    _ZNKSt8_Rb_treeINSt7__cxx1112basic_stringIcSt11char_traitsIcESaIcEEESt4pairIKS5_7StructsESt10_Select1stIS9_ESt4lessIS5_ESaIS9_EE14_M_lower_boundEPKSt13_Rb_tree_nodeIS9_EPKSt18_Rb_tree_node_baseRS7_ @7688
    _ZNKSt8_Rb_treeINSt7__cxx1112basic_stringIcSt11char_traitsIcESaIcEEESt4pairIKS5_7StructsESt10_Select1stIS9_ESt4lessIS5_ESaIS9_EE3endEv @7689
    _ZNKSt8_Rb_treeINSt7__cxx1112basic_stringIcSt11char_traitsIcESaIcEEESt4pairIKS5_7StructsESt10_Select1stIS9_ESt4lessIS5_ESaIS9_EE4findERS7_ @7690
    _ZNKSt8_Rb_treeINSt7__cxx1112basic_stringIcSt11char_traitsIcESaIcEEESt4pairIKS5_7StructsESt10_Select1stIS9_ESt4lessIS5_ESaIS9_EE4sizeEv @7691
    _ZNKSt8_Rb_treeINSt7__cxx1112basic_stringIcSt11char_traitsIcESaIcEEESt4pairIKS5_7StructsESt10_Select1stIS9_ESt4lessIS5_ESaIS9_EE5beginEv @7692
    _ZNKSt8_Rb_treeINSt7__cxx1112basic_stringIcSt11char_traitsIcESaIcEEESt4pairIKS5_7StructsESt10_Select1stIS9_ESt4lessIS5_ESaIS9_EE6_M_endEv @7693
    _ZNKSt8_Rb_treeINSt7__cxx1112basic_stringIcSt11char_traitsIcESaIcEEESt4pairIKS5_7StructsESt10_Select1stIS9_ESt4lessIS5_ESaIS9_EE8_M_beginEv @7694
    _ZNKSt8_Rb_treeINSt7__cxx1112basic_stringIcSt11char_traitsIcESaIcEEESt4pairIKS5_7StructsESt10_Select1stIS9_ESt4lessIS5_ESaIS9_EE8key_compEv @7695
    _ZNKSt8_Rb_treeINSt7__cxx1112basic_stringIcSt11char_traitsIcESaIcEEESt4pairIKS5_P11FieldOptionESt10_Select1stISA_ESt4lessIS5_ESaISA_EE4sizeEv @7696
    _ZNKSt8_Rb_treeINSt7__cxx1112basic_stringIcSt11char_traitsIcESaIcEEESt4pairIKS5_P11FieldOptionESt10_Select1stISA_ESt4lessIS5_ESaISA_EE8key_compEv @7697
    _ZNKSt8_Rb_treeINSt7__cxx1112basic_stringIcSt11char_traitsIcESaIcEEESt4pairIKS5_P13FieldCallbackESt10_Select1stISA_ESt4lessIS5_ESaISA_EE4sizeEv @7698
    _ZNKSt8_Rb_treeINSt7__cxx1112basic_stringIcSt11char_traitsIcESaIcEEESt4pairIKS5_P13FieldCallbackESt10_Select1stISA_ESt4lessIS5_ESaISA_EE8key_compEv @7699
    _ZNKSt8_Rb_treeINSt7__cxx1112basic_stringIcSt11char_traitsIcESaIcEEESt4pairIKS5_St6vectorIS5_SaIS5_EEESt10_Select1stISB_ESt4lessIS5_ESaISB_EE11_Alloc_nodeclIRKSB_EEPSt13_Rb_tree_nodeISB_EOT_ @7700
    _ZNKSt8_Rb_treeINSt7__cxx1112basic_stringIcSt11char_traitsIcESaIcEEESt4pairIKS5_St6vectorIS5_SaIS5_EEESt10_Select1stISB_ESt4lessIS5_ESaISB_EE11_Alloc_nodeclIRSB_EEPSt13_Rb_tree_nodeISB_EOT_ @7701
    _ZNKSt8_Rb_treeINSt7__cxx1112basic_stringIcSt11char_traitsIcESaIcEEESt4pairIKS5_St6vectorIS5_SaIS5_EEESt10_Select1stISB_ESt4lessIS5_ESaISB_EE14_M_lower_boundEPKSt13_Rb_tree_nodeISB_EPKSt18_Rb_tree_node_baseRS7_ @7702
    _ZNKSt8_Rb_treeINSt7__cxx1112basic_stringIcSt11char_traitsIcESaIcEEESt4pairIKS5_St6vectorIS5_SaIS5_EEESt10_Select1stISB_ESt4lessIS5_ESaISB_EE21_M_get_Node_allocatorEv @7703
    _ZNKSt8_Rb_treeINSt7__cxx1112basic_stringIcSt11char_traitsIcESaIcEEESt4pairIKS5_St6vectorIS5_SaIS5_EEESt10_Select1stISB_ESt4lessIS5_ESaISB_EE3endEv @7704
    _ZNKSt8_Rb_treeINSt7__cxx1112basic_stringIcSt11char_traitsIcESaIcEEESt4pairIKS5_St6vectorIS5_SaIS5_EEESt10_Select1stISB_ESt4lessIS5_ESaISB_EE4findERS7_ @7705
    _ZNKSt8_Rb_treeINSt7__cxx1112basic_stringIcSt11char_traitsIcESaIcEEESt4pairIKS5_St6vectorIS5_SaIS5_EEESt10_Select1stISB_ESt4lessIS5_ESaISB_EE4sizeEv @7706
    _ZNKSt8_Rb_treeINSt7__cxx1112basic_stringIcSt11char_traitsIcESaIcEEESt4pairIKS5_St6vectorIS5_SaIS5_EEESt10_Select1stISB_ESt4lessIS5_ESaISB_EE5beginEv @7707
    _ZNKSt8_Rb_treeINSt7__cxx1112basic_stringIcSt11char_traitsIcESaIcEEESt4pairIKS5_St6vectorIS5_SaIS5_EEESt10_Select1stISB_ESt4lessIS5_ESaISB_EE6_M_endEv @7708
    _ZNKSt8_Rb_treeINSt7__cxx1112basic_stringIcSt11char_traitsIcESaIcEEESt4pairIKS5_St6vectorIS5_SaIS5_EEESt10_Select1stISB_ESt4lessIS5_ESaISB_EE7_M_rootEv @7709
    _ZNKSt8_Rb_treeINSt7__cxx1112basic_stringIcSt11char_traitsIcESaIcEEESt4pairIKS5_St6vectorIS5_SaIS5_EEESt10_Select1stISB_ESt4lessIS5_ESaISB_EE8_M_beginEv @7710
    _ZNKSt8_Rb_treeINSt7__cxx1112basic_stringIcSt11char_traitsIcESaIcEEESt4pairIKS5_St6vectorIS5_SaIS5_EEESt10_Select1stISB_ESt4lessIS5_ESaISB_EE8key_compEv @7711
    _ZNKSt8_Rb_treeINSt7__cxx1112basic_stringIcSt11char_traitsIcESaIcEEESt4pairIKS5_St6vectorIdSaIdEEESt10_Select1stISB_ESt4lessIS5_ESaISB_EE11_Alloc_nodeclIRKSB_EEPSt13_Rb_tree_nodeISB_EOT_ @7712
    _ZNKSt8_Rb_treeINSt7__cxx1112basic_stringIcSt11char_traitsIcESaIcEEESt4pairIKS5_St6vectorIdSaIdEEESt10_Select1stISB_ESt4lessIS5_ESaISB_EE11_Alloc_nodeclIRSB_EEPSt13_Rb_tree_nodeISB_EOT_ @7713
    _ZNKSt8_Rb_treeINSt7__cxx1112basic_stringIcSt11char_traitsIcESaIcEEESt4pairIKS5_St6vectorIdSaIdEEESt10_Select1stISB_ESt4lessIS5_ESaISB_EE14_M_lower_boundEPKSt13_Rb_tree_nodeISB_EPKSt18_Rb_tree_node_baseRS7_ @7714
    _ZNKSt8_Rb_treeINSt7__cxx1112basic_stringIcSt11char_traitsIcESaIcEEESt4pairIKS5_St6vectorIdSaIdEEESt10_Select1stISB_ESt4lessIS5_ESaISB_EE21_M_get_Node_allocatorEv @7715
    _ZNKSt8_Rb_treeINSt7__cxx1112basic_stringIcSt11char_traitsIcESaIcEEESt4pairIKS5_St6vectorIdSaIdEEESt10_Select1stISB_ESt4lessIS5_ESaISB_EE3endEv @7716
    _ZNKSt8_Rb_treeINSt7__cxx1112basic_stringIcSt11char_traitsIcESaIcEEESt4pairIKS5_St6vectorIdSaIdEEESt10_Select1stISB_ESt4lessIS5_ESaISB_EE4findERS7_ @7717
    _ZNKSt8_Rb_treeINSt7__cxx1112basic_stringIcSt11char_traitsIcESaIcEEESt4pairIKS5_St6vectorIdSaIdEEESt10_Select1stISB_ESt4lessIS5_ESaISB_EE4sizeEv @7718
    _ZNKSt8_Rb_treeINSt7__cxx1112basic_stringIcSt11char_traitsIcESaIcEEESt4pairIKS5_St6vectorIdSaIdEEESt10_Select1stISB_ESt4lessIS5_ESaISB_EE5beginEv @7719
    _ZNKSt8_Rb_treeINSt7__cxx1112basic_stringIcSt11char_traitsIcESaIcEEESt4pairIKS5_St6vectorIdSaIdEEESt10_Select1stISB_ESt4lessIS5_ESaISB_EE6_M_endEv @7720
    _ZNKSt8_Rb_treeINSt7__cxx1112basic_stringIcSt11char_traitsIcESaIcEEESt4pairIKS5_St6vectorIdSaIdEEESt10_Select1stISB_ESt4lessIS5_ESaISB_EE7_M_rootEv @7721
    _ZNKSt8_Rb_treeINSt7__cxx1112basic_stringIcSt11char_traitsIcESaIcEEESt4pairIKS5_St6vectorIdSaIdEEESt10_Select1stISB_ESt4lessIS5_ESaISB_EE8_M_beginEv @7722
    _ZNKSt8_Rb_treeINSt7__cxx1112basic_stringIcSt11char_traitsIcESaIcEEESt4pairIKS5_St6vectorIdSaIdEEESt10_Select1stISB_ESt4lessIS5_ESaISB_EE8key_compEv @7723
    _ZNKSt8_Rb_treeIP14BDS_GeomEntityS1_St9_IdentityIS1_E12GeomLessThanSaIS1_EE11_Alloc_nodeclIS1_EEPSt13_Rb_tree_nodeIS1_EOT_ @7724
    _ZNKSt8_Rb_treeIP14BDS_GeomEntityS1_St9_IdentityIS1_E12GeomLessThanSaIS1_EE3endEv @7725
    _ZNKSt8_Rb_treeIP14BDS_GeomEntityS1_St9_IdentityIS1_E12GeomLessThanSaIS1_EE5beginEv @7726
    _ZNKSt8_Rb_treeIP5GEdgeS1_St9_IdentityIS1_E15GEntityLessThanSaIS1_EE3endEv @7727
    _ZNKSt8_Rb_treeIP5GEdgeS1_St9_IdentityIS1_E15GEntityLessThanSaIS1_EE5beginEv @7728
    _ZNKSt8_Rb_treeIP5GFaceS1_St9_IdentityIS1_E15GEntityLessThanSaIS1_EE3endEv @7729
    _ZNKSt8_Rb_treeIP5GFaceS1_St9_IdentityIS1_E15GEntityLessThanSaIS1_EE5beginEv @7730
    _ZNKSt8_Rb_treeIP7GRegionS1_St9_IdentityIS1_E15GEntityLessThanSaIS1_EE3endEv @7731
    _ZNKSt8_Rb_treeIP7GRegionS1_St9_IdentityIS1_E15GEntityLessThanSaIS1_EE5beginEv @7732
    _ZNKSt8_Rb_treeIP7GVertexS1_St9_IdentityIS1_E15GEntityLessThanSaIS1_EE3endEv @7733
    _ZNKSt8_Rb_treeIP7GVertexS1_St9_IdentityIS1_E15GEntityLessThanSaIS1_EE5beginEv @7734
    _ZNKSt8_Rb_treeIP7MVertexSt4pairIKS1_17BoundaryLayerDataESt10_Select1stIS5_ESt4lessIS1_ESaIS5_EE5countERS3_ @7735
    _ZNKSt8_Rb_treeIP9BDS_PointS1_St9_IdentityIS1_E13PointLessThanSaIS1_EE11_Alloc_nodeclIRKS1_EEPSt13_Rb_tree_nodeIS1_EOT_ @7736
    _ZNKSt8_Rb_treeIP9BDS_PointS1_St9_IdentityIS1_E13PointLessThanSaIS1_EE3endEv @7737
    _ZNKSt8_Rb_treeIP9BDS_PointS1_St9_IdentityIS1_E13PointLessThanSaIS1_EE4sizeEv @7738
    _ZNKSt8_Rb_treeIP9BDS_PointS1_St9_IdentityIS1_E13PointLessThanSaIS1_EE5beginEv @7739
    _ZNKSt8_Rb_treeIiSt4pairIKiS0_IdSt6vectorIiSaIiEEEESt10_Select1stIS6_ESt4lessIiESaIS6_EE4sizeEv @7740
    _ZNKSt8_Rb_treeIiSt4pairIKiS0_IdSt6vectorIiSaIiEEEESt10_Select1stIS6_ESt4lessIiESaIS6_EE8key_compEv @7741
    _ZNKSt8_Rb_treeIiSt4pairIKiiESt10_Select1stIS2_ESt4lessIiESaIS2_EE3endEv @7742
    _ZNKSt8_Rb_treeIiSt4pairIKiiESt10_Select1stIS2_ESt4lessIiESaIS2_EE4sizeEv @7743
    _ZNKSt8_Rb_treeIiSt4pairIKiiESt10_Select1stIS2_ESt4lessIiESaIS2_EE5beginEv @7744
    _ZNKSt8_Rb_treeIiSt4pairIKiiESt10_Select1stIS2_ESt4lessIiESaIS2_EE8key_compEv @7745
    _ZNKSt8equal_toIP8BDS_FaceEclERKS1_S4_ @7746
    _ZNKSt9_IdentityI13EdgeToRecoverEclERKS0_ @7747
    _ZNKSt9_IdentityI13EdgeToRecoverEclERS0_ @7748
    _ZNKSt9_IdentityIP14BDS_GeomEntityEclERKS1_ @7749
    _ZNKSt9_IdentityIP14BDS_GeomEntityEclERS1_ @7750
    _ZNKSt9_IdentityIP9BDS_PointEclERKS1_ @7751
    _ZNKSt9binder2ndISt8equal_toIP8BDS_FaceEEclERS2_ @7752
    _ZNSaINSt7__cxx1112basic_stringIcSt11char_traitsIcESaIcEEEEC1ERKS5_ @7753
    _ZNSaINSt7__cxx1112basic_stringIcSt11char_traitsIcESaIcEEEEC1Ev @7754
    _ZNSaINSt7__cxx1112basic_stringIcSt11char_traitsIcESaIcEEEEC2ERKS5_ @7755
    _ZNSaINSt7__cxx1112basic_stringIcSt11char_traitsIcESaIcEEEEC2Ev @7756
    _ZNSaINSt7__cxx1112basic_stringIcSt11char_traitsIcESaIcEEEED1Ev @7757
    _ZNSaINSt7__cxx1112basic_stringIcSt11char_traitsIcESaIcEEEED2Ev @7758
    _ZNSaIP14simpleFunctionIdEEC1ERKS2_ @7759
    _ZNSaIP14simpleFunctionIdEEC2ERKS2_ @7760
    _ZNSaIP14simpleFunctionIdEEC2Ev @7761
    _ZNSaIP14simpleFunctionIdEED1Ev @7762
    _ZNSaIP14simpleFunctionIdEED2Ev @7763
    _ZNSaIP7GEntityEC2Ev @7764
    _ZNSaIP7GEntityED2Ev @7765
    _ZNSaIP8BDS_EdgeEC2Ev @7766
    _ZNSaIP8BDS_EdgeED2Ev @7767
    _ZNSaIP8BDS_FaceEC2Ev @7768
    _ZNSaIP8BDS_FaceED2Ev @7769
    _ZNSaIP9gLevelsetEC1ERKS1_ @7770
    _ZNSaIP9gLevelsetEC2ERKS1_ @7771
    _ZNSaIP9gLevelsetEC2Ev @7772
    _ZNSaIP9gLevelsetED1Ev @7773
    _ZNSaIP9gLevelsetED2Ev @7774
    _ZNSaIPP8BDS_FaceEC1IS0_EERKSaIT_E @7775
    _ZNSaIPP8BDS_FaceED1Ev @7776
    _ZNSaISt10_List_nodeIP8BDS_EdgeEEC1ERKS3_ @7777
    _ZNSaISt10_List_nodeIP8BDS_EdgeEEC2ERKS3_ @7778
    _ZNSaISt10_List_nodeIP8BDS_EdgeEEC2Ev @7779
    _ZNSaISt10_List_nodeIP8BDS_EdgeEED1Ev @7780
    _ZNSaISt10_List_nodeIP8BDS_EdgeEED2Ev @7781
    _ZNSaISt10_List_nodeIP8BDS_FaceEEC1ERKS3_ @7782
    _ZNSaISt10_List_nodeIP8BDS_FaceEEC2ERKS3_ @7783
    _ZNSaISt10_List_nodeIP8BDS_FaceEEC2Ev @7784
    _ZNSaISt10_List_nodeIP8BDS_FaceEED1Ev @7785
    _ZNSaISt10_List_nodeIP8BDS_FaceEED2Ev @7786
    _ZNSaISt10_List_nodeIdEEC1ERKS1_ @7787
    _ZNSaISt10_List_nodeIdEEC2ERKS1_ @7788
    _ZNSaISt10_List_nodeIdEED1Ev @7789
    _ZNSaISt10_List_nodeIdEED2Ev @7790
    _ZNSaISt10_List_nodeIiEEC1ERKS1_ @7791
    _ZNSaISt10_List_nodeIiEEC2ERKS1_ @7792
    _ZNSaISt10_List_nodeIiEED1Ev @7793
    _ZNSaISt10_List_nodeIiEED2Ev @7794
    _ZNSaISt13_Rb_tree_nodeI5MEdgeEEC2Ev @7795
    _ZNSaISt13_Rb_tree_nodeI5MEdgeEED2Ev @7796
    _ZNSaISt13_Rb_tree_nodeIP14BDS_GeomEntityEED2Ev @7797
    _ZNSaISt13_Rb_tree_nodeIP9BDS_PointEED2Ev @7798
    _ZNSaISt13_Rb_tree_nodeISt4pairIKNSt7__cxx1112basic_stringIcSt11char_traitsIcESaIcEEE13gmsh_yysymbolEEEC2Ev @7799
    _ZNSaISt13_Rb_tree_nodeISt4pairIKNSt7__cxx1112basic_stringIcSt11char_traitsIcESaIcEEE13gmsh_yysymbolEEED2Ev @7800
    _ZNSaISt13_Rb_tree_nodeISt4pairIKNSt7__cxx1112basic_stringIcSt11char_traitsIcESaIcEEE6StructEEEC2Ev @7801
    _ZNSaISt13_Rb_tree_nodeISt4pairIKNSt7__cxx1112basic_stringIcSt11char_traitsIcESaIcEEE6StructEEED2Ev @7802
    _ZNSaISt13_Rb_tree_nodeISt4pairIKNSt7__cxx1112basic_stringIcSt11char_traitsIcESaIcEEE7StructsEEEC2Ev @7803
    _ZNSaISt13_Rb_tree_nodeISt4pairIKNSt7__cxx1112basic_stringIcSt11char_traitsIcESaIcEEE7StructsEEED2Ev @7804
    _ZNSaISt13_Rb_tree_nodeISt4pairIKNSt7__cxx1112basic_stringIcSt11char_traitsIcESaIcEEESt6vectorIS6_SaIS6_EEEEEC1ERKSD_ @7805
    _ZNSaISt13_Rb_tree_nodeISt4pairIKNSt7__cxx1112basic_stringIcSt11char_traitsIcESaIcEEESt6vectorIS6_SaIS6_EEEEEC2Ev @7806
    _ZNSaISt13_Rb_tree_nodeISt4pairIKNSt7__cxx1112basic_stringIcSt11char_traitsIcESaIcEEESt6vectorIS6_SaIS6_EEEEED2Ev @7807
    _ZNSaISt13_Rb_tree_nodeISt4pairIKNSt7__cxx1112basic_stringIcSt11char_traitsIcESaIcEEESt6vectorIdSaIdEEEEEC1ERKSD_ @7808
    _ZNSaISt13_Rb_tree_nodeISt4pairIKNSt7__cxx1112basic_stringIcSt11char_traitsIcESaIcEEESt6vectorIdSaIdEEEEEC2Ev @7809
    _ZNSaISt13_Rb_tree_nodeISt4pairIKNSt7__cxx1112basic_stringIcSt11char_traitsIcESaIcEEESt6vectorIdSaIdEEEEED2Ev @7810
    _ZNSaISt13_Rb_tree_nodeISt4pairIKiS0_IdSt6vectorIiSaIiEEEEEED2Ev @7811
    _ZNSaISt13_Rb_tree_nodeISt4pairIKiSt6vectorIP7GEntitySaIS4_EEEEEC2Ev @7812
    _ZNSaISt13_Rb_tree_nodeISt4pairIKiSt6vectorIP7GEntitySaIS4_EEEEED2Ev @7813
    _ZNSaISt13_Rb_tree_nodeISt4pairIKiiEEEC2Ev @7814
    _ZNSaISt13_Rb_tree_nodeISt4pairIKiiEEED2Ev @7815
    _ZNSaISt4pairIiiEEC2Ev @7816
    _ZNSaISt4pairIiiEED2Ev @7817
    _ZNSaISt6vectorISt4pairIiiESaIS1_EEEC2Ev @7818
    _ZNSaISt6vectorISt4pairIiiESaIS1_EEED2Ev @7819
    _ZNSaISt6vectorIdSaIdEEEC1ERKS2_ @7820
    _ZNSaISt6vectorIdSaIdEEEC2ERKS2_ @7821
    _ZNSaISt6vectorIdSaIdEEEC2Ev @7822
    _ZNSaISt6vectorIdSaIdEEED1Ev @7823
    _ZNSaISt6vectorIdSaIdEEED2Ev @7824
    _ZNSaIdEC1ERKS_ @7825
    _ZNSaIdEC1Ev @7826
    _ZNSaIdEC2ERKS_ @7827
    _ZNSaIdEC2Ev @7828
    _ZNSaIdED1Ev @7829
    _ZNSaIdED2Ev @7830
    _ZNSaIiEC1ERKS_ @7831
    _ZNSaIiEC2ERKS_ @7832
    _ZNSaIiEC2Ev @7833
    _ZNSaIiED1Ev @7834
    _ZNSaIiED2Ev @7835
    _ZNSt10_HashtableINSt7__cxx1112basic_stringIcSt11char_traitsIcESaIcEEESt4pairIKS5_jESaIS8_ENSt8__detail10_Select1stESt8equal_toIS5_ESt4hashIS5_ENSA_18_Mod_range_hashingENSA_20_Default_ranged_hashENSA_20_Prime_rehash_policyENSA_17_Hashtable_traitsILb1ELb0ELb1EEEE9_M_rehashEyRKy @7836
    _ZNSt10_HashtableIjSt4pairIKjSt6vectorIS0_IjjESaIS3_EEESaIS6_ENSt8__detail10_Select1stESt8equal_toIjESt4hashIjENS8_18_Mod_range_hashingENS8_20_Default_ranged_hashENS8_20_Prime_rehash_policyENS8_17_Hashtable_traitsILb0ELb0ELb1EEEE9_M_rehashEyRKy @7837
    _ZNSt10_HashtableIjSt4pairIKjSt6vectorIS0_IjjESaIS3_EEESaIS6_ENSt8__detail10_Select1stESt8equal_toIjESt4hashIjENS8_18_Mod_range_hashingENS8_20_Default_ranged_hashENS8_20_Prime_rehash_policyENS8_17_Hashtable_traitsILb0ELb0ELb1EEEED1Ev @7838
    _ZNSt10_HashtableIjSt4pairIKjSt6vectorIjSaIjEEESaIS5_ENSt8__detail10_Select1stESt8equal_toIjESt4hashIjENS7_18_Mod_range_hashingENS7_20_Default_ranged_hashENS7_20_Prime_rehash_policyENS7_17_Hashtable_traitsILb0ELb0ELb1EEEE9_M_rehashEyRKy @7839
    _ZNSt10_HashtableIjSt4pairIKjSt6vectorIjSaIjEEESaIS5_ENSt8__detail10_Select1stESt8equal_toIjESt4hashIjENS7_18_Mod_range_hashingENS7_20_Default_ranged_hashENS7_20_Prime_rehash_policyENS7_17_Hashtable_traitsILb0ELb0ELb1EEEED1Ev @7840
    _ZNSt10_Head_baseILy0EONSt7__cxx1112basic_stringIcSt11char_traitsIcESaIcEEELb0EE7_M_headERS7_ @7841
    _ZNSt10_Head_baseILy0EONSt7__cxx1112basic_stringIcSt11char_traitsIcESaIcEEELb0EEC2IS5_EEOT_ @7842
    _ZNSt10_Head_baseILy0EOiLb0EE7_M_headERS1_ @7843
    _ZNSt10_Head_baseILy0EOiLb0EEC2IiEEOT_ @7844
    _ZNSt10_Head_baseILy0ERKNSt7__cxx1112basic_stringIcSt11char_traitsIcESaIcEEELb0EE7_M_headERS8_ @7845
    _ZNSt10_Head_baseILy0ERKNSt7__cxx1112basic_stringIcSt11char_traitsIcESaIcEEELb0EEC2ES7_ @7846
    _ZNSt10_Head_baseILy0ERKiLb0EE7_M_headERS2_ @7847
    _ZNSt10_Head_baseILy0ERKiLb0EEC2ES1_ @7848
    _ZNSt10_List_nodeIP5GEdgeE9_M_valptrEv @7849
    _ZNSt10_List_nodeIP5GFaceE9_M_valptrEv @7850
    _ZNSt10_List_nodeIP7GVertexE9_M_valptrEv @7851
    _ZNSt10_List_nodeIP8BDS_EdgeE9_M_valptrEv @7852
    _ZNSt10_List_nodeIP8BDS_FaceE9_M_valptrEv @7853
    _ZNSt10_List_nodeIdE9_M_valptrEv @7854
    _ZNSt10_List_nodeIiE9_M_valptrEv @7855
    _ZNSt11_Deque_baseIP3TetSaIS1_EE17_M_initialize_mapEy @7856
    _ZNSt11_Deque_baseIP3TetSaIS1_EED2Ev @7857
    _ZNSt11_Deque_baseIP4CellSaIS1_EE17_M_initialize_mapEy @7858
    _ZNSt11_Deque_baseIP4CellSaIS1_EED2Ev @7859
    _ZNSt11_Deque_baseIP8BDS_FaceSaIS1_EE11_Deque_implC1Ev @7860
    _ZNSt11_Deque_baseIP8BDS_FaceSaIS1_EE11_Deque_implD1Ev @7861
    _ZNSt11_Deque_baseIP8BDS_FaceSaIS1_EE15_M_allocate_mapEy @7862
    _ZNSt11_Deque_baseIP8BDS_FaceSaIS1_EE15_M_create_nodesEPPS1_S5_ @7863
    _ZNSt11_Deque_baseIP8BDS_FaceSaIS1_EE16_Deque_impl_dataC2Ev @7864
    _ZNSt11_Deque_baseIP8BDS_FaceSaIS1_EE16_M_allocate_nodeEv @7865
    _ZNSt11_Deque_baseIP8BDS_FaceSaIS1_EE16_M_destroy_nodesEPPS1_S5_ @7866
    _ZNSt11_Deque_baseIP8BDS_FaceSaIS1_EE17_M_deallocate_mapEPPS1_y @7867
    _ZNSt11_Deque_baseIP8BDS_FaceSaIS1_EE17_M_initialize_mapEy @7868
    _ZNSt11_Deque_baseIP8BDS_FaceSaIS1_EE18_M_deallocate_nodeEPS1_ @7869
    _ZNSt11_Deque_baseIP8BDS_FaceSaIS1_EE19_M_get_Tp_allocatorEv @7870
    _ZNSt11_Deque_baseIP8BDS_FaceSaIS1_EEC2Ev @7871
    _ZNSt11_Deque_baseIP8BDS_FaceSaIS1_EED2Ev @7872
    _ZNSt11_Deque_baseIP8MElementSaIS1_EE17_M_initialize_mapEy @7873
    _ZNSt11_Deque_baseIP8MElementSaIS1_EED2Ev @7874
    _ZNSt11_Deque_baseIP9gLevelsetSaIS1_EED2Ev @7875
    _ZNSt11_Tuple_implILy0EJONSt7__cxx1112basic_stringIcSt11char_traitsIcESaIcEEEEE7_M_headERS7_ @7876
    _ZNSt11_Tuple_implILy0EJONSt7__cxx1112basic_stringIcSt11char_traitsIcESaIcEEEEEC2EOS7_ @7877
    _ZNSt11_Tuple_implILy0EJONSt7__cxx1112basic_stringIcSt11char_traitsIcESaIcEEEEEC2IS5_EEOT_ @7878
    _ZNSt11_Tuple_implILy0EJOiEE7_M_headERS1_ @7879
    _ZNSt11_Tuple_implILy0EJOiEEC2EOS1_ @7880
    _ZNSt11_Tuple_implILy0EJOiEEC2IiEEOT_ @7881
    _ZNSt11_Tuple_implILy0EJRKNSt7__cxx1112basic_stringIcSt11char_traitsIcESaIcEEEEE7_M_headERS8_ @7882
    _ZNSt11_Tuple_implILy0EJRKNSt7__cxx1112basic_stringIcSt11char_traitsIcESaIcEEEEEC2EOS8_ @7883
    _ZNSt11_Tuple_implILy0EJRKNSt7__cxx1112basic_stringIcSt11char_traitsIcESaIcEEEEEC2ES7_ @7884
    _ZNSt11_Tuple_implILy0EJRKiEE7_M_headERS2_ @7885
    _ZNSt11_Tuple_implILy0EJRKiEEC2EOS2_ @7886
    _ZNSt11_Tuple_implILy0EJRKiEEC2ES1_ @7887
    _ZNSt11__copy_moveILb0ELb0ESt26random_access_iterator_tagE8__copy_mIPKNSt7__cxx1112basic_stringIcSt11char_traitsIcESaIcEEEPS8_EET0_T_SD_SC_ @7888
    _ZNSt11__copy_moveILb0ELb0ESt26random_access_iterator_tagE8__copy_mIPNSt7__cxx1112basic_stringIcSt11char_traitsIcESaIcEEES9_EET0_T_SB_SA_ @7889
    _ZNSt11__copy_moveILb0ELb1ESt26random_access_iterator_tagE8__copy_mIP14simpleFunctionIdEEEPT_PKS6_S9_S7_ @7890
    _ZNSt11__copy_moveILb0ELb1ESt26random_access_iterator_tagE8__copy_mIP9gLevelsetEEPT_PKS5_S8_S6_ @7891
    _ZNSt11__copy_moveILb0ELb1ESt26random_access_iterator_tagE8__copy_mIPP8BDS_FaceEEPT_PKS6_S9_S7_ @7892
    _ZNSt11__copy_moveILb0ELb1ESt26random_access_iterator_tagE8__copy_mIdEEPT_PKS3_S6_S4_ @7893
    _ZNSt11__copy_moveILb0ELb1ESt26random_access_iterator_tagE8__copy_mIiEEPT_PKS3_S6_S4_ @7894
    _ZNSt11__copy_moveILb1ELb1ESt26random_access_iterator_tagE8__copy_mIP14simpleFunctionIdEEEPT_PKS6_S9_S7_ @7895
    _ZNSt11__copy_moveILb1ELb1ESt26random_access_iterator_tagE8__copy_mIP7GVertexEEPT_PKS5_S8_S6_ @7896
    _ZNSt11__copy_moveILb1ELb1ESt26random_access_iterator_tagE8__copy_mIP8BDS_EdgeEEPT_PKS5_S8_S6_ @7897
    _ZNSt11__copy_moveILb1ELb1ESt26random_access_iterator_tagE8__copy_mIP8BDS_FaceEEPT_PKS5_S8_S6_ @7898
    _ZNSt11__copy_moveILb1ELb1ESt26random_access_iterator_tagE8__copy_mIP9gLevelsetEEPT_PKS5_S8_S6_ @7899
    _ZNSt11__copy_moveILb1ELb1ESt26random_access_iterator_tagE8__copy_mIcEEPT_PKS3_S6_S4_ @7900
    _ZNSt11__copy_moveILb1ELb1ESt26random_access_iterator_tagE8__copy_mIdEEPT_PKS3_S6_S4_ @7901
    _ZNSt11__copy_moveILb1ELb1ESt26random_access_iterator_tagE8__copy_mIiEEPT_PKS3_S6_S4_ @7902
    _ZNSt11char_traitsIcE6lengthEPKc @7903
    _ZNSt12_Destroy_auxILb0EE9__destroyIN9__gnu_cxx17__normal_iteratorIPNSt7__cxx1112basic_stringIcSt11char_traitsIcESaIcEEESt6vectorIS9_SaIS9_EEEEEEvT_SF_ @7904
    _ZNSt12_Destroy_auxILb0EE9__destroyIP10fullMatrixIdEEEvT_S5_ @7905
    _ZNSt12_Destroy_auxILb0EE9__destroyIPNSt7__cxx1112basic_stringIcSt11char_traitsIcESaIcEEEEEvT_S9_ @7906
    _ZNSt12_Destroy_auxILb0EE9__destroyIPSt6vectorISt4pairIiiESaIS4_EEEEvT_S8_ @7907
    _ZNSt12_Destroy_auxILb0EE9__destroyIPSt6vectorIdSaIdEEEEvT_S6_ @7908
    _ZNSt12_Destroy_auxILb1EE9__destroyIN9__gnu_cxx17__normal_iteratorIPP9gLevelsetSt6vectorIS5_SaIS5_EEEEEEvT_SB_ @7909
    _ZNSt12_Destroy_auxILb1EE9__destroyIN9__gnu_cxx17__normal_iteratorIPdSt6vectorIdSaIdEEEEEEvT_S9_ @7910
    _ZNSt12_Destroy_auxILb1EE9__destroyIN9__gnu_cxx17__normal_iteratorIPiSt6vectorIiSaIiEEEEEEvT_S9_ @7911
    _ZNSt12_Destroy_auxILb1EE9__destroyIPP14simpleFunctionIdEEEvT_S6_ @7912
    _ZNSt12_Destroy_auxILb1EE9__destroyIPP7GEntityEEvT_S5_ @7913
    _ZNSt12_Destroy_auxILb1EE9__destroyIPP7GVertexEEvT_S5_ @7914
    _ZNSt12_Destroy_auxILb1EE9__destroyIPP8BDS_EdgeEEvT_S5_ @7915
    _ZNSt12_Destroy_auxILb1EE9__destroyIPP8BDS_FaceEEvT_S5_ @7916
    _ZNSt12_Destroy_auxILb1EE9__destroyIPP9gLevelsetEEvT_S5_ @7917
    _ZNSt12_Destroy_auxILb1EE9__destroyIPSt4pairIiiEEEvT_S5_ @7918
    _ZNSt12_Destroy_auxILb1EE9__destroyIPcEEvT_S3_ @7919
    _ZNSt12_Destroy_auxILb1EE9__destroyIPdEEvT_S3_ @7920
    _ZNSt12_Destroy_auxILb1EE9__destroyIPiEEvT_S3_ @7921
    _ZNSt12_Vector_baseINSt7__cxx1112basic_stringIcSt11char_traitsIcESaIcEEESaIS5_EE11_M_allocateEy @7922
    _ZNSt12_Vector_baseINSt7__cxx1112basic_stringIcSt11char_traitsIcESaIcEEESaIS5_EE12_Vector_implC1ERKS6_ @7923
    _ZNSt12_Vector_baseINSt7__cxx1112basic_stringIcSt11char_traitsIcESaIcEEESaIS5_EE12_Vector_implC1Ev @7924
    _ZNSt12_Vector_baseINSt7__cxx1112basic_stringIcSt11char_traitsIcESaIcEEESaIS5_EE12_Vector_implD1Ev @7925
    _ZNSt12_Vector_baseINSt7__cxx1112basic_stringIcSt11char_traitsIcESaIcEEESaIS5_EE13_M_deallocateEPS5_y @7926
    _ZNSt12_Vector_baseINSt7__cxx1112basic_stringIcSt11char_traitsIcESaIcEEESaIS5_EE17_M_create_storageEy @7927
    _ZNSt12_Vector_baseINSt7__cxx1112basic_stringIcSt11char_traitsIcESaIcEEESaIS5_EE17_Vector_impl_data12_M_copy_dataERKS8_ @7928
    _ZNSt12_Vector_baseINSt7__cxx1112basic_stringIcSt11char_traitsIcESaIcEEESaIS5_EE17_Vector_impl_data12_M_swap_dataERS8_ @7929
    _ZNSt12_Vector_baseINSt7__cxx1112basic_stringIcSt11char_traitsIcESaIcEEESaIS5_EE17_Vector_impl_dataC1Ev @7930
    _ZNSt12_Vector_baseINSt7__cxx1112basic_stringIcSt11char_traitsIcESaIcEEESaIS5_EE17_Vector_impl_dataC2Ev @7931
    _ZNSt12_Vector_baseINSt7__cxx1112basic_stringIcSt11char_traitsIcESaIcEEESaIS5_EE19_M_get_Tp_allocatorEv @7932
    _ZNSt12_Vector_baseINSt7__cxx1112basic_stringIcSt11char_traitsIcESaIcEEESaIS5_EEC2ERKS6_ @7933
    _ZNSt12_Vector_baseINSt7__cxx1112basic_stringIcSt11char_traitsIcESaIcEEESaIS5_EEC2Ev @7934
    _ZNSt12_Vector_baseINSt7__cxx1112basic_stringIcSt11char_traitsIcESaIcEEESaIS5_EEC2EyRKS6_ @7935
    _ZNSt12_Vector_baseINSt7__cxx1112basic_stringIcSt11char_traitsIcESaIcEEESaIS5_EED2Ev @7936
    _ZNSt12_Vector_baseIP14simpleFunctionIdESaIS2_EE11_M_allocateEy @7937
    _ZNSt12_Vector_baseIP14simpleFunctionIdESaIS2_EE12_Vector_implC1ERKS3_ @7938
    _ZNSt12_Vector_baseIP14simpleFunctionIdESaIS2_EE12_Vector_implC1Ev @7939
    _ZNSt12_Vector_baseIP14simpleFunctionIdESaIS2_EE12_Vector_implD1Ev @7940
    _ZNSt12_Vector_baseIP14simpleFunctionIdESaIS2_EE13_M_deallocateEPS2_y @7941
    _ZNSt12_Vector_baseIP14simpleFunctionIdESaIS2_EE17_M_create_storageEy @7942
    _ZNSt12_Vector_baseIP14simpleFunctionIdESaIS2_EE17_Vector_impl_dataC2Ev @7943
    _ZNSt12_Vector_baseIP14simpleFunctionIdESaIS2_EE19_M_get_Tp_allocatorEv @7944
    _ZNSt12_Vector_baseIP14simpleFunctionIdESaIS2_EEC2Ev @7945
    _ZNSt12_Vector_baseIP14simpleFunctionIdESaIS2_EEC2EyRKS3_ @7946
    _ZNSt12_Vector_baseIP14simpleFunctionIdESaIS2_EED2Ev @7947
    _ZNSt12_Vector_baseIP7GEntitySaIS1_EE12_Vector_implC1Ev @7948
    _ZNSt12_Vector_baseIP7GEntitySaIS1_EE12_Vector_implD1Ev @7949
    _ZNSt12_Vector_baseIP7GEntitySaIS1_EE13_M_deallocateEPS1_y @7950
    _ZNSt12_Vector_baseIP7GEntitySaIS1_EE17_Vector_impl_dataC2Ev @7951
    _ZNSt12_Vector_baseIP7GEntitySaIS1_EE19_M_get_Tp_allocatorEv @7952
    _ZNSt12_Vector_baseIP7GEntitySaIS1_EEC2Ev @7953
    _ZNSt12_Vector_baseIP7GEntitySaIS1_EED2Ev @7954
    _ZNSt12_Vector_baseIP7GVertexSaIS1_EE11_M_allocateEy @7955
    _ZNSt12_Vector_baseIP7GVertexSaIS1_EE13_M_deallocateEPS1_y @7956
    _ZNSt12_Vector_baseIP7GVertexSaIS1_EE19_M_get_Tp_allocatorEv @7957
    _ZNSt12_Vector_baseIP8BDS_EdgeSaIS1_EE11_M_allocateEy @7958
    _ZNSt12_Vector_baseIP8BDS_EdgeSaIS1_EE12_Vector_implC1Ev @7959
    _ZNSt12_Vector_baseIP8BDS_EdgeSaIS1_EE12_Vector_implD1Ev @7960
    _ZNSt12_Vector_baseIP8BDS_EdgeSaIS1_EE13_M_deallocateEPS1_y @7961
    _ZNSt12_Vector_baseIP8BDS_EdgeSaIS1_EE17_Vector_impl_dataC2Ev @7962
    _ZNSt12_Vector_baseIP8BDS_EdgeSaIS1_EE19_M_get_Tp_allocatorEv @7963
    _ZNSt12_Vector_baseIP8BDS_EdgeSaIS1_EEC2Ev @7964
    _ZNSt12_Vector_baseIP8BDS_EdgeSaIS1_EED2Ev @7965
    _ZNSt12_Vector_baseIP8BDS_FaceSaIS1_EE11_M_allocateEy @7966
    _ZNSt12_Vector_baseIP8BDS_FaceSaIS1_EE12_Vector_implC1Ev @7967
    _ZNSt12_Vector_baseIP8BDS_FaceSaIS1_EE12_Vector_implD1Ev @7968
    _ZNSt12_Vector_baseIP8BDS_FaceSaIS1_EE13_M_deallocateEPS1_y @7969
    _ZNSt12_Vector_baseIP8BDS_FaceSaIS1_EE17_Vector_impl_dataC2Ev @7970
    _ZNSt12_Vector_baseIP8BDS_FaceSaIS1_EE19_M_get_Tp_allocatorEv @7971
    _ZNSt12_Vector_baseIP8BDS_FaceSaIS1_EEC2Ev @7972
    _ZNSt12_Vector_baseIP8BDS_FaceSaIS1_EED2Ev @7973
    _ZNSt12_Vector_baseIP9gLevelsetSaIS1_EE11_M_allocateEy @7974
    _ZNSt12_Vector_baseIP9gLevelsetSaIS1_EE12_Vector_implC1ERKS2_ @7975
    _ZNSt12_Vector_baseIP9gLevelsetSaIS1_EE12_Vector_implC1Ev @7976
    _ZNSt12_Vector_baseIP9gLevelsetSaIS1_EE12_Vector_implD1Ev @7977
    _ZNSt12_Vector_baseIP9gLevelsetSaIS1_EE13_M_deallocateEPS1_y @7978
    _ZNSt12_Vector_baseIP9gLevelsetSaIS1_EE17_M_create_storageEy @7979
    _ZNSt12_Vector_baseIP9gLevelsetSaIS1_EE17_Vector_impl_dataC2Ev @7980
    _ZNSt12_Vector_baseIP9gLevelsetSaIS1_EE19_M_get_Tp_allocatorEv @7981
    _ZNSt12_Vector_baseIP9gLevelsetSaIS1_EEC2Ev @7982
    _ZNSt12_Vector_baseIP9gLevelsetSaIS1_EEC2EyRKS2_ @7983
    _ZNSt12_Vector_baseIP9gLevelsetSaIS1_EED2Ev @7984
    _ZNSt12_Vector_baseISt4pairIiiESaIS1_EE11_M_allocateEy @7985
    _ZNSt12_Vector_baseISt4pairIiiESaIS1_EE12_Vector_implC1Ev @7986
    _ZNSt12_Vector_baseISt4pairIiiESaIS1_EE12_Vector_implD1Ev @7987
    _ZNSt12_Vector_baseISt4pairIiiESaIS1_EE13_M_deallocateEPS1_y @7988
    _ZNSt12_Vector_baseISt4pairIiiESaIS1_EE17_Vector_impl_dataC2Ev @7989
    _ZNSt12_Vector_baseISt4pairIiiESaIS1_EE19_M_get_Tp_allocatorEv @7990
    _ZNSt12_Vector_baseISt4pairIiiESaIS1_EEC2Ev @7991
    _ZNSt12_Vector_baseISt4pairIiiESaIS1_EED2Ev @7992
    _ZNSt12_Vector_baseISt6vectorISt4pairIiiESaIS2_EESaIS4_EE12_Vector_implC1Ev @7993
    _ZNSt12_Vector_baseISt6vectorISt4pairIiiESaIS2_EESaIS4_EE12_Vector_implD1Ev @7994
    _ZNSt12_Vector_baseISt6vectorISt4pairIiiESaIS2_EESaIS4_EE13_M_deallocateEPS4_y @7995
    _ZNSt12_Vector_baseISt6vectorISt4pairIiiESaIS2_EESaIS4_EE17_Vector_impl_dataC2Ev @7996
    _ZNSt12_Vector_baseISt6vectorISt4pairIiiESaIS2_EESaIS4_EE19_M_get_Tp_allocatorEv @7997
    _ZNSt12_Vector_baseISt6vectorISt4pairIiiESaIS2_EESaIS4_EEC2Ev @7998
    _ZNSt12_Vector_baseISt6vectorISt4pairIiiESaIS2_EESaIS4_EED2Ev @7999
    _ZNSt12_Vector_baseISt6vectorIdSaIdEESaIS2_EE11_M_allocateEy @8000
    _ZNSt12_Vector_baseISt6vectorIdSaIdEESaIS2_EE12_Vector_implC1ERKS3_ @8001
    _ZNSt12_Vector_baseISt6vectorIdSaIdEESaIS2_EE12_Vector_implC1Ev @8002
    _ZNSt12_Vector_baseISt6vectorIdSaIdEESaIS2_EE12_Vector_implD1Ev @8003
    _ZNSt12_Vector_baseISt6vectorIdSaIdEESaIS2_EE13_M_deallocateEPS2_y @8004
    _ZNSt12_Vector_baseISt6vectorIdSaIdEESaIS2_EE17_M_create_storageEy @8005
    _ZNSt12_Vector_baseISt6vectorIdSaIdEESaIS2_EE17_Vector_impl_dataC2Ev @8006
    _ZNSt12_Vector_baseISt6vectorIdSaIdEESaIS2_EE19_M_get_Tp_allocatorEv @8007
    _ZNSt12_Vector_baseISt6vectorIdSaIdEESaIS2_EEC2Ev @8008
    _ZNSt12_Vector_baseISt6vectorIdSaIdEESaIS2_EEC2EyRKS3_ @8009
    _ZNSt12_Vector_baseISt6vectorIdSaIdEESaIS2_EED2Ev @8010
    _ZNSt12_Vector_baseIcSaIcEE11_M_allocateEy @8011
    _ZNSt12_Vector_baseIcSaIcEE13_M_deallocateEPcy @8012
    _ZNSt12_Vector_baseIcSaIcEE19_M_get_Tp_allocatorEv @8013
    _ZNSt12_Vector_baseIdSaIdEE11_M_allocateEy @8014
    _ZNSt12_Vector_baseIdSaIdEE12_Vector_implC1EOS2_ @8015
    _ZNSt12_Vector_baseIdSaIdEE12_Vector_implC1ERKS0_ @8016
    _ZNSt12_Vector_baseIdSaIdEE12_Vector_implC1Ev @8017
    _ZNSt12_Vector_baseIdSaIdEE12_Vector_implD1Ev @8018
    _ZNSt12_Vector_baseIdSaIdEE13_M_deallocateEPdy @8019
    _ZNSt12_Vector_baseIdSaIdEE17_M_create_storageEy @8020
    _ZNSt12_Vector_baseIdSaIdEE17_Vector_impl_dataC2EOS2_ @8021
    _ZNSt12_Vector_baseIdSaIdEE17_Vector_impl_dataC2Ev @8022
    _ZNSt12_Vector_baseIdSaIdEE19_M_get_Tp_allocatorEv @8023
    _ZNSt12_Vector_baseIdSaIdEEC2EOS1_ @8024
    _ZNSt12_Vector_baseIdSaIdEEC2Ev @8025
    _ZNSt12_Vector_baseIdSaIdEEC2EyRKS0_ @8026
    _ZNSt12_Vector_baseIdSaIdEED2Ev @8027
    _ZNSt12_Vector_baseIiSaIiEE11_M_allocateEy @8028
    _ZNSt12_Vector_baseIiSaIiEE12_Vector_implC1ERKS0_ @8029
    _ZNSt12_Vector_baseIiSaIiEE12_Vector_implC1Ev @8030
    _ZNSt12_Vector_baseIiSaIiEE12_Vector_implD1Ev @8031
    _ZNSt12_Vector_baseIiSaIiEE13_M_deallocateEPiy @8032
    _ZNSt12_Vector_baseIiSaIiEE17_M_create_storageEy @8033
    _ZNSt12_Vector_baseIiSaIiEE17_Vector_impl_dataC2Ev @8034
    _ZNSt12_Vector_baseIiSaIiEE19_M_get_Tp_allocatorEv @8035
    _ZNSt12_Vector_baseIiSaIiEEC2Ev @8036
    _ZNSt12_Vector_baseIiSaIiEEC2EyRKS0_ @8037
    _ZNSt12_Vector_baseIiSaIiEED2Ev @8038
    _ZNSt13_Bvector_baseISaIbEE13_M_deallocateEv @8039
    _ZNSt13_Rb_tree_nodeI13EdgeToRecoverE9_M_valptrEv @8040
    _ZNSt13_Rb_tree_nodeI5MEdgeE9_M_valptrEv @8041
    _ZNSt13_Rb_tree_nodeIP14BDS_GeomEntityE9_M_valptrEv @8042
    _ZNSt13_Rb_tree_nodeIP9BDS_PointE9_M_valptrEv @8043
    _ZNSt13_Rb_tree_nodeISt4pairIKNSt7__cxx1112basic_stringIcSt11char_traitsIcESaIcEEE13gmsh_yysymbolEE9_M_valptrEv @8044
    _ZNSt13_Rb_tree_nodeISt4pairIKNSt7__cxx1112basic_stringIcSt11char_traitsIcESaIcEEE6StructEE9_M_valptrEv @8045
    _ZNSt13_Rb_tree_nodeISt4pairIKNSt7__cxx1112basic_stringIcSt11char_traitsIcESaIcEEE7StructsEE9_M_valptrEv @8046
    _ZNSt13_Rb_tree_nodeISt4pairIKNSt7__cxx1112basic_stringIcSt11char_traitsIcESaIcEEEP11FieldOptionEE9_M_valptrEv @8047
    _ZNSt13_Rb_tree_nodeISt4pairIKNSt7__cxx1112basic_stringIcSt11char_traitsIcESaIcEEEP13FieldCallbackEE9_M_valptrEv @8048
    _ZNSt13_Rb_tree_nodeISt4pairIKNSt7__cxx1112basic_stringIcSt11char_traitsIcESaIcEEESt6vectorIS6_SaIS6_EEEE9_M_valptrEv @8049
    _ZNSt13_Rb_tree_nodeISt4pairIKNSt7__cxx1112basic_stringIcSt11char_traitsIcESaIcEEESt6vectorIdSaIdEEEE9_M_valptrEv @8050
    _ZNSt13_Rb_tree_nodeISt4pairIKiS0_IdSt6vectorIiSaIiEEEEE9_M_valptrEv @8051
    _ZNSt13_Rb_tree_nodeISt4pairIKiSt6vectorIP7GEntitySaIS4_EEEE9_M_valptrEv @8052
    _ZNSt13_Rb_tree_nodeISt4pairIKiiEE9_M_valptrEv @8053
    _ZNSt13move_iteratorIPNSt7__cxx1112basic_stringIcSt11char_traitsIcESaIcEEEEC1ES6_ @8054
    _ZNSt13move_iteratorIPNSt7__cxx1112basic_stringIcSt11char_traitsIcESaIcEEEEppEv @8055
    _ZNSt13move_iteratorIPP14simpleFunctionIdEEC1ES3_ @8056
    _ZNSt13move_iteratorIPP7GVertexEC1ES2_ @8057
    _ZNSt13move_iteratorIPP8BDS_EdgeEC1ES2_ @8058
    _ZNSt13move_iteratorIPP8BDS_FaceEC1ES2_ @8059
    _ZNSt13move_iteratorIPP9gLevelsetEC1ES2_ @8060
    _ZNSt13move_iteratorIPSt4pairIiiEEC1ES2_ @8061
    _ZNSt13move_iteratorIPSt4pairIiiEEppEv @8062
    _ZNSt13move_iteratorIPSt6vectorIdSaIdEEEC1ES3_ @8063
    _ZNSt13move_iteratorIPSt6vectorIdSaIdEEEppEv @8064
    _ZNSt13move_iteratorIPcEC1ES0_ @8065
    _ZNSt13move_iteratorIPdEC1ES0_ @8066
    _ZNSt13move_iteratorIPiEC1ES0_ @8067
    _ZNSt14_List_iteratorIP5GEdgeEC1EPNSt8__detail15_List_node_baseE @8068
    _ZNSt14_List_iteratorIP5GFaceEC1EPNSt8__detail15_List_node_baseE @8069
    _ZNSt14_List_iteratorIP7GVertexEC1EPNSt8__detail15_List_node_baseE @8070
    _ZNSt14_List_iteratorIP8BDS_EdgeEC1EPNSt8__detail15_List_node_baseE @8071
    _ZNSt14_List_iteratorIP8BDS_EdgeEppEi @8072
    _ZNSt14_List_iteratorIP8BDS_EdgeEppEv @8073
    _ZNSt14_List_iteratorIP8BDS_FaceEC1EPNSt8__detail15_List_node_baseE @8074
    _ZNSt14_List_iteratorIP8BDS_FaceEppEi @8075
    _ZNSt14_List_iteratorIP8BDS_FaceEppEv @8076
    _ZNSt14_List_iteratorIdEC1EPNSt8__detail15_List_node_baseE @8077
    _ZNSt14_List_iteratorIiEC1EPNSt8__detail15_List_node_baseE @8078
    _ZNSt15_Deque_iteratorIP8BDS_FaceRS1_PS1_E11_M_set_nodeEPS3_ @8079
    _ZNSt15_Deque_iteratorIP8BDS_FaceRS1_PS1_E14_S_buffer_sizeEv @8080
    _ZNSt15_Deque_iteratorIP8BDS_FaceRS1_PS1_EC1ERKS4_ @8081
    _ZNSt15_Deque_iteratorIP8BDS_FaceRS1_PS1_EC1Ev @8082
    _ZNSt15_Deque_iteratorIP8BDS_FaceRS1_PS1_EmmEv @8083
    _ZNSt15_Rb_tree_header8_M_resetEv @8084
    _ZNSt15_Rb_tree_headerC2Ev @8085
    _ZNSt15__allocated_ptrISaISt10_List_nodeIP5GEdgeEEEC1ERS4_PS3_ @8086
    _ZNSt15__allocated_ptrISaISt10_List_nodeIP5GEdgeEEED1Ev @8087
    _ZNSt15__allocated_ptrISaISt10_List_nodeIP5GEdgeEEEaSEDn @8088
    _ZNSt15__allocated_ptrISaISt10_List_nodeIP5GFaceEEEC1ERS4_PS3_ @8089
    _ZNSt15__allocated_ptrISaISt10_List_nodeIP5GFaceEEED1Ev @8090
    _ZNSt15__allocated_ptrISaISt10_List_nodeIP5GFaceEEEaSEDn @8091
    _ZNSt15__allocated_ptrISaISt10_List_nodeIP7GVertexEEEC1ERS4_PS3_ @8092
    _ZNSt15__allocated_ptrISaISt10_List_nodeIP7GVertexEEED1Ev @8093
    _ZNSt15__allocated_ptrISaISt10_List_nodeIP7GVertexEEEaSEDn @8094
    _ZNSt15__allocated_ptrISaISt10_List_nodeIP8BDS_EdgeEEEC1ERS4_PS3_ @8095
    _ZNSt15__allocated_ptrISaISt10_List_nodeIP8BDS_EdgeEEED1Ev @8096
    _ZNSt15__allocated_ptrISaISt10_List_nodeIP8BDS_EdgeEEEaSEDn @8097
    _ZNSt15__allocated_ptrISaISt10_List_nodeIP8BDS_FaceEEEC1ERS4_PS3_ @8098
    _ZNSt15__allocated_ptrISaISt10_List_nodeIP8BDS_FaceEEED1Ev @8099
    _ZNSt15__allocated_ptrISaISt10_List_nodeIP8BDS_FaceEEEaSEDn @8100
    _ZNSt15__allocated_ptrISaISt10_List_nodeIdEEEC1ERS2_PS1_ @8101
    _ZNSt15__allocated_ptrISaISt10_List_nodeIdEEED1Ev @8102
    _ZNSt15__allocated_ptrISaISt10_List_nodeIdEEEaSEDn @8103
    _ZNSt15__allocated_ptrISaISt10_List_nodeIiEEEC1ERS2_PS1_ @8104
    _ZNSt15__allocated_ptrISaISt10_List_nodeIiEEED1Ev @8105
    _ZNSt15__allocated_ptrISaISt10_List_nodeIiEEEaSEDn @8106
    _ZNSt16allocator_traitsISaINSt7__cxx1112basic_stringIcSt11char_traitsIcESaIcEEEEE10deallocateERS6_PS5_y @8107
    _ZNSt16allocator_traitsISaINSt7__cxx1112basic_stringIcSt11char_traitsIcESaIcEEEEE37select_on_container_copy_constructionERKS6_ @8108
    _ZNSt16allocator_traitsISaINSt7__cxx1112basic_stringIcSt11char_traitsIcESaIcEEEEE7destroyIS5_EEvRS6_PT_ @8109
    _ZNSt16allocator_traitsISaINSt7__cxx1112basic_stringIcSt11char_traitsIcESaIcEEEEE8allocateERS6_y @8110
    _ZNSt16allocator_traitsISaINSt7__cxx1112basic_stringIcSt11char_traitsIcESaIcEEEEE8max_sizeERKS6_ @8111
    _ZNSt16allocator_traitsISaINSt7__cxx1112basic_stringIcSt11char_traitsIcESaIcEEEEE9constructIS5_JRKS5_EEEvRS6_PT_DpOT0_ @8112
    _ZNSt16allocator_traitsISaINSt7__cxx1112basic_stringIcSt11char_traitsIcESaIcEEEEE9constructIS5_JS5_EEEvRS6_PT_DpOT0_ @8113
    _ZNSt16allocator_traitsISaIP14simpleFunctionIdEEE10deallocateERS3_PS2_y @8114
    _ZNSt16allocator_traitsISaIP14simpleFunctionIdEEE37select_on_container_copy_constructionERKS3_ @8115
    _ZNSt16allocator_traitsISaIP14simpleFunctionIdEEE7destroyIS2_EEvRS3_PT_ @8116
    _ZNSt16allocator_traitsISaIP14simpleFunctionIdEEE8allocateERS3_y @8117
    _ZNSt16allocator_traitsISaIP14simpleFunctionIdEEE8max_sizeERKS3_ @8118
    _ZNSt16allocator_traitsISaIP14simpleFunctionIdEEE9constructIS2_JS2_EEEvRS3_PT_DpOT0_ @8119
    _ZNSt16allocator_traitsISaIP7GEntityEE10deallocateERS2_PS1_y @8120
    _ZNSt16allocator_traitsISaIP7GVertexEE10deallocateERS2_PS1_y @8121
    _ZNSt16allocator_traitsISaIP7GVertexEE7destroyIS1_EEvRS2_PT_ @8122
    _ZNSt16allocator_traitsISaIP7GVertexEE8allocateERS2_y @8123
    _ZNSt16allocator_traitsISaIP7GVertexEE8max_sizeERKS2_ @8124
    _ZNSt16allocator_traitsISaIP7GVertexEE9constructIS1_JRKS1_EEEvRS2_PT_DpOT0_ @8125
    _ZNSt16allocator_traitsISaIP8BDS_EdgeEE10deallocateERS2_PS1_y @8126
    _ZNSt16allocator_traitsISaIP8BDS_EdgeEE7destroyIS1_EEvRS2_PT_ @8127
    _ZNSt16allocator_traitsISaIP8BDS_EdgeEE8allocateERS2_y @8128
    _ZNSt16allocator_traitsISaIP8BDS_EdgeEE8max_sizeERKS2_ @8129
    _ZNSt16allocator_traitsISaIP8BDS_EdgeEE9constructIS1_JRKS1_EEEvRS2_PT_DpOT0_ @8130
    _ZNSt16allocator_traitsISaIP8BDS_FaceEE10deallocateERS2_PS1_y @8131
    _ZNSt16allocator_traitsISaIP8BDS_FaceEE7destroyIS1_EEvRS2_PT_ @8132
    _ZNSt16allocator_traitsISaIP8BDS_FaceEE8allocateERS2_y @8133
    _ZNSt16allocator_traitsISaIP8BDS_FaceEE8max_sizeERKS2_ @8134
    _ZNSt16allocator_traitsISaIP8BDS_FaceEE9constructIS1_JRKS1_EEEvRS2_PT_DpOT0_ @8135
    _ZNSt16allocator_traitsISaIP8BDS_FaceEE9constructIS1_JS1_EEEvRS2_PT_DpOT0_ @8136
    _ZNSt16allocator_traitsISaIP9gLevelsetEE10deallocateERS2_PS1_y @8137
    _ZNSt16allocator_traitsISaIP9gLevelsetEE37select_on_container_copy_constructionERKS2_ @8138
    _ZNSt16allocator_traitsISaIP9gLevelsetEE7destroyIS1_EEvRS2_PT_ @8139
    _ZNSt16allocator_traitsISaIP9gLevelsetEE8allocateERS2_y @8140
    _ZNSt16allocator_traitsISaIP9gLevelsetEE8max_sizeERKS2_ @8141
    _ZNSt16allocator_traitsISaIP9gLevelsetEE9constructIS1_JRKS1_EEEvRS2_PT_DpOT0_ @8142
    _ZNSt16allocator_traitsISaIP9gLevelsetEE9constructIS1_JS1_EEEvRS2_PT_DpOT0_ @8143
    _ZNSt16allocator_traitsISaIPP8BDS_FaceEE10deallocateERS3_PS2_y @8144
    _ZNSt16allocator_traitsISaIPP8BDS_FaceEE8allocateERS3_y @8145
    _ZNSt16allocator_traitsISaISt10_List_nodeIP5GEdgeEEE10deallocateERS4_PS3_y @8146
    _ZNSt16allocator_traitsISaISt10_List_nodeIP5GEdgeEEE8allocateERS4_y @8147
    _ZNSt16allocator_traitsISaISt10_List_nodeIP5GEdgeEEE9constructIS2_JRKS2_EEEvRS4_PT_DpOT0_ @8148
    _ZNSt16allocator_traitsISaISt10_List_nodeIP5GFaceEEE10deallocateERS4_PS3_y @8149
    _ZNSt16allocator_traitsISaISt10_List_nodeIP5GFaceEEE8allocateERS4_y @8150
    _ZNSt16allocator_traitsISaISt10_List_nodeIP5GFaceEEE9constructIS2_JRKS2_EEEvRS4_PT_DpOT0_ @8151
    _ZNSt16allocator_traitsISaISt10_List_nodeIP7GVertexEEE10deallocateERS4_PS3_y @8152
    _ZNSt16allocator_traitsISaISt10_List_nodeIP7GVertexEEE8allocateERS4_y @8153
    _ZNSt16allocator_traitsISaISt10_List_nodeIP7GVertexEEE9constructIS2_JRKS2_EEEvRS4_PT_DpOT0_ @8154
    _ZNSt16allocator_traitsISaISt10_List_nodeIP8BDS_EdgeEEE10deallocateERS4_PS3_y @8155
    _ZNSt16allocator_traitsISaISt10_List_nodeIP8BDS_EdgeEEE37select_on_container_copy_constructionERKS4_ @8156
    _ZNSt16allocator_traitsISaISt10_List_nodeIP8BDS_EdgeEEE7destroyIS2_EEvRS4_PT_ @8157
    _ZNSt16allocator_traitsISaISt10_List_nodeIP8BDS_EdgeEEE8allocateERS4_y @8158
    _ZNSt16allocator_traitsISaISt10_List_nodeIP8BDS_EdgeEEE9constructIS2_JRKS2_EEEvRS4_PT_DpOT0_ @8159
    _ZNSt16allocator_traitsISaISt10_List_nodeIP8BDS_EdgeEEE9constructIS2_JS2_EEEvRS4_PT_DpOT0_ @8160
    _ZNSt16allocator_traitsISaISt10_List_nodeIP8BDS_FaceEEE10deallocateERS4_PS3_y @8161
    _ZNSt16allocator_traitsISaISt10_List_nodeIP8BDS_FaceEEE37select_on_container_copy_constructionERKS4_ @8162
    _ZNSt16allocator_traitsISaISt10_List_nodeIP8BDS_FaceEEE7destroyIS2_EEvRS4_PT_ @8163
    _ZNSt16allocator_traitsISaISt10_List_nodeIP8BDS_FaceEEE8allocateERS4_y @8164
    _ZNSt16allocator_traitsISaISt10_List_nodeIP8BDS_FaceEEE9constructIS2_JRKS2_EEEvRS4_PT_DpOT0_ @8165
    _ZNSt16allocator_traitsISaISt10_List_nodeIdEEE10deallocateERS2_PS1_y @8166
    _ZNSt16allocator_traitsISaISt10_List_nodeIdEEE37select_on_container_copy_constructionERKS2_ @8167
    _ZNSt16allocator_traitsISaISt10_List_nodeIdEEE7destroyIdEEvRS2_PT_ @8168
    _ZNSt16allocator_traitsISaISt10_List_nodeIdEEE8allocateERS2_y @8169
    _ZNSt16allocator_traitsISaISt10_List_nodeIdEEE9constructIdJRKdEEEvRS2_PT_DpOT0_ @8170
    _ZNSt16allocator_traitsISaISt10_List_nodeIiEEE10deallocateERS2_PS1_y @8171
    _ZNSt16allocator_traitsISaISt10_List_nodeIiEEE37select_on_container_copy_constructionERKS2_ @8172
    _ZNSt16allocator_traitsISaISt10_List_nodeIiEEE7destroyIiEEvRS2_PT_ @8173
    _ZNSt16allocator_traitsISaISt10_List_nodeIiEEE8allocateERS2_y @8174
    _ZNSt16allocator_traitsISaISt10_List_nodeIiEEE9constructIiJRKiEEEvRS2_PT_DpOT0_ @8175
    _ZNSt16allocator_traitsISaISt10_List_nodeIiEEE9constructIiJiEEEvRS2_PT_DpOT0_ @8176
    _ZNSt16allocator_traitsISaISt13_Rb_tree_nodeI13EdgeToRecoverEEE8allocateERS3_y @8177
    _ZNSt16allocator_traitsISaISt13_Rb_tree_nodeI13EdgeToRecoverEEE9constructIS1_JS1_EEEvRS3_PT_DpOT0_ @8178
    _ZNSt16allocator_traitsISaISt13_Rb_tree_nodeI5MEdgeEEE10deallocateERS3_PS2_y @8179
    _ZNSt16allocator_traitsISaISt13_Rb_tree_nodeI5MEdgeEEE7destroyIS1_EEvRS3_PT_ @8180
    _ZNSt16allocator_traitsISaISt13_Rb_tree_nodeIP14BDS_GeomEntityEEE10deallocateERS4_PS3_y @8181
    _ZNSt16allocator_traitsISaISt13_Rb_tree_nodeIP14BDS_GeomEntityEEE7destroyIS2_EEvRS4_PT_ @8182
    _ZNSt16allocator_traitsISaISt13_Rb_tree_nodeIP14BDS_GeomEntityEEE8allocateERS4_y @8183
    _ZNSt16allocator_traitsISaISt13_Rb_tree_nodeIP14BDS_GeomEntityEEE9constructIS2_JS2_EEEvRS4_PT_DpOT0_ @8184
    _ZNSt16allocator_traitsISaISt13_Rb_tree_nodeIP9BDS_PointEEE10deallocateERS4_PS3_y @8185
    _ZNSt16allocator_traitsISaISt13_Rb_tree_nodeIP9BDS_PointEEE7destroyIS2_EEvRS4_PT_ @8186
    _ZNSt16allocator_traitsISaISt13_Rb_tree_nodeIP9BDS_PointEEE8allocateERS4_y @8187
    _ZNSt16allocator_traitsISaISt13_Rb_tree_nodeIP9BDS_PointEEE9constructIS2_JRKS2_EEEvRS4_PT_DpOT0_ @8188
    _ZNSt16allocator_traitsISaISt13_Rb_tree_nodeISt4pairIKNSt7__cxx1112basic_stringIcSt11char_traitsIcESaIcEEE13gmsh_yysymbolEEEE10deallocateERSC_PSB_y @8189
    _ZNSt16allocator_traitsISaISt13_Rb_tree_nodeISt4pairIKNSt7__cxx1112basic_stringIcSt11char_traitsIcESaIcEEE13gmsh_yysymbolEEEE7destroyISA_EEvRSC_PT_ @8190
    _ZNSt16allocator_traitsISaISt13_Rb_tree_nodeISt4pairIKNSt7__cxx1112basic_stringIcSt11char_traitsIcESaIcEEE13gmsh_yysymbolEEEE8allocateERSC_y @8191
    _ZNSt16allocator_traitsISaISt13_Rb_tree_nodeISt4pairIKNSt7__cxx1112basic_stringIcSt11char_traitsIcESaIcEEE13gmsh_yysymbolEEEE9constructISA_JRKSt21piecewise_construct_tSt5tupleIJOS7_EESI_IJEEEEEvRSC_PT_DpOT0_ @8192
    _ZNSt16allocator_traitsISaISt13_Rb_tree_nodeISt4pairIKNSt7__cxx1112basic_stringIcSt11char_traitsIcESaIcEEE13gmsh_yysymbolEEEE9constructISA_JRKSt21piecewise_construct_tSt5tupleIJRS8_EESI_IJEEEEEvRSC_PT_DpOT0_ @8193
    _ZNSt16allocator_traitsISaISt13_Rb_tree_nodeISt4pairIKNSt7__cxx1112basic_stringIcSt11char_traitsIcESaIcEEE6StructEEEE10deallocateERSC_PSB_y @8194
    _ZNSt16allocator_traitsISaISt13_Rb_tree_nodeISt4pairIKNSt7__cxx1112basic_stringIcSt11char_traitsIcESaIcEEE6StructEEEE7destroyISA_EEvRSC_PT_ @8195
    _ZNSt16allocator_traitsISaISt13_Rb_tree_nodeISt4pairIKNSt7__cxx1112basic_stringIcSt11char_traitsIcESaIcEEE6StructEEEE8allocateERSC_y @8196
    _ZNSt16allocator_traitsISaISt13_Rb_tree_nodeISt4pairIKNSt7__cxx1112basic_stringIcSt11char_traitsIcESaIcEEE6StructEEEE9constructISA_JRKSt21piecewise_construct_tSt5tupleIJRS8_EESI_IJEEEEEvRSC_PT_DpOT0_ @8197
    _ZNSt16allocator_traitsISaISt13_Rb_tree_nodeISt4pairIKNSt7__cxx1112basic_stringIcSt11char_traitsIcESaIcEEE7StructsEEEE10deallocateERSC_PSB_y @8198
    _ZNSt16allocator_traitsISaISt13_Rb_tree_nodeISt4pairIKNSt7__cxx1112basic_stringIcSt11char_traitsIcESaIcEEE7StructsEEEE7destroyISA_EEvRSC_PT_ @8199
    _ZNSt16allocator_traitsISaISt13_Rb_tree_nodeISt4pairIKNSt7__cxx1112basic_stringIcSt11char_traitsIcESaIcEEE7StructsEEEE8allocateERSC_y @8200
    _ZNSt16allocator_traitsISaISt13_Rb_tree_nodeISt4pairIKNSt7__cxx1112basic_stringIcSt11char_traitsIcESaIcEEE7StructsEEEE9constructISA_JRKSt21piecewise_construct_tSt5tupleIJRS8_EESI_IJEEEEEvRSC_PT_DpOT0_ @8201
    _ZNSt16allocator_traitsISaISt13_Rb_tree_nodeISt4pairIKNSt7__cxx1112basic_stringIcSt11char_traitsIcESaIcEEEP11FieldOptionEEEE10deallocateERSD_PSC_y @8202
    _ZNSt16allocator_traitsISaISt13_Rb_tree_nodeISt4pairIKNSt7__cxx1112basic_stringIcSt11char_traitsIcESaIcEEEP11FieldOptionEEEE7destroyISB_EEvRSD_PT_ @8203
    _ZNSt16allocator_traitsISaISt13_Rb_tree_nodeISt4pairIKNSt7__cxx1112basic_stringIcSt11char_traitsIcESaIcEEEP11FieldOptionEEEE8allocateERSD_y @8204
    _ZNSt16allocator_traitsISaISt13_Rb_tree_nodeISt4pairIKNSt7__cxx1112basic_stringIcSt11char_traitsIcESaIcEEEP11FieldOptionEEEE9constructISB_JRKSt21piecewise_construct_tSt5tupleIJOS7_EESJ_IJEEEEEvRSD_PT_DpOT0_ @8205
    _ZNSt16allocator_traitsISaISt13_Rb_tree_nodeISt4pairIKNSt7__cxx1112basic_stringIcSt11char_traitsIcESaIcEEEP13FieldCallbackEEEE10deallocateERSD_PSC_y @8206
    _ZNSt16allocator_traitsISaISt13_Rb_tree_nodeISt4pairIKNSt7__cxx1112basic_stringIcSt11char_traitsIcESaIcEEEP13FieldCallbackEEEE7destroyISB_EEvRSD_PT_ @8207
    _ZNSt16allocator_traitsISaISt13_Rb_tree_nodeISt4pairIKNSt7__cxx1112basic_stringIcSt11char_traitsIcESaIcEEEP13FieldCallbackEEEE8allocateERSD_y @8208
    _ZNSt16allocator_traitsISaISt13_Rb_tree_nodeISt4pairIKNSt7__cxx1112basic_stringIcSt11char_traitsIcESaIcEEEP13FieldCallbackEEEE9constructISB_JRKSt21piecewise_construct_tSt5tupleIJOS7_EESJ_IJEEEEEvRSD_PT_DpOT0_ @8209
    _ZNSt16allocator_traitsISaISt13_Rb_tree_nodeISt4pairIKNSt7__cxx1112basic_stringIcSt11char_traitsIcESaIcEEESt6vectorIS7_SaIS7_EEEEEE10deallocateERSE_PSD_y @8210
    _ZNSt16allocator_traitsISaISt13_Rb_tree_nodeISt4pairIKNSt7__cxx1112basic_stringIcSt11char_traitsIcESaIcEEESt6vectorIS7_SaIS7_EEEEEE37select_on_container_copy_constructionERKSE_ @8211
    _ZNSt16allocator_traitsISaISt13_Rb_tree_nodeISt4pairIKNSt7__cxx1112basic_stringIcSt11char_traitsIcESaIcEEESt6vectorIS7_SaIS7_EEEEEE7destroyISC_EEvRSE_PT_ @8212
    _ZNSt16allocator_traitsISaISt13_Rb_tree_nodeISt4pairIKNSt7__cxx1112basic_stringIcSt11char_traitsIcESaIcEEESt6vectorIS7_SaIS7_EEEEEE8allocateERSE_y @8213
    _ZNSt16allocator_traitsISaISt13_Rb_tree_nodeISt4pairIKNSt7__cxx1112basic_stringIcSt11char_traitsIcESaIcEEESt6vectorIS7_SaIS7_EEEEEE9constructISC_JRKSC_EEEvRSE_PT_DpOT0_ @8214
    _ZNSt16allocator_traitsISaISt13_Rb_tree_nodeISt4pairIKNSt7__cxx1112basic_stringIcSt11char_traitsIcESaIcEEESt6vectorIS7_SaIS7_EEEEEE9constructISC_JRKSt21piecewise_construct_tSt5tupleIJOS7_EESK_IJEEEEEvRSE_PT_DpOT0_ @8215
    _ZNSt16allocator_traitsISaISt13_Rb_tree_nodeISt4pairIKNSt7__cxx1112basic_stringIcSt11char_traitsIcESaIcEEESt6vectorIS7_SaIS7_EEEEEE9constructISC_JRKSt21piecewise_construct_tSt5tupleIJRS8_EESK_IJEEEEEvRSE_PT_DpOT0_ @8216
    _ZNSt16allocator_traitsISaISt13_Rb_tree_nodeISt4pairIKNSt7__cxx1112basic_stringIcSt11char_traitsIcESaIcEEESt6vectorIS7_SaIS7_EEEEEE9constructISC_JRSC_EEEvRSE_PT_DpOT0_ @8217
    _ZNSt16allocator_traitsISaISt13_Rb_tree_nodeISt4pairIKNSt7__cxx1112basic_stringIcSt11char_traitsIcESaIcEEESt6vectorIdSaIdEEEEEE10deallocateERSE_PSD_y @8218
    _ZNSt16allocator_traitsISaISt13_Rb_tree_nodeISt4pairIKNSt7__cxx1112basic_stringIcSt11char_traitsIcESaIcEEESt6vectorIdSaIdEEEEEE37select_on_container_copy_constructionERKSE_ @8219
    _ZNSt16allocator_traitsISaISt13_Rb_tree_nodeISt4pairIKNSt7__cxx1112basic_stringIcSt11char_traitsIcESaIcEEESt6vectorIdSaIdEEEEEE7destroyISC_EEvRSE_PT_ @8220
    _ZNSt16allocator_traitsISaISt13_Rb_tree_nodeISt4pairIKNSt7__cxx1112basic_stringIcSt11char_traitsIcESaIcEEESt6vectorIdSaIdEEEEEE8allocateERSE_y @8221
    _ZNSt16allocator_traitsISaISt13_Rb_tree_nodeISt4pairIKNSt7__cxx1112basic_stringIcSt11char_traitsIcESaIcEEESt6vectorIdSaIdEEEEEE9constructISC_JRKSC_EEEvRSE_PT_DpOT0_ @8222
    _ZNSt16allocator_traitsISaISt13_Rb_tree_nodeISt4pairIKNSt7__cxx1112basic_stringIcSt11char_traitsIcESaIcEEESt6vectorIdSaIdEEEEEE9constructISC_JRKSt21piecewise_construct_tSt5tupleIJOS7_EESK_IJEEEEEvRSE_PT_DpOT0_ @8223
    _ZNSt16allocator_traitsISaISt13_Rb_tree_nodeISt4pairIKNSt7__cxx1112basic_stringIcSt11char_traitsIcESaIcEEESt6vectorIdSaIdEEEEEE9constructISC_JRKSt21piecewise_construct_tSt5tupleIJRS8_EESK_IJEEEEEvRSE_PT_DpOT0_ @8224
    _ZNSt16allocator_traitsISaISt13_Rb_tree_nodeISt4pairIKNSt7__cxx1112basic_stringIcSt11char_traitsIcESaIcEEESt6vectorIdSaIdEEEEEE9constructISC_JRSC_EEEvRSE_PT_DpOT0_ @8225
    _ZNSt16allocator_traitsISaISt13_Rb_tree_nodeISt4pairIKiS1_IdSt6vectorIiSaIiEEEEEEE10deallocateERS9_PS8_y @8226
    _ZNSt16allocator_traitsISaISt13_Rb_tree_nodeISt4pairIKiS1_IdSt6vectorIiSaIiEEEEEEE7destroyIS7_EEvRS9_PT_ @8227
    _ZNSt16allocator_traitsISaISt13_Rb_tree_nodeISt4pairIKiS1_IdSt6vectorIiSaIiEEEEEEE8allocateERS9_y @8228
    _ZNSt16allocator_traitsISaISt13_Rb_tree_nodeISt4pairIKiS1_IdSt6vectorIiSaIiEEEEEEE9constructIS7_JRKSt21piecewise_construct_tSt5tupleIJRS2_EESF_IJEEEEEvRS9_PT_DpOT0_ @8229
    _ZNSt16allocator_traitsISaISt13_Rb_tree_nodeISt4pairIKiSt6vectorIP7GEntitySaIS5_EEEEEE10deallocateERSA_PS9_y @8230
    _ZNSt16allocator_traitsISaISt13_Rb_tree_nodeISt4pairIKiSt6vectorIP7GEntitySaIS5_EEEEEE7destroyIS8_EEvRSA_PT_ @8231
    _ZNSt16allocator_traitsISaISt13_Rb_tree_nodeISt4pairIKiiEEEE10deallocateERS5_PS4_y @8232
    _ZNSt16allocator_traitsISaISt13_Rb_tree_nodeISt4pairIKiiEEEE7destroyIS3_EEvRS5_PT_ @8233
    _ZNSt16allocator_traitsISaISt13_Rb_tree_nodeISt4pairIKiiEEEE8allocateERS5_y @8234
    _ZNSt16allocator_traitsISaISt13_Rb_tree_nodeISt4pairIKiiEEEE9constructIS3_JRKSt21piecewise_construct_tSt5tupleIJOiEESB_IJEEEEEvRS5_PT_DpOT0_ @8235
    _ZNSt16allocator_traitsISaISt4pairIiiEEE10deallocateERS2_PS1_y @8236
    _ZNSt16allocator_traitsISaISt4pairIiiEEE7destroyIS1_EEvRS2_PT_ @8237
    _ZNSt16allocator_traitsISaISt4pairIiiEEE8allocateERS2_y @8238
    _ZNSt16allocator_traitsISaISt4pairIiiEEE8max_sizeERKS2_ @8239
    _ZNSt16allocator_traitsISaISt4pairIiiEEE9constructIS1_JS1_EEEvRS2_PT_DpOT0_ @8240
    _ZNSt16allocator_traitsISaISt6vectorISt4pairIiiESaIS2_EEEE10deallocateERS5_PS4_y @8241
    _ZNSt16allocator_traitsISaISt6vectorIdSaIdEEEE10deallocateERS3_PS2_y @8242
    _ZNSt16allocator_traitsISaISt6vectorIdSaIdEEEE37select_on_container_copy_constructionERKS3_ @8243
    _ZNSt16allocator_traitsISaISt6vectorIdSaIdEEEE7destroyIS2_EEvRS3_PT_ @8244
    _ZNSt16allocator_traitsISaISt6vectorIdSaIdEEEE8allocateERS3_y @8245
    _ZNSt16allocator_traitsISaISt6vectorIdSaIdEEEE8max_sizeERKS3_ @8246
    _ZNSt16allocator_traitsISaISt6vectorIdSaIdEEEE9constructIS2_JS2_EEEvRS3_PT_DpOT0_ @8247
    _ZNSt16allocator_traitsISaIcEE10deallocateERS0_Pcy @8248
    _ZNSt16allocator_traitsISaIcEE37select_on_container_copy_constructionERKS0_ @8249
    _ZNSt16allocator_traitsISaIcEE7destroyIcEEvRS0_PT_ @8250
    _ZNSt16allocator_traitsISaIcEE8allocateERS0_y @8251
    _ZNSt16allocator_traitsISaIcEE8max_sizeERKS0_ @8252
    _ZNSt16allocator_traitsISaIcEE9constructIcJRKcEEEvRS0_PT_DpOT0_ @8253
    _ZNSt16allocator_traitsISaIdEE10deallocateERS0_Pdy @8254
    _ZNSt16allocator_traitsISaIdEE37select_on_container_copy_constructionERKS0_ @8255
    _ZNSt16allocator_traitsISaIdEE7destroyIdEEvRS0_PT_ @8256
    _ZNSt16allocator_traitsISaIdEE8allocateERS0_y @8257
    _ZNSt16allocator_traitsISaIdEE8max_sizeERKS0_ @8258
    _ZNSt16allocator_traitsISaIdEE9constructIdJRKdEEEvRS0_PT_DpOT0_ @8259
    _ZNSt16allocator_traitsISaIdEE9constructIdJdEEEvRS0_PT_DpOT0_ @8260
    _ZNSt16allocator_traitsISaIiEE10deallocateERS0_Piy @8261
    _ZNSt16allocator_traitsISaIiEE37select_on_container_copy_constructionERKS0_ @8262
    _ZNSt16allocator_traitsISaIiEE7destroyIiEEvRS0_PT_ @8263
    _ZNSt16allocator_traitsISaIiEE8allocateERS0_y @8264
    _ZNSt16allocator_traitsISaIiEE8max_sizeERKS0_ @8265
    _ZNSt16allocator_traitsISaIiEE9constructIiJRKiEEEvRS0_PT_DpOT0_ @8266
    _ZNSt16allocator_traitsISaIiEE9constructIiJiEEEvRS0_PT_DpOT0_ @8267
    _ZNSt17_Rb_tree_iteratorI13EdgeToRecoverEC1EPSt18_Rb_tree_node_base @8268
    _ZNSt17_Rb_tree_iteratorI13EdgeToRecoverEmmEv @8269
    _ZNSt17_Rb_tree_iteratorIP14BDS_GeomEntityEC1EPSt18_Rb_tree_node_base @8270
    _ZNSt17_Rb_tree_iteratorIP14BDS_GeomEntityEmmEv @8271
    _ZNSt17_Rb_tree_iteratorIP9BDS_PointEC1EPSt18_Rb_tree_node_base @8272
    _ZNSt17_Rb_tree_iteratorIP9BDS_PointEmmEv @8273
    _ZNSt17_Rb_tree_iteratorISt4pairIKNSt7__cxx1112basic_stringIcSt11char_traitsIcESaIcEEE13gmsh_yysymbolEEC1EPSt18_Rb_tree_node_base @8274
    _ZNSt17_Rb_tree_iteratorISt4pairIKNSt7__cxx1112basic_stringIcSt11char_traitsIcESaIcEEE13gmsh_yysymbolEEmmEv @8275
    _ZNSt17_Rb_tree_iteratorISt4pairIKNSt7__cxx1112basic_stringIcSt11char_traitsIcESaIcEEE13gmsh_yysymbolEEppEi @8276
    _ZNSt17_Rb_tree_iteratorISt4pairIKNSt7__cxx1112basic_stringIcSt11char_traitsIcESaIcEEE13gmsh_yysymbolEEppEv @8277
    _ZNSt17_Rb_tree_iteratorISt4pairIKNSt7__cxx1112basic_stringIcSt11char_traitsIcESaIcEEE6StructEEC1EPSt18_Rb_tree_node_base @8278
    _ZNSt17_Rb_tree_iteratorISt4pairIKNSt7__cxx1112basic_stringIcSt11char_traitsIcESaIcEEE6StructEEmmEv @8279
    _ZNSt17_Rb_tree_iteratorISt4pairIKNSt7__cxx1112basic_stringIcSt11char_traitsIcESaIcEEE6StructEEppEv @8280
    _ZNSt17_Rb_tree_iteratorISt4pairIKNSt7__cxx1112basic_stringIcSt11char_traitsIcESaIcEEE7StructsEEC1EPSt18_Rb_tree_node_base @8281
    _ZNSt17_Rb_tree_iteratorISt4pairIKNSt7__cxx1112basic_stringIcSt11char_traitsIcESaIcEEE7StructsEEC1Ev @8282
    _ZNSt17_Rb_tree_iteratorISt4pairIKNSt7__cxx1112basic_stringIcSt11char_traitsIcESaIcEEE7StructsEEmmEv @8283
    _ZNSt17_Rb_tree_iteratorISt4pairIKNSt7__cxx1112basic_stringIcSt11char_traitsIcESaIcEEE7StructsEEppEv @8284
    _ZNSt17_Rb_tree_iteratorISt4pairIKNSt7__cxx1112basic_stringIcSt11char_traitsIcESaIcEEEP11FieldOptionEEC1EPSt18_Rb_tree_node_base @8285
    _ZNSt17_Rb_tree_iteratorISt4pairIKNSt7__cxx1112basic_stringIcSt11char_traitsIcESaIcEEEP11FieldOptionEEmmEv @8286
    _ZNSt17_Rb_tree_iteratorISt4pairIKNSt7__cxx1112basic_stringIcSt11char_traitsIcESaIcEEEP11FieldOptionEEppEv @8287
    _ZNSt17_Rb_tree_iteratorISt4pairIKNSt7__cxx1112basic_stringIcSt11char_traitsIcESaIcEEEP13FieldCallbackEEC1EPSt18_Rb_tree_node_base @8288
    _ZNSt17_Rb_tree_iteratorISt4pairIKNSt7__cxx1112basic_stringIcSt11char_traitsIcESaIcEEEP13FieldCallbackEEmmEv @8289
    _ZNSt17_Rb_tree_iteratorISt4pairIKNSt7__cxx1112basic_stringIcSt11char_traitsIcESaIcEEEP13FieldCallbackEEppEv @8290
    _ZNSt17_Rb_tree_iteratorISt4pairIKNSt7__cxx1112basic_stringIcSt11char_traitsIcESaIcEEESt6vectorIS6_SaIS6_EEEEC1EPSt18_Rb_tree_node_base @8291
    _ZNSt17_Rb_tree_iteratorISt4pairIKNSt7__cxx1112basic_stringIcSt11char_traitsIcESaIcEEESt6vectorIS6_SaIS6_EEEEmmEv @8292
    _ZNSt17_Rb_tree_iteratorISt4pairIKNSt7__cxx1112basic_stringIcSt11char_traitsIcESaIcEEESt6vectorIS6_SaIS6_EEEEppEi @8293
    _ZNSt17_Rb_tree_iteratorISt4pairIKNSt7__cxx1112basic_stringIcSt11char_traitsIcESaIcEEESt6vectorIS6_SaIS6_EEEEppEv @8294
    _ZNSt17_Rb_tree_iteratorISt4pairIKNSt7__cxx1112basic_stringIcSt11char_traitsIcESaIcEEESt6vectorIdSaIdEEEEC1EPSt18_Rb_tree_node_base @8295
    _ZNSt17_Rb_tree_iteratorISt4pairIKNSt7__cxx1112basic_stringIcSt11char_traitsIcESaIcEEESt6vectorIdSaIdEEEEmmEv @8296
    _ZNSt17_Rb_tree_iteratorISt4pairIKNSt7__cxx1112basic_stringIcSt11char_traitsIcESaIcEEESt6vectorIdSaIdEEEEppEv @8297
    _ZNSt17_Rb_tree_iteratorISt4pairIKiS0_IdSt6vectorIiSaIiEEEEEC1EPSt18_Rb_tree_node_base @8298
    _ZNSt17_Rb_tree_iteratorISt4pairIKiS0_IdSt6vectorIiSaIiEEEEEmmEv @8299
    _ZNSt17_Rb_tree_iteratorISt4pairIKiS0_IdSt6vectorIiSaIiEEEEEppEv @8300
    _ZNSt17_Rb_tree_iteratorISt4pairIKiSt6vectorIP7GEntitySaIS4_EEEEC1EPSt18_Rb_tree_node_base @8301
    _ZNSt17_Rb_tree_iteratorISt4pairIKiSt6vectorIP7GEntitySaIS4_EEEEppEi @8302
    _ZNSt17_Rb_tree_iteratorISt4pairIKiiEEC1EPSt18_Rb_tree_node_base @8303
    _ZNSt17_Rb_tree_iteratorISt4pairIKiiEEmmEv @8304
    _ZNSt17_Rb_tree_iteratorISt4pairIKiiEEppEv @8305
    _ZNSt18_Rb_tree_node_base10_S_maximumEPS_ @8306
    _ZNSt18_Rb_tree_node_base10_S_minimumEPS_ @8307
    _ZNSt20_List_const_iteratorIP8BDS_EdgeEC1EPKNSt8__detail15_List_node_baseE @8308
    _ZNSt20_List_const_iteratorIP8BDS_EdgeEC1ERKSt14_List_iteratorIS1_E @8309
    _ZNSt20_List_const_iteratorIP8BDS_EdgeEppEv @8310
    _ZNSt20_List_const_iteratorIP8BDS_FaceEC1EPKNSt8__detail15_List_node_baseE @8311
    _ZNSt20_List_const_iteratorIP8BDS_FaceEC1ERKSt14_List_iteratorIS1_E @8312
    _ZNSt20_List_const_iteratorIP8BDS_FaceEppEv @8313
    _ZNSt20_List_const_iteratorIdEC1EPKNSt8__detail15_List_node_baseE @8314
    _ZNSt20_List_const_iteratorIdEppEv @8315
    _ZNSt20_List_const_iteratorIiEC1EPKNSt8__detail15_List_node_baseE @8316
    _ZNSt20_List_const_iteratorIiEppEv @8317
    _ZNSt20_Rb_tree_key_compareI9Less_EdgeEC2Ev @8318
    _ZNSt20_Rb_tree_key_compareISt4lessINSt7__cxx1112basic_stringIcSt11char_traitsIcESaIcEEEEEC2ERKS7_ @8319
    _ZNSt20_Rb_tree_key_compareISt4lessINSt7__cxx1112basic_stringIcSt11char_traitsIcESaIcEEEEEC2Ev @8320
    _ZNSt20_Rb_tree_key_compareISt4lessIiEEC2Ev @8321
    _ZNSt20__copy_move_backwardILb0ELb1ESt26random_access_iterator_tagE13__copy_move_bIPP8BDS_FaceEEPT_PKS6_S9_S7_ @8322
    _ZNSt20__copy_move_backwardILb1ELb0ESt26random_access_iterator_tagE13__copy_move_bIPNSt7__cxx1112basic_stringIcSt11char_traitsIcESaIcEEES9_EET0_T_SB_SA_ @8323
    _ZNSt20__copy_move_backwardILb1ELb1ESt26random_access_iterator_tagE13__copy_move_bIdEEPT_PKS3_S6_S4_ @8324
    _ZNSt20__uninitialized_copyILb0EE13__uninit_copyIN9__gnu_cxx17__normal_iteratorIPKNSt7__cxx1112basic_stringIcSt11char_traitsIcESaIcEEESt6vectorIS9_SaIS9_EEEEPS9_EET0_T_SI_SH_ @8325
    _ZNSt20__uninitialized_copyILb0EE13__uninit_copyIN9__gnu_cxx17__normal_iteratorIPKSt6vectorIdSaIdEES4_IS6_SaIS6_EEEEPS6_EET0_T_SE_SD_ @8326
    _ZNSt20__uninitialized_copyILb0EE13__uninit_copyIN9__gnu_cxx17__normal_iteratorIPNSt7__cxx1112basic_stringIcSt11char_traitsIcESaIcEEESt6vectorIS9_SaIS9_EEEESA_EET0_T_SG_SF_ @8327
    _ZNSt20__uninitialized_copyILb0EE13__uninit_copyIPNSt7__cxx1112basic_stringIcSt11char_traitsIcESaIcEEES8_EET0_T_SA_S9_ @8328
    _ZNSt20__uninitialized_copyILb0EE13__uninit_copyISt13move_iteratorIPNSt7__cxx1112basic_stringIcSt11char_traitsIcESaIcEEEES9_EET0_T_SC_SB_ @8329
    _ZNSt20__uninitialized_copyILb0EE13__uninit_copyISt13move_iteratorIPSt4pairIiiEES5_EET0_T_S8_S7_ @8330
    _ZNSt20__uninitialized_copyILb0EE13__uninit_copyISt13move_iteratorIPSt6vectorIdSaIdEEES6_EET0_T_S9_S8_ @8331
    _ZNSt20__uninitialized_copyILb1EE13__uninit_copyIN9__gnu_cxx17__normal_iteratorIPKP14simpleFunctionIdESt6vectorIS6_SaIS6_EEEEPS6_EET0_T_SF_SE_ @8332
    _ZNSt20__uninitialized_copyILb1EE13__uninit_copyIN9__gnu_cxx17__normal_iteratorIPKP9gLevelsetSt6vectorIS5_SaIS5_EEEEPS5_EET0_T_SE_SD_ @8333
    _ZNSt20__uninitialized_copyILb1EE13__uninit_copyIN9__gnu_cxx17__normal_iteratorIPKdSt6vectorIdSaIdEEEEPdEET0_T_SC_SB_ @8334
    _ZNSt20__uninitialized_copyILb1EE13__uninit_copyIN9__gnu_cxx17__normal_iteratorIPKiSt6vectorIiSaIiEEEEPiEET0_T_SC_SB_ @8335
    _ZNSt20__uninitialized_copyILb1EE13__uninit_copyIPP9gLevelsetS4_EET0_T_S6_S5_ @8336
    _ZNSt20__uninitialized_copyILb1EE13__uninit_copyIPdS2_EET0_T_S4_S3_ @8337
    _ZNSt20__uninitialized_copyILb1EE13__uninit_copyIPiS2_EET0_T_S4_S3_ @8338
    _ZNSt20__uninitialized_copyILb1EE13__uninit_copyISt13move_iteratorIPP14simpleFunctionIdEES6_EET0_T_S9_S8_ @8339
    _ZNSt20__uninitialized_copyILb1EE13__uninit_copyISt13move_iteratorIPP7GVertexES5_EET0_T_S8_S7_ @8340
    _ZNSt20__uninitialized_copyILb1EE13__uninit_copyISt13move_iteratorIPP8BDS_EdgeES5_EET0_T_S8_S7_ @8341
    _ZNSt20__uninitialized_copyILb1EE13__uninit_copyISt13move_iteratorIPP8BDS_FaceES5_EET0_T_S8_S7_ @8342
    _ZNSt20__uninitialized_copyILb1EE13__uninit_copyISt13move_iteratorIPP9gLevelsetES5_EET0_T_S8_S7_ @8343
    _ZNSt20__uninitialized_copyILb1EE13__uninit_copyISt13move_iteratorIPcES3_EET0_T_S6_S5_ @8344
    _ZNSt20__uninitialized_copyILb1EE13__uninit_copyISt13move_iteratorIPdES3_EET0_T_S6_S5_ @8345
    _ZNSt20__uninitialized_copyILb1EE13__uninit_copyISt13move_iteratorIPiES3_EET0_T_S6_S5_ @8346
    _ZNSt22__uninitialized_fill_nILb0EE15__uninit_fill_nIPNSt7__cxx1112basic_stringIcSt11char_traitsIcESaIcEEEyS7_EET_S9_T0_RKT1_ @8347
    _ZNSt22__uninitialized_fill_nILb1EE15__uninit_fill_nIPdydEET_S3_T0_RKT1_ @8348
    _ZNSt23_Rb_tree_const_iteratorI13EdgeToRecoverEC1EPKSt18_Rb_tree_node_base @8349
    _ZNSt23_Rb_tree_const_iteratorI13EdgeToRecoverEC1ERKSt17_Rb_tree_iteratorIS0_E @8350
    _ZNSt23_Rb_tree_const_iteratorIP14BDS_GeomEntityEC1EPKSt18_Rb_tree_node_base @8351
    _ZNSt23_Rb_tree_const_iteratorIP14BDS_GeomEntityEC1ERKSt17_Rb_tree_iteratorIS1_E @8352
    _ZNSt23_Rb_tree_const_iteratorIP14BDS_GeomEntityEppEi @8353
    _ZNSt23_Rb_tree_const_iteratorIP5GEdgeEC1EPKSt18_Rb_tree_node_base @8354
    _ZNSt23_Rb_tree_const_iteratorIP5GEdgeEppEi @8355
    _ZNSt23_Rb_tree_const_iteratorIP5GFaceEC1EPKSt18_Rb_tree_node_base @8356
    _ZNSt23_Rb_tree_const_iteratorIP5GFaceEppEi @8357
    _ZNSt23_Rb_tree_const_iteratorIP7GRegionEC1EPKSt18_Rb_tree_node_base @8358
    _ZNSt23_Rb_tree_const_iteratorIP7GRegionEppEi @8359
    _ZNSt23_Rb_tree_const_iteratorIP7GVertexEC1EPKSt18_Rb_tree_node_base @8360
    _ZNSt23_Rb_tree_const_iteratorIP7GVertexEppEi @8361
    _ZNSt23_Rb_tree_const_iteratorIP9BDS_PointEC1EPKSt18_Rb_tree_node_base @8362
    _ZNSt23_Rb_tree_const_iteratorIP9BDS_PointEC1ERKSt17_Rb_tree_iteratorIS1_E @8363
    _ZNSt23_Rb_tree_const_iteratorIP9BDS_PointEppEi @8364
    _ZNSt23_Rb_tree_const_iteratorISt4pairIKNSt7__cxx1112basic_stringIcSt11char_traitsIcESaIcEEE13gmsh_yysymbolEEC1EPKSt18_Rb_tree_node_base @8365
    _ZNSt23_Rb_tree_const_iteratorISt4pairIKNSt7__cxx1112basic_stringIcSt11char_traitsIcESaIcEEE13gmsh_yysymbolEEC1ERKSt17_Rb_tree_iteratorIS9_E @8366
    _ZNSt23_Rb_tree_const_iteratorISt4pairIKNSt7__cxx1112basic_stringIcSt11char_traitsIcESaIcEEE13gmsh_yysymbolEEppEi @8367
    _ZNSt23_Rb_tree_const_iteratorISt4pairIKNSt7__cxx1112basic_stringIcSt11char_traitsIcESaIcEEE6StructEEC1EPKSt18_Rb_tree_node_base @8368
    _ZNSt23_Rb_tree_const_iteratorISt4pairIKNSt7__cxx1112basic_stringIcSt11char_traitsIcESaIcEEE6StructEEC1ERKSt17_Rb_tree_iteratorIS9_E @8369
    _ZNSt23_Rb_tree_const_iteratorISt4pairIKNSt7__cxx1112basic_stringIcSt11char_traitsIcESaIcEEE6StructEEC1Ev @8370
    _ZNSt23_Rb_tree_const_iteratorISt4pairIKNSt7__cxx1112basic_stringIcSt11char_traitsIcESaIcEEE6StructEEppEv @8371
    _ZNSt23_Rb_tree_const_iteratorISt4pairIKNSt7__cxx1112basic_stringIcSt11char_traitsIcESaIcEEE7StructsEEC1EPKSt18_Rb_tree_node_base @8372
    _ZNSt23_Rb_tree_const_iteratorISt4pairIKNSt7__cxx1112basic_stringIcSt11char_traitsIcESaIcEEE7StructsEEC1ERKSt17_Rb_tree_iteratorIS9_E @8373
    _ZNSt23_Rb_tree_const_iteratorISt4pairIKNSt7__cxx1112basic_stringIcSt11char_traitsIcESaIcEEE7StructsEEC1Ev @8374
    _ZNSt23_Rb_tree_const_iteratorISt4pairIKNSt7__cxx1112basic_stringIcSt11char_traitsIcESaIcEEE7StructsEEppEv @8375
    _ZNSt23_Rb_tree_const_iteratorISt4pairIKNSt7__cxx1112basic_stringIcSt11char_traitsIcESaIcEEEP11FieldOptionEEC1ERKSt17_Rb_tree_iteratorISA_E @8376
    _ZNSt23_Rb_tree_const_iteratorISt4pairIKNSt7__cxx1112basic_stringIcSt11char_traitsIcESaIcEEEP13FieldCallbackEEC1ERKSt17_Rb_tree_iteratorISA_E @8377
    _ZNSt23_Rb_tree_const_iteratorISt4pairIKNSt7__cxx1112basic_stringIcSt11char_traitsIcESaIcEEESt6vectorIS6_SaIS6_EEEEC1EPKSt18_Rb_tree_node_base @8378
    _ZNSt23_Rb_tree_const_iteratorISt4pairIKNSt7__cxx1112basic_stringIcSt11char_traitsIcESaIcEEESt6vectorIS6_SaIS6_EEEEC1ERKSt17_Rb_tree_iteratorISB_E @8379
    _ZNSt23_Rb_tree_const_iteratorISt4pairIKNSt7__cxx1112basic_stringIcSt11char_traitsIcESaIcEEESt6vectorIS6_SaIS6_EEEEppEv @8380
    _ZNSt23_Rb_tree_const_iteratorISt4pairIKNSt7__cxx1112basic_stringIcSt11char_traitsIcESaIcEEESt6vectorIdSaIdEEEEC1EPKSt18_Rb_tree_node_base @8381
    _ZNSt23_Rb_tree_const_iteratorISt4pairIKNSt7__cxx1112basic_stringIcSt11char_traitsIcESaIcEEESt6vectorIdSaIdEEEEC1ERKSt17_Rb_tree_iteratorISB_E @8382
    _ZNSt23_Rb_tree_const_iteratorISt4pairIKNSt7__cxx1112basic_stringIcSt11char_traitsIcESaIcEEESt6vectorIdSaIdEEEEppEv @8383
    _ZNSt23_Rb_tree_const_iteratorISt4pairIKiS0_IdSt6vectorIiSaIiEEEEEC1ERKSt17_Rb_tree_iteratorIS6_E @8384
    _ZNSt23_Rb_tree_const_iteratorISt4pairIKiiEEC1EPKSt18_Rb_tree_node_base @8385
    _ZNSt23_Rb_tree_const_iteratorISt4pairIKiiEEC1ERKSt17_Rb_tree_iteratorIS2_E @8386
    _ZNSt23_Rb_tree_const_iteratorISt4pairIKiiEEppEv @8387
    _ZNSt27__uninitialized_default_n_1ILb0EE18__uninit_default_nIPSt6vectorIdSaIdEEyEET_S6_T0_ @8388
    _ZNSt27__uninitialized_default_n_1ILb1EE18__uninit_default_nIPdyEET_S3_T0_ @8389
    _ZNSt3mapI5MFaceSt6vectorIP7MVertexSaIS3_EE9Less_FaceSaISt4pairIKS0_S5_EEEixERS8_ @8390
    _ZNSt3mapINSt7__cxx1112basic_stringIcSt11char_traitsIcESaIcEEE13gmsh_yysymbolSt4lessIS5_ESaISt4pairIKS5_S6_EEE11lower_boundERSA_ @8391
    _ZNSt3mapINSt7__cxx1112basic_stringIcSt11char_traitsIcESaIcEEE13gmsh_yysymbolSt4lessIS5_ESaISt4pairIKS5_S6_EEE3endEv @8392
    _ZNSt3mapINSt7__cxx1112basic_stringIcSt11char_traitsIcESaIcEEE13gmsh_yysymbolSt4lessIS5_ESaISt4pairIKS5_S6_EEE5beginEv @8393
    _ZNSt3mapINSt7__cxx1112basic_stringIcSt11char_traitsIcESaIcEEE13gmsh_yysymbolSt4lessIS5_ESaISt4pairIKS5_S6_EEE5clearEv @8394
    _ZNSt3mapINSt7__cxx1112basic_stringIcSt11char_traitsIcESaIcEEE13gmsh_yysymbolSt4lessIS5_ESaISt4pairIKS5_S6_EEE5eraseERSA_ @8395
    _ZNSt3mapINSt7__cxx1112basic_stringIcSt11char_traitsIcESaIcEEE13gmsh_yysymbolSt4lessIS5_ESaISt4pairIKS5_S6_EEEC1Ev @8396
    _ZNSt3mapINSt7__cxx1112basic_stringIcSt11char_traitsIcESaIcEEE13gmsh_yysymbolSt4lessIS5_ESaISt4pairIKS5_S6_EEED1Ev @8397
    _ZNSt3mapINSt7__cxx1112basic_stringIcSt11char_traitsIcESaIcEEE13gmsh_yysymbolSt4lessIS5_ESaISt4pairIKS5_S6_EEEixEOS5_ @8398
    _ZNSt3mapINSt7__cxx1112basic_stringIcSt11char_traitsIcESaIcEEE13gmsh_yysymbolSt4lessIS5_ESaISt4pairIKS5_S6_EEEixERSA_ @8399
    _ZNSt3mapINSt7__cxx1112basic_stringIcSt11char_traitsIcESaIcEEE6StructSt4lessIS5_ESaISt4pairIKS5_S6_EEE11lower_boundERSA_ @8400
    _ZNSt3mapINSt7__cxx1112basic_stringIcSt11char_traitsIcESaIcEEE6StructSt4lessIS5_ESaISt4pairIKS5_S6_EEE3endEv @8401
    _ZNSt3mapINSt7__cxx1112basic_stringIcSt11char_traitsIcESaIcEEE6StructSt4lessIS5_ESaISt4pairIKS5_S6_EEEC1Ev @8402
    _ZNSt3mapINSt7__cxx1112basic_stringIcSt11char_traitsIcESaIcEEE6StructSt4lessIS5_ESaISt4pairIKS5_S6_EEED1Ev @8403
    _ZNSt3mapINSt7__cxx1112basic_stringIcSt11char_traitsIcESaIcEEE6StructSt4lessIS5_ESaISt4pairIKS5_S6_EEEixERSA_ @8404
    _ZNSt3mapINSt7__cxx1112basic_stringIcSt11char_traitsIcESaIcEEE7StructsSt4lessIS5_ESaISt4pairIKS5_S6_EEE11lower_boundERSA_ @8405
    _ZNSt3mapINSt7__cxx1112basic_stringIcSt11char_traitsIcESaIcEEE7StructsSt4lessIS5_ESaISt4pairIKS5_S6_EEE3endEv @8406
    _ZNSt3mapINSt7__cxx1112basic_stringIcSt11char_traitsIcESaIcEEE7StructsSt4lessIS5_ESaISt4pairIKS5_S6_EEE4findERSA_ @8407
    _ZNSt3mapINSt7__cxx1112basic_stringIcSt11char_traitsIcESaIcEEE7StructsSt4lessIS5_ESaISt4pairIKS5_S6_EEE5clearEv @8408
    _ZNSt3mapINSt7__cxx1112basic_stringIcSt11char_traitsIcESaIcEEE7StructsSt4lessIS5_ESaISt4pairIKS5_S6_EEEC1Ev @8409
    _ZNSt3mapINSt7__cxx1112basic_stringIcSt11char_traitsIcESaIcEEE7StructsSt4lessIS5_ESaISt4pairIKS5_S6_EEED1Ev @8410
    _ZNSt3mapINSt7__cxx1112basic_stringIcSt11char_traitsIcESaIcEEE7StructsSt4lessIS5_ESaISt4pairIKS5_S6_EEEixERSA_ @8411
    _ZNSt3mapINSt7__cxx1112basic_stringIcSt11char_traitsIcESaIcEEEP11FieldOptionSt4lessIS5_ESaISt4pairIKS5_S7_EEE11lower_boundERSB_ @8412
    _ZNSt3mapINSt7__cxx1112basic_stringIcSt11char_traitsIcESaIcEEEP11FieldOptionSt4lessIS5_ESaISt4pairIKS5_S7_EEE3endEv @8413
    _ZNSt3mapINSt7__cxx1112basic_stringIcSt11char_traitsIcESaIcEEEP11FieldOptionSt4lessIS5_ESaISt4pairIKS5_S7_EEEixEOS5_ @8414
    _ZNSt3mapINSt7__cxx1112basic_stringIcSt11char_traitsIcESaIcEEEP12FieldFactorySt4lessIS5_ESaISt4pairIKS5_S7_EEEixEOS5_ @8415
    _ZNSt3mapINSt7__cxx1112basic_stringIcSt11char_traitsIcESaIcEEEP13FieldCallbackSt4lessIS5_ESaISt4pairIKS5_S7_EEE11lower_boundERSB_ @8416
    _ZNSt3mapINSt7__cxx1112basic_stringIcSt11char_traitsIcESaIcEEEP13FieldCallbackSt4lessIS5_ESaISt4pairIKS5_S7_EEE3endEv @8417
    _ZNSt3mapINSt7__cxx1112basic_stringIcSt11char_traitsIcESaIcEEEP13FieldCallbackSt4lessIS5_ESaISt4pairIKS5_S7_EEEixEOS5_ @8418
    _ZNSt3mapINSt7__cxx1112basic_stringIcSt11char_traitsIcESaIcEEES5_St4lessIS5_ESaISt4pairIKS5_S5_EEEixEOS5_ @8419
    _ZNSt3mapINSt7__cxx1112basic_stringIcSt11char_traitsIcESaIcEEESt6vectorIS5_SaIS5_EESt4lessIS5_ESaISt4pairIKS5_S8_EEE11lower_boundERSC_ @8420
    _ZNSt3mapINSt7__cxx1112basic_stringIcSt11char_traitsIcESaIcEEESt6vectorIS5_SaIS5_EESt4lessIS5_ESaISt4pairIKS5_S8_EEE3endEv @8421
    _ZNSt3mapINSt7__cxx1112basic_stringIcSt11char_traitsIcESaIcEEESt6vectorIS5_SaIS5_EESt4lessIS5_ESaISt4pairIKS5_S8_EEE5beginEv @8422
    _ZNSt3mapINSt7__cxx1112basic_stringIcSt11char_traitsIcESaIcEEESt6vectorIS5_SaIS5_EESt4lessIS5_ESaISt4pairIKS5_S8_EEE5clearEv @8423
    _ZNSt3mapINSt7__cxx1112basic_stringIcSt11char_traitsIcESaIcEEESt6vectorIS5_SaIS5_EESt4lessIS5_ESaISt4pairIKS5_S8_EEE6insertISt17_Rb_tree_iteratorISD_EEEvT_SJ_ @8424
    _ZNSt3mapINSt7__cxx1112basic_stringIcSt11char_traitsIcESaIcEEESt6vectorIS5_SaIS5_EESt4lessIS5_ESaISt4pairIKS5_S8_EEEC1ERKSF_ @8425
    _ZNSt3mapINSt7__cxx1112basic_stringIcSt11char_traitsIcESaIcEEESt6vectorIS5_SaIS5_EESt4lessIS5_ESaISt4pairIKS5_S8_EEEC1Ev @8426
    _ZNSt3mapINSt7__cxx1112basic_stringIcSt11char_traitsIcESaIcEEESt6vectorIS5_SaIS5_EESt4lessIS5_ESaISt4pairIKS5_S8_EEED1Ev @8427
    _ZNSt3mapINSt7__cxx1112basic_stringIcSt11char_traitsIcESaIcEEESt6vectorIS5_SaIS5_EESt4lessIS5_ESaISt4pairIKS5_S8_EEEaSERKSF_ @8428
    _ZNSt3mapINSt7__cxx1112basic_stringIcSt11char_traitsIcESaIcEEESt6vectorIS5_SaIS5_EESt4lessIS5_ESaISt4pairIKS5_S8_EEEixEOS5_ @8429
    _ZNSt3mapINSt7__cxx1112basic_stringIcSt11char_traitsIcESaIcEEESt6vectorIS5_SaIS5_EESt4lessIS5_ESaISt4pairIKS5_S8_EEEixERSC_ @8430
    _ZNSt3mapINSt7__cxx1112basic_stringIcSt11char_traitsIcESaIcEEESt6vectorIdSaIdEESt4lessIS5_ESaISt4pairIKS5_S8_EEE11lower_boundERSC_ @8431
    _ZNSt3mapINSt7__cxx1112basic_stringIcSt11char_traitsIcESaIcEEESt6vectorIdSaIdEESt4lessIS5_ESaISt4pairIKS5_S8_EEE3endEv @8432
    _ZNSt3mapINSt7__cxx1112basic_stringIcSt11char_traitsIcESaIcEEESt6vectorIdSaIdEESt4lessIS5_ESaISt4pairIKS5_S8_EEE4findERSC_ @8433
    _ZNSt3mapINSt7__cxx1112basic_stringIcSt11char_traitsIcESaIcEEESt6vectorIdSaIdEESt4lessIS5_ESaISt4pairIKS5_S8_EEE5beginEv @8434
    _ZNSt3mapINSt7__cxx1112basic_stringIcSt11char_traitsIcESaIcEEESt6vectorIdSaIdEESt4lessIS5_ESaISt4pairIKS5_S8_EEE5clearEv @8435
    _ZNSt3mapINSt7__cxx1112basic_stringIcSt11char_traitsIcESaIcEEESt6vectorIdSaIdEESt4lessIS5_ESaISt4pairIKS5_S8_EEE6insertISt17_Rb_tree_iteratorISD_EEEvT_SJ_ @8436
    _ZNSt3mapINSt7__cxx1112basic_stringIcSt11char_traitsIcESaIcEEESt6vectorIdSaIdEESt4lessIS5_ESaISt4pairIKS5_S8_EEEC1ERKSF_ @8437
    _ZNSt3mapINSt7__cxx1112basic_stringIcSt11char_traitsIcESaIcEEESt6vectorIdSaIdEESt4lessIS5_ESaISt4pairIKS5_S8_EEEC1Ev @8438
    _ZNSt3mapINSt7__cxx1112basic_stringIcSt11char_traitsIcESaIcEEESt6vectorIdSaIdEESt4lessIS5_ESaISt4pairIKS5_S8_EEED1Ev @8439
    _ZNSt3mapINSt7__cxx1112basic_stringIcSt11char_traitsIcESaIcEEESt6vectorIdSaIdEESt4lessIS5_ESaISt4pairIKS5_S8_EEEaSERKSF_ @8440
    _ZNSt3mapINSt7__cxx1112basic_stringIcSt11char_traitsIcESaIcEEESt6vectorIdSaIdEESt4lessIS5_ESaISt4pairIKS5_S8_EEEixEOS5_ @8441
    _ZNSt3mapINSt7__cxx1112basic_stringIcSt11char_traitsIcESaIcEEESt6vectorIdSaIdEESt4lessIS5_ESaISt4pairIKS5_S8_EEEixERSC_ @8442
    _ZNSt3mapINSt7__cxx1112basic_stringIcSt11char_traitsIcESaIcEEESt6vectorIiSaIiEESt4lessIS5_ESaISt4pairIKS5_S8_EEEixEOS5_ @8443
    _ZNSt3mapIP8MElementSt3setISt4pairIjjESt4lessIS4_ESaIS4_EES5_IS1_ESaIS3_IKS1_S8_EEEixERSA_ @8444
    _ZNSt3mapISt4pairIP7MVertexS2_ESt6vectorIS2_SaIS2_EESt4lessIS3_ESaIS0_IKS3_S6_EEEixERS9_ @8445
    _ZNSt3mapIiNSt7__cxx1112basic_stringIcSt11char_traitsIcESaIcEEESt4lessIiESaISt4pairIKiS5_EEEixERS9_ @8446
    _ZNSt3mapIiS_IiNSt7__cxx1112basic_stringIcSt11char_traitsIcESaIcEEESt4lessIiESaISt4pairIKiS5_EEES7_SaIS8_IS9_SC_EEEixERS9_ @8447
    _ZNSt3mapIiSt4pairIdSt6vectorIiSaIiEEESt4lessIiESaIS0_IKiS4_EEE11lower_boundERS7_ @8448
    _ZNSt3mapIiSt4pairIdSt6vectorIiSaIiEEESt4lessIiESaIS0_IKiS4_EEE3endEv @8449
    _ZNSt3mapIiSt4pairIdSt6vectorIiSaIiEEESt4lessIiESaIS0_IKiS4_EEED1Ev @8450
    _ZNSt3mapIiSt4pairIdSt6vectorIiSaIiEEESt4lessIiESaIS0_IKiS4_EEEixERS7_ @8451
    _ZNSt3mapIiSt6vectorIP7GEntitySaIS2_EESt4lessIiESaISt4pairIKiS4_EEE3endEv @8452
    _ZNSt3mapIiSt6vectorIP7GEntitySaIS2_EESt4lessIiESaISt4pairIKiS4_EEE4findERS8_ @8453
    _ZNSt3mapIiSt6vectorIP7GEntitySaIS2_EESt4lessIiESaISt4pairIKiS4_EEE5beginEv @8454
    _ZNSt3mapIiSt6vectorIP7GEntitySaIS2_EESt4lessIiESaISt4pairIKiS4_EEEC1Ev @8455
    _ZNSt3mapIiSt6vectorIP7GEntitySaIS2_EESt4lessIiESaISt4pairIKiS4_EEED1Ev @8456
    _ZNSt3mapIiSt6vectorIP8MElementSaIS2_EESt4lessIiESaISt4pairIKiS4_EEEixEOi @8457
    _ZNSt3mapIiSt6vectorIP8MElementSaIS2_EESt4lessIiESaISt4pairIKiS4_EEEixERS8_ @8458
    _ZNSt3mapIiiSt4lessIiESaISt4pairIKiiEEE11lower_boundERS3_ @8459
    _ZNSt3mapIiiSt4lessIiESaISt4pairIKiiEEE3endEv @8460
    _ZNSt3mapIiiSt4lessIiESaISt4pairIKiiEEEC1Ev @8461
    _ZNSt3mapIiiSt4lessIiESaISt4pairIKiiEEED1Ev @8462
    _ZNSt3mapIiiSt4lessIiESaISt4pairIKiiEEEixEOi @8463
    _ZNSt3mapIiiSt4lessIiESaISt4pairIKiiEEEixERS3_ @8464
    _ZNSt3setI13EdgeToRecoverSt4lessIS0_ESaIS0_EE4findERKS0_ @8465
    _ZNSt3setI13EdgeToRecoverSt4lessIS0_ESaIS0_EE6insertEOS0_ @8466
    _ZNSt3setI5MEdge9Less_EdgeSaIS0_EEC1Ev @8467
    _ZNSt3setI5MEdge9Less_EdgeSaIS0_EED1Ev @8468
    _ZNSt3setIP14BDS_GeomEntity12GeomLessThanSaIS1_EE4findERKS1_ @8469
    _ZNSt3setIP14BDS_GeomEntity12GeomLessThanSaIS1_EE6insertEOS1_ @8470
    _ZNSt3setIP14BDS_GeomEntity12GeomLessThanSaIS1_EED1Ev @8471
    _ZNSt3setIP9BDS_Point13PointLessThanSaIS1_EE4findERKS1_ @8472
    _ZNSt3setIP9BDS_Point13PointLessThanSaIS1_EE5eraseERKS1_ @8473
    _ZNSt3setIP9BDS_Point13PointLessThanSaIS1_EE6insertERKS1_ @8474
    _ZNSt3setIP9BDS_Point13PointLessThanSaIS1_EED1Ev @8475
    _ZNSt4pairIKNSt7__cxx1112basic_stringIcSt11char_traitsIcESaIcEEE13gmsh_yysymbolEC1IJOS5_EJEEESt21piecewise_construct_tSt5tupleIJDpT_EESC_IJDpT0_EE @8476
    _ZNSt4pairIKNSt7__cxx1112basic_stringIcSt11char_traitsIcESaIcEEE13gmsh_yysymbolEC1IJOS5_EJLy0EEJEJEEERSt5tupleIJDpT_EERSB_IJDpT1_EESt12_Index_tupleIJXspT0_EEESK_IJXspT2_EEE @8477
    _ZNSt4pairIKNSt7__cxx1112basic_stringIcSt11char_traitsIcESaIcEEE13gmsh_yysymbolEC1IJRS6_EJEEESt21piecewise_construct_tSt5tupleIJDpT_EESC_IJDpT0_EE @8478
    _ZNSt4pairIKNSt7__cxx1112basic_stringIcSt11char_traitsIcESaIcEEE13gmsh_yysymbolEC1IJRS6_EJLy0EEJEJEEERSt5tupleIJDpT_EERSB_IJDpT1_EESt12_Index_tupleIJXspT0_EEESK_IJXspT2_EEE @8479
    _ZNSt4pairIKNSt7__cxx1112basic_stringIcSt11char_traitsIcESaIcEEE13gmsh_yysymbolED1Ev @8480
    _ZNSt4pairIKNSt7__cxx1112basic_stringIcSt11char_traitsIcESaIcEEE6StructEC1IJRS6_EJEEESt21piecewise_construct_tSt5tupleIJDpT_EESC_IJDpT0_EE @8481
    _ZNSt4pairIKNSt7__cxx1112basic_stringIcSt11char_traitsIcESaIcEEE6StructEC1IJRS6_EJLy0EEJEJEEERSt5tupleIJDpT_EERSB_IJDpT1_EESt12_Index_tupleIJXspT0_EEESK_IJXspT2_EEE @8482
    _ZNSt4pairIKNSt7__cxx1112basic_stringIcSt11char_traitsIcESaIcEEE6StructED1Ev @8483
    _ZNSt4pairIKNSt7__cxx1112basic_stringIcSt11char_traitsIcESaIcEEE7StructsEC1IJRS6_EJEEESt21piecewise_construct_tSt5tupleIJDpT_EESC_IJDpT0_EE @8484
    _ZNSt4pairIKNSt7__cxx1112basic_stringIcSt11char_traitsIcESaIcEEE7StructsEC1IJRS6_EJLy0EEJEJEEERSt5tupleIJDpT_EERSB_IJDpT1_EESt12_Index_tupleIJXspT0_EEESK_IJXspT2_EEE @8485
    _ZNSt4pairIKNSt7__cxx1112basic_stringIcSt11char_traitsIcESaIcEEE7StructsED1Ev @8486
    _ZNSt4pairIKNSt7__cxx1112basic_stringIcSt11char_traitsIcESaIcEEEP11FieldOptionEC1IJOS5_EJEEESt21piecewise_construct_tSt5tupleIJDpT_EESD_IJDpT0_EE @8487
    _ZNSt4pairIKNSt7__cxx1112basic_stringIcSt11char_traitsIcESaIcEEEP11FieldOptionEC1IJOS5_EJLy0EEJEJEEERSt5tupleIJDpT_EERSC_IJDpT1_EESt12_Index_tupleIJXspT0_EEESL_IJXspT2_EEE @8488
    _ZNSt4pairIKNSt7__cxx1112basic_stringIcSt11char_traitsIcESaIcEEEP11FieldOptionED1Ev @8489
    _ZNSt4pairIKNSt7__cxx1112basic_stringIcSt11char_traitsIcESaIcEEEP13FieldCallbackEC1IJOS5_EJEEESt21piecewise_construct_tSt5tupleIJDpT_EESD_IJDpT0_EE @8490
    _ZNSt4pairIKNSt7__cxx1112basic_stringIcSt11char_traitsIcESaIcEEEP13FieldCallbackEC1IJOS5_EJLy0EEJEJEEERSt5tupleIJDpT_EERSC_IJDpT1_EESt12_Index_tupleIJXspT0_EEESL_IJXspT2_EEE @8491
    _ZNSt4pairIKNSt7__cxx1112basic_stringIcSt11char_traitsIcESaIcEEEP13FieldCallbackED1Ev @8492
    _ZNSt4pairIKNSt7__cxx1112basic_stringIcSt11char_traitsIcESaIcEEESt6vectorIS5_SaIS5_EEEC1ERKSA_ @8493
    _ZNSt4pairIKNSt7__cxx1112basic_stringIcSt11char_traitsIcESaIcEEESt6vectorIS5_SaIS5_EEEC1IJOS5_EJEEESt21piecewise_construct_tSt5tupleIJDpT_EESE_IJDpT0_EE @8494
    _ZNSt4pairIKNSt7__cxx1112basic_stringIcSt11char_traitsIcESaIcEEESt6vectorIS5_SaIS5_EEEC1IJOS5_EJLy0EEJEJEEERSt5tupleIJDpT_EERSD_IJDpT1_EESt12_Index_tupleIJXspT0_EEESM_IJXspT2_EEE @8495
